C79E  78        SEI                             A:00 X:00 Y:00 P:24 SP:FD CYC:  0 SL:241
C79F  D8        CLD                             A:00 X:00 Y:00 P:24 SP:FD CYC:  6 SL:241
C7A0  A9 10     LDA #$10                        A:00 X:00 Y:00 P:24 SP:FD CYC: 12 SL:241
C7A2  8D 00 20  STA $2000 = FF                  A:10 X:00 Y:00 P:24 SP:FD CYC: 18 SL:241
C7A5  A2 FF     LDX #$FF                        A:10 X:00 Y:00 P:24 SP:FD CYC: 30 SL:241
C7A7  9A        TXS                             A:10 X:FF Y:00 P:A4 SP:FD CYC: 36 SL:241
C7A8  AD 02 20  LDA $2002 = FF                  A:10 X:FF Y:00 P:A4 SP:FF CYC: 42 SL:241
C7AB  29 80     AND #$80                        A:10 X:FF Y:00 P:24 SP:FF CYC: 54 SL:241
C7AD  F0 F9     BEQ $C7A8                       A:00 X:FF Y:00 P:26 SP:FF CYC: 60 SL:241
C7A8  AD 02 20  LDA $2002 = FF                  A:00 X:FF Y:00 P:26 SP:FF CYC: 69 SL:241
C7AB  29 80     AND #$80                        A:10 X:FF Y:00 P:24 SP:FF CYC: 81 SL:241
C7AD  F0 F9     BEQ $C7A8                       A:00 X:FF Y:00 P:26 SP:FF CYC: 87 SL:241
C7A8  AD 02 20  LDA $2002 = FF                  A:00 X:FF Y:00 P:26 SP:FF CYC: 96 SL:241
C7AB  29 80     AND #$80                        A:10 X:FF Y:00 P:24 SP:FF CYC:108 SL:241
C7AD  F0 F9     BEQ $C7A8                       A:00 X:FF Y:00 P:26 SP:FF CYC:114 SL:241
C7A8  AD 02 20  LDA $2002 = FF                  A:00 X:FF Y:00 P:26 SP:FF CYC:123 SL:241
C7AB  29 80     AND #$80                        A:10 X:FF Y:00 P:24 SP:FF CYC:135 SL:241
C7AD  F0 F9     BEQ $C7A8                       A:00 X:FF Y:00 P:26 SP:FF CYC:141 SL:241
C7A8  AD 02 20  LDA $2002 = FF                  A:00 X:FF Y:00 P:26 SP:FF CYC:150 SL:241
C7AB  29 80     AND #$80                        A:10 X:FF Y:00 P:24 SP:FF CYC:162 SL:241
C7AD  F0 F9     BEQ $C7A8                       A:00 X:FF Y:00 P:26 SP:FF CYC:168 SL:241
C7A8  AD 02 20  LDA $2002 = FF                  A:00 X:FF Y:00 P:26 SP:FF CYC:177 SL:241
C7AB  29 80     AND #$80                        A:10 X:FF Y:00 P:24 SP:FF CYC:189 SL:241
C7AD  F0 F9     BEQ $C7A8                       A:00 X:FF Y:00 P:26 SP:FF CYC:195 SL:241
C7A8  AD 02 20  LDA $2002 = FF                  A:00 X:FF Y:00 P:26 SP:FF CYC:204 SL:241
C7AB  29 80     AND #$80                        A:10 X:FF Y:00 P:24 SP:FF CYC:216 SL:241
C7AD  F0 F9     BEQ $C7A8                       A:00 X:FF Y:00 P:26 SP:FF CYC:222 SL:241
C7A8  AD 02 20  LDA $2002 = FF                  A:00 X:FF Y:00 P:26 SP:FF CYC:231 SL:241
C7AB  29 80     AND #$80                        A:10 X:FF Y:00 P:24 SP:FF CYC:243 SL:241
C7AD  F0 F9     BEQ $C7A8                       A:00 X:FF Y:00 P:26 SP:FF CYC:249 SL:241
C7A8  AD 02 20  LDA $2002 = FF                  A:00 X:FF Y:00 P:26 SP:FF CYC:258 SL:241
C7AB  29 80     AND #$80                        A:10 X:FF Y:00 P:24 SP:FF CYC:270 SL:241
C7AD  F0 F9     BEQ $C7A8                       A:00 X:FF Y:00 P:26 SP:FF CYC:276 SL:241
C7A8  AD 02 20  LDA $2002 = FF                  A:00 X:FF Y:00 P:26 SP:FF CYC:285 SL:241
C7AB  29 80     AND #$80                        A:10 X:FF Y:00 P:24 SP:FF CYC:297 SL:241
C7AD  F0 F9     BEQ $C7A8                       A:00 X:FF Y:00 P:26 SP:FF CYC:303 SL:241
C7A8  AD 02 20  LDA $2002 = FF                  A:00 X:FF Y:00 P:26 SP:FF CYC:312 SL:241
C7AB  29 80     AND #$80                        A:10 X:FF Y:00 P:24 SP:FF CYC:324 SL:241
C7AD  F0 F9     BEQ $C7A8                       A:00 X:FF Y:00 P:26 SP:FF CYC:330 SL:241
C7A8  AD 02 20  LDA $2002 = FF                  A:00 X:FF Y:00 P:26 SP:FF CYC:339 SL:241
C7AB  29 80     AND #$80                        A:10 X:FF Y:00 P:24 SP:FF CYC: 10 SL:242
C7AD  F0 F9     BEQ $C7A8                       A:00 X:FF Y:00 P:26 SP:FF CYC: 16 SL:242
C7A8  AD 02 20  LDA $2002 = FF                  A:00 X:FF Y:00 P:26 SP:FF CYC: 25 SL:242
C7AB  29 80     AND #$80                        A:10 X:FF Y:00 P:24 SP:FF CYC: 37 SL:242
C7AD  F0 F9     BEQ $C7A8                       A:00 X:FF Y:00 P:26 SP:FF CYC: 43 SL:242
C7A8  AD 02 20  LDA $2002 = FF                  A:00 X:FF Y:00 P:26 SP:FF CYC: 52 SL:242
C7AB  29 80     AND #$80                        A:10 X:FF Y:00 P:24 SP:FF CYC: 64 SL:242
C7AD  F0 F9     BEQ $C7A8                       A:00 X:FF Y:00 P:26 SP:FF CYC: 70 SL:242
C7A8  AD 02 20  LDA $2002 = FF                  A:00 X:FF Y:00 P:26 SP:FF CYC: 79 SL:242
C7AB  29 80     AND #$80                        A:10 X:FF Y:00 P:24 SP:FF CYC: 91 SL:242
C7AD  F0 F9     BEQ $C7A8                       A:00 X:FF Y:00 P:26 SP:FF CYC: 97 SL:242
C7A8  AD 02 20  LDA $2002 = FF                  A:00 X:FF Y:00 P:26 SP:FF CYC:106 SL:242
C7AB  29 80     AND #$80                        A:10 X:FF Y:00 P:24 SP:FF CYC:118 SL:242
C7AD  F0 F9     BEQ $C7A8                       A:00 X:FF Y:00 P:26 SP:FF CYC:124 SL:242
C7A8  AD 02 20  LDA $2002 = FF                  A:00 X:FF Y:00 P:26 SP:FF CYC:133 SL:242
C7AB  29 80     AND #$80                        A:10 X:FF Y:00 P:24 SP:FF CYC:145 SL:242
C7AD  F0 F9     BEQ $C7A8                       A:00 X:FF Y:00 P:26 SP:FF CYC:151 SL:242
C7A8  AD 02 20  LDA $2002 = FF                  A:00 X:FF Y:00 P:26 SP:FF CYC:160 SL:242
C7AB  29 80     AND #$80                        A:10 X:FF Y:00 P:24 SP:FF CYC:172 SL:242
C7AD  F0 F9     BEQ $C7A8                       A:00 X:FF Y:00 P:26 SP:FF CYC:178 SL:242
C7A8  AD 02 20  LDA $2002 = FF                  A:00 X:FF Y:00 P:26 SP:FF CYC:187 SL:242
C7AB  29 80     AND #$80                        A:10 X:FF Y:00 P:24 SP:FF CYC:199 SL:242
C7AD  F0 F9     BEQ $C7A8                       A:00 X:FF Y:00 P:26 SP:FF CYC:205 SL:242
C7A8  AD 02 20  LDA $2002 = FF                  A:00 X:FF Y:00 P:26 SP:FF CYC:214 SL:242
C7AB  29 80     AND #$80                        A:10 X:FF Y:00 P:24 SP:FF CYC:226 SL:242
C7AD  F0 F9     BEQ $C7A8                       A:00 X:FF Y:00 P:26 SP:FF CYC:232 SL:242
C7A8  AD 02 20  LDA $2002 = FF                  A:00 X:FF Y:00 P:26 SP:FF CYC:241 SL:242
C7AB  29 80     AND #$80                        A:10 X:FF Y:00 P:24 SP:FF CYC:253 SL:242
C7AD  F0 F9     BEQ $C7A8                       A:00 X:FF Y:00 P:26 SP:FF CYC:259 SL:242
C7A8  AD 02 20  LDA $2002 = FF                  A:00 X:FF Y:00 P:26 SP:FF CYC:268 SL:242
C7AB  29 80     AND #$80                        A:10 X:FF Y:00 P:24 SP:FF CYC:280 SL:242
C7AD  F0 F9     BEQ $C7A8                       A:00 X:FF Y:00 P:26 SP:FF CYC:286 SL:242
C7A8  AD 02 20  LDA $2002 = FF                  A:00 X:FF Y:00 P:26 SP:FF CYC:295 SL:242
C7AB  29 80     AND #$80                        A:10 X:FF Y:00 P:24 SP:FF CYC:307 SL:242
C7AD  F0 F9     BEQ $C7A8                       A:00 X:FF Y:00 P:26 SP:FF CYC:313 SL:242
C7A8  AD 02 20  LDA $2002 = FF                  A:00 X:FF Y:00 P:26 SP:FF CYC:322 SL:242
C7AB  29 80     AND #$80                        A:10 X:FF Y:00 P:24 SP:FF CYC:334 SL:242
C7AD  F0 F9     BEQ $C7A8                       A:00 X:FF Y:00 P:26 SP:FF CYC:340 SL:242
C7A8  AD 02 20  LDA $2002 = FF                  A:00 X:FF Y:00 P:26 SP:FF CYC:  8 SL:243
C7AB  29 80     AND #$80                        A:10 X:FF Y:00 P:24 SP:FF CYC: 20 SL:243
C7AD  F0 F9     BEQ $C7A8                       A:00 X:FF Y:00 P:26 SP:FF CYC: 26 SL:243
C7A8  AD 02 20  LDA $2002 = FF                  A:00 X:FF Y:00 P:26 SP:FF CYC: 35 SL:243
C7AB  29 80     AND #$80                        A:10 X:FF Y:00 P:24 SP:FF CYC: 47 SL:243
C7AD  F0 F9     BEQ $C7A8                       A:00 X:FF Y:00 P:26 SP:FF CYC: 53 SL:243
C7A8  AD 02 20  LDA $2002 = FF                  A:00 X:FF Y:00 P:26 SP:FF CYC: 62 SL:243
C7AB  29 80     AND #$80                        A:10 X:FF Y:00 P:24 SP:FF CYC: 74 SL:243
C7AD  F0 F9     BEQ $C7A8                       A:00 X:FF Y:00 P:26 SP:FF CYC: 80 SL:243
C7A8  AD 02 20  LDA $2002 = FF                  A:00 X:FF Y:00 P:26 SP:FF CYC: 89 SL:243
C7AB  29 80     AND #$80                        A:10 X:FF Y:00 P:24 SP:FF CYC:101 SL:243
C7AD  F0 F9     BEQ $C7A8                       A:00 X:FF Y:00 P:26 SP:FF CYC:107 SL:243
C7A8  AD 02 20  LDA $2002 = FF                  A:00 X:FF Y:00 P:26 SP:FF CYC:116 SL:243
C7AB  29 80     AND #$80                        A:10 X:FF Y:00 P:24 SP:FF CYC:128 SL:243
C7AD  F0 F9     BEQ $C7A8                       A:00 X:FF Y:00 P:26 SP:FF CYC:134 SL:243
C7A8  AD 02 20  LDA $2002 = FF                  A:00 X:FF Y:00 P:26 SP:FF CYC:143 SL:243
C7AB  29 80     AND #$80                        A:10 X:FF Y:00 P:24 SP:FF CYC:155 SL:243
C7AD  F0 F9     BEQ $C7A8                       A:00 X:FF Y:00 P:26 SP:FF CYC:161 SL:243
C7A8  AD 02 20  LDA $2002 = FF                  A:00 X:FF Y:00 P:26 SP:FF CYC:170 SL:243
C7AB  29 80     AND #$80                        A:10 X:FF Y:00 P:24 SP:FF CYC:182 SL:243
C7AD  F0 F9     BEQ $C7A8                       A:00 X:FF Y:00 P:26 SP:FF CYC:188 SL:243
C7A8  AD 02 20  LDA $2002 = FF                  A:00 X:FF Y:00 P:26 SP:FF CYC:197 SL:243
C7AB  29 80     AND #$80                        A:10 X:FF Y:00 P:24 SP:FF CYC:209 SL:243
C7AD  F0 F9     BEQ $C7A8                       A:00 X:FF Y:00 P:26 SP:FF CYC:215 SL:243
C7A8  AD 02 20  LDA $2002 = FF                  A:00 X:FF Y:00 P:26 SP:FF CYC:224 SL:243
C7AB  29 80     AND #$80                        A:10 X:FF Y:00 P:24 SP:FF CYC:236 SL:243
C7AD  F0 F9     BEQ $C7A8                       A:00 X:FF Y:00 P:26 SP:FF CYC:242 SL:243
C7A8  AD 02 20  LDA $2002 = FF                  A:00 X:FF Y:00 P:26 SP:FF CYC:251 SL:243
C7AB  29 80     AND #$80                        A:10 X:FF Y:00 P:24 SP:FF CYC:263 SL:243
C7AD  F0 F9     BEQ $C7A8                       A:00 X:FF Y:00 P:26 SP:FF CYC:269 SL:243
C7A8  AD 02 20  LDA $2002 = FF                  A:00 X:FF Y:00 P:26 SP:FF CYC:278 SL:243
C7AB  29 80     AND #$80                        A:10 X:FF Y:00 P:24 SP:FF CYC:290 SL:243
C7AD  F0 F9     BEQ $C7A8                       A:00 X:FF Y:00 P:26 SP:FF CYC:296 SL:243
C7A8  AD 02 20  LDA $2002 = FF                  A:00 X:FF Y:00 P:26 SP:FF CYC:305 SL:243
C7AB  29 80     AND #$80                        A:10 X:FF Y:00 P:24 SP:FF CYC:317 SL:243
C7AD  F0 F9     BEQ $C7A8                       A:00 X:FF Y:00 P:26 SP:FF CYC:323 SL:243
C7A8  AD 02 20  LDA $2002 = FF                  A:00 X:FF Y:00 P:26 SP:FF CYC:332 SL:243
C7AB  29 80     AND #$80                        A:10 X:FF Y:00 P:24 SP:FF CYC:  3 SL:244
C7AD  F0 F9     BEQ $C7A8                       A:00 X:FF Y:00 P:26 SP:FF CYC:  9 SL:244
C7A8  AD 02 20  LDA $2002 = FF                  A:00 X:FF Y:00 P:26 SP:FF CYC: 18 SL:244
C7AB  29 80     AND #$80                        A:10 X:FF Y:00 P:24 SP:FF CYC: 30 SL:244
C7AD  F0 F9     BEQ $C7A8                       A:00 X:FF Y:00 P:26 SP:FF CYC: 36 SL:244
C7A8  AD 02 20  LDA $2002 = FF                  A:00 X:FF Y:00 P:26 SP:FF CYC: 45 SL:244
C7AB  29 80     AND #$80                        A:10 X:FF Y:00 P:24 SP:FF CYC: 57 SL:244
C7AD  F0 F9     BEQ $C7A8                       A:00 X:FF Y:00 P:26 SP:FF CYC: 63 SL:244
C7A8  AD 02 20  LDA $2002 = FF                  A:00 X:FF Y:00 P:26 SP:FF CYC: 72 SL:244
C7AB  29 80     AND #$80                        A:10 X:FF Y:00 P:24 SP:FF CYC: 84 SL:244
C7AD  F0 F9     BEQ $C7A8                       A:00 X:FF Y:00 P:26 SP:FF CYC: 90 SL:244
C7A8  AD 02 20  LDA $2002 = FF                  A:00 X:FF Y:00 P:26 SP:FF CYC: 99 SL:244
C7AB  29 80     AND #$80                        A:10 X:FF Y:00 P:24 SP:FF CYC:111 SL:244
C7AD  F0 F9     BEQ $C7A8                       A:00 X:FF Y:00 P:26 SP:FF CYC:117 SL:244
C7A8  AD 02 20  LDA $2002 = FF                  A:00 X:FF Y:00 P:26 SP:FF CYC:126 SL:244
C7AB  29 80     AND #$80                        A:10 X:FF Y:00 P:24 SP:FF CYC:138 SL:244
C7AD  F0 F9     BEQ $C7A8                       A:00 X:FF Y:00 P:26 SP:FF CYC:144 SL:244
C7A8  AD 02 20  LDA $2002 = FF                  A:00 X:FF Y:00 P:26 SP:FF CYC:153 SL:244
C7AB  29 80     AND #$80                        A:10 X:FF Y:00 P:24 SP:FF CYC:165 SL:244
C7AD  F0 F9     BEQ $C7A8                       A:00 X:FF Y:00 P:26 SP:FF CYC:171 SL:244
C7A8  AD 02 20  LDA $2002 = FF                  A:00 X:FF Y:00 P:26 SP:FF CYC:180 SL:244
C7AB  29 80     AND #$80                        A:10 X:FF Y:00 P:24 SP:FF CYC:192 SL:244
C7AD  F0 F9     BEQ $C7A8                       A:00 X:FF Y:00 P:26 SP:FF CYC:198 SL:244
C7A8  AD 02 20  LDA $2002 = FF                  A:00 X:FF Y:00 P:26 SP:FF CYC:207 SL:244
C7AB  29 80     AND #$80                        A:10 X:FF Y:00 P:24 SP:FF CYC:219 SL:244
C7AD  F0 F9     BEQ $C7A8                       A:00 X:FF Y:00 P:26 SP:FF CYC:225 SL:244
C7A8  AD 02 20  LDA $2002 = FF                  A:00 X:FF Y:00 P:26 SP:FF CYC:234 SL:244
C7AB  29 80     AND #$80                        A:10 X:FF Y:00 P:24 SP:FF CYC:246 SL:244
C7AD  F0 F9     BEQ $C7A8                       A:00 X:FF Y:00 P:26 SP:FF CYC:252 SL:244
C7A8  AD 02 20  LDA $2002 = FF                  A:00 X:FF Y:00 P:26 SP:FF CYC:261 SL:244
C7AB  29 80     AND #$80                        A:10 X:FF Y:00 P:24 SP:FF CYC:273 SL:244
C7AD  F0 F9     BEQ $C7A8                       A:00 X:FF Y:00 P:26 SP:FF CYC:279 SL:244
C7A8  AD 02 20  LDA $2002 = FF                  A:00 X:FF Y:00 P:26 SP:FF CYC:288 SL:244
C7AB  29 80     AND #$80                        A:10 X:FF Y:00 P:24 SP:FF CYC:300 SL:244
C7AD  F0 F9     BEQ $C7A8                       A:00 X:FF Y:00 P:26 SP:FF CYC:306 SL:244
C7A8  AD 02 20  LDA $2002 = FF                  A:00 X:FF Y:00 P:26 SP:FF CYC:315 SL:244
C7AB  29 80     AND #$80                        A:10 X:FF Y:00 P:24 SP:FF CYC:327 SL:244
C7AD  F0 F9     BEQ $C7A8                       A:00 X:FF Y:00 P:26 SP:FF CYC:333 SL:244
C7A8  AD 02 20  LDA $2002 = FF                  A:00 X:FF Y:00 P:26 SP:FF CYC:  1 SL:245
C7AB  29 80     AND #$80                        A:10 X:FF Y:00 P:24 SP:FF CYC: 13 SL:245
C7AD  F0 F9     BEQ $C7A8                       A:00 X:FF Y:00 P:26 SP:FF CYC: 19 SL:245
C7A8  AD 02 20  LDA $2002 = FF                  A:00 X:FF Y:00 P:26 SP:FF CYC: 28 SL:245
C7AB  29 80     AND #$80                        A:10 X:FF Y:00 P:24 SP:FF CYC: 40 SL:245
C7AD  F0 F9     BEQ $C7A8                       A:00 X:FF Y:00 P:26 SP:FF CYC: 46 SL:245
C7A8  AD 02 20  LDA $2002 = FF                  A:00 X:FF Y:00 P:26 SP:FF CYC: 55 SL:245
C7AB  29 80     AND #$80                        A:10 X:FF Y:00 P:24 SP:FF CYC: 67 SL:245
C7AD  F0 F9     BEQ $C7A8                       A:00 X:FF Y:00 P:26 SP:FF CYC: 73 SL:245
C7A8  AD 02 20  LDA $2002 = FF                  A:00 X:FF Y:00 P:26 SP:FF CYC: 82 SL:245
C7AB  29 80     AND #$80                        A:10 X:FF Y:00 P:24 SP:FF CYC: 94 SL:245
C7AD  F0 F9     BEQ $C7A8                       A:00 X:FF Y:00 P:26 SP:FF CYC:100 SL:245
C7A8  AD 02 20  LDA $2002 = FF                  A:00 X:FF Y:00 P:26 SP:FF CYC:109 SL:245
C7AB  29 80     AND #$80                        A:10 X:FF Y:00 P:24 SP:FF CYC:121 SL:245
C7AD  F0 F9     BEQ $C7A8                       A:00 X:FF Y:00 P:26 SP:FF CYC:127 SL:245
C7A8  AD 02 20  LDA $2002 = FF                  A:00 X:FF Y:00 P:26 SP:FF CYC:136 SL:245
C7AB  29 80     AND #$80                        A:10 X:FF Y:00 P:24 SP:FF CYC:148 SL:245
C7AD  F0 F9     BEQ $C7A8                       A:00 X:FF Y:00 P:26 SP:FF CYC:154 SL:245
C7A8  AD 02 20  LDA $2002 = FF                  A:00 X:FF Y:00 P:26 SP:FF CYC:163 SL:245
C7AB  29 80     AND #$80                        A:10 X:FF Y:00 P:24 SP:FF CYC:175 SL:245
C7AD  F0 F9     BEQ $C7A8                       A:00 X:FF Y:00 P:26 SP:FF CYC:181 SL:245
C7A8  AD 02 20  LDA $2002 = FF                  A:00 X:FF Y:00 P:26 SP:FF CYC:190 SL:245
C7AB  29 80     AND #$80                        A:10 X:FF Y:00 P:24 SP:FF CYC:202 SL:245
C7AD  F0 F9     BEQ $C7A8                       A:00 X:FF Y:00 P:26 SP:FF CYC:208 SL:245
C7A8  AD 02 20  LDA $2002 = FF                  A:00 X:FF Y:00 P:26 SP:FF CYC:217 SL:245
C7AB  29 80     AND #$80                        A:10 X:FF Y:00 P:24 SP:FF CYC:229 SL:245
C7AD  F0 F9     BEQ $C7A8                       A:00 X:FF Y:00 P:26 SP:FF CYC:235 SL:245
C7A8  AD 02 20  LDA $2002 = FF                  A:00 X:FF Y:00 P:26 SP:FF CYC:244 SL:245
C7AB  29 80     AND #$80                        A:10 X:FF Y:00 P:24 SP:FF CYC:256 SL:245
C7AD  F0 F9     BEQ $C7A8                       A:00 X:FF Y:00 P:26 SP:FF CYC:262 SL:245
C7A8  AD 02 20  LDA $2002 = FF                  A:00 X:FF Y:00 P:26 SP:FF CYC:271 SL:245
C7AB  29 80     AND #$80                        A:10 X:FF Y:00 P:24 SP:FF CYC:283 SL:245
C7AD  F0 F9     BEQ $C7A8                       A:00 X:FF Y:00 P:26 SP:FF CYC:289 SL:245
C7A8  AD 02 20  LDA $2002 = FF                  A:00 X:FF Y:00 P:26 SP:FF CYC:298 SL:245
C7AB  29 80     AND #$80                        A:10 X:FF Y:00 P:24 SP:FF CYC:310 SL:245
C7AD  F0 F9     BEQ $C7A8                       A:00 X:FF Y:00 P:26 SP:FF CYC:316 SL:245
C7A8  AD 02 20  LDA $2002 = FF                  A:00 X:FF Y:00 P:26 SP:FF CYC:325 SL:245
C7AB  29 80     AND #$80                        A:10 X:FF Y:00 P:24 SP:FF CYC:337 SL:245
C7AD  F0 F9     BEQ $C7A8                       A:00 X:FF Y:00 P:26 SP:FF CYC:  2 SL:246
C7A8  AD 02 20  LDA $2002 = FF                  A:00 X:FF Y:00 P:26 SP:FF CYC: 11 SL:246
C7AB  29 80     AND #$80                        A:10 X:FF Y:00 P:24 SP:FF CYC: 23 SL:246
C7AD  F0 F9     BEQ $C7A8                       A:00 X:FF Y:00 P:26 SP:FF CYC: 29 SL:246
C7A8  AD 02 20  LDA $2002 = FF                  A:00 X:FF Y:00 P:26 SP:FF CYC: 38 SL:246
C7AB  29 80     AND #$80                        A:10 X:FF Y:00 P:24 SP:FF CYC: 50 SL:246
C7AD  F0 F9     BEQ $C7A8                       A:00 X:FF Y:00 P:26 SP:FF CYC: 56 SL:246
C7A8  AD 02 20  LDA $2002 = FF                  A:00 X:FF Y:00 P:26 SP:FF CYC: 65 SL:246
C7AB  29 80     AND #$80                        A:10 X:FF Y:00 P:24 SP:FF CYC: 77 SL:246
C7AD  F0 F9     BEQ $C7A8                       A:00 X:FF Y:00 P:26 SP:FF CYC: 83 SL:246
C7A8  AD 02 20  LDA $2002 = FF                  A:00 X:FF Y:00 P:26 SP:FF CYC: 92 SL:246
C7AB  29 80     AND #$80                        A:10 X:FF Y:00 P:24 SP:FF CYC:104 SL:246
C7AD  F0 F9     BEQ $C7A8                       A:00 X:FF Y:00 P:26 SP:FF CYC:110 SL:246
C7A8  AD 02 20  LDA $2002 = FF                  A:00 X:FF Y:00 P:26 SP:FF CYC:119 SL:246
C7AB  29 80     AND #$80                        A:10 X:FF Y:00 P:24 SP:FF CYC:131 SL:246
C7AD  F0 F9     BEQ $C7A8                       A:00 X:FF Y:00 P:26 SP:FF CYC:137 SL:246
C7A8  AD 02 20  LDA $2002 = FF                  A:00 X:FF Y:00 P:26 SP:FF CYC:146 SL:246
C7AB  29 80     AND #$80                        A:10 X:FF Y:00 P:24 SP:FF CYC:158 SL:246
C7AD  F0 F9     BEQ $C7A8                       A:00 X:FF Y:00 P:26 SP:FF CYC:164 SL:246
C7A8  AD 02 20  LDA $2002 = FF                  A:00 X:FF Y:00 P:26 SP:FF CYC:173 SL:246
C7AB  29 80     AND #$80                        A:10 X:FF Y:00 P:24 SP:FF CYC:185 SL:246
C7AD  F0 F9     BEQ $C7A8                       A:00 X:FF Y:00 P:26 SP:FF CYC:191 SL:246
C7A8  AD 02 20  LDA $2002 = FF                  A:00 X:FF Y:00 P:26 SP:FF CYC:200 SL:246
C7AB  29 80     AND #$80                        A:10 X:FF Y:00 P:24 SP:FF CYC:212 SL:246
C7AD  F0 F9     BEQ $C7A8                       A:00 X:FF Y:00 P:26 SP:FF CYC:218 SL:246
C7A8  AD 02 20  LDA $2002 = FF                  A:00 X:FF Y:00 P:26 SP:FF CYC:227 SL:246
C7AB  29 80     AND #$80                        A:10 X:FF Y:00 P:24 SP:FF CYC:239 SL:246
C7AD  F0 F9     BEQ $C7A8                       A:00 X:FF Y:00 P:26 SP:FF CYC:245 SL:246
C7A8  AD 02 20  LDA $2002 = FF                  A:00 X:FF Y:00 P:26 SP:FF CYC:254 SL:246
C7AB  29 80     AND #$80                        A:10 X:FF Y:00 P:24 SP:FF CYC:266 SL:246
C7AD  F0 F9     BEQ $C7A8                       A:00 X:FF Y:00 P:26 SP:FF CYC:272 SL:246
C7A8  AD 02 20  LDA $2002 = FF                  A:00 X:FF Y:00 P:26 SP:FF CYC:281 SL:246
C7AB  29 80     AND #$80                        A:10 X:FF Y:00 P:24 SP:FF CYC:293 SL:246
C7AD  F0 F9     BEQ $C7A8                       A:00 X:FF Y:00 P:26 SP:FF CYC:299 SL:246
C7A8  AD 02 20  LDA $2002 = FF                  A:00 X:FF Y:00 P:26 SP:FF CYC:308 SL:246
C7AB  29 80     AND #$80                        A:10 X:FF Y:00 P:24 SP:FF CYC:320 SL:246
C7AD  F0 F9     BEQ $C7A8                       A:00 X:FF Y:00 P:26 SP:FF CYC:326 SL:246
C7A8  AD 02 20  LDA $2002 = FF                  A:00 X:FF Y:00 P:26 SP:FF CYC:335 SL:246
C7AB  29 80     AND #$80                        A:10 X:FF Y:00 P:24 SP:FF CYC:  6 SL:247
C7AD  F0 F9     BEQ $C7A8                       A:00 X:FF Y:00 P:26 SP:FF CYC: 12 SL:247
C7A8  AD 02 20  LDA $2002 = FF                  A:00 X:FF Y:00 P:26 SP:FF CYC: 21 SL:247
C7AB  29 80     AND #$80                        A:10 X:FF Y:00 P:24 SP:FF CYC: 33 SL:247
C7AD  F0 F9     BEQ $C7A8                       A:00 X:FF Y:00 P:26 SP:FF CYC: 39 SL:247
C7A8  AD 02 20  LDA $2002 = FF                  A:00 X:FF Y:00 P:26 SP:FF CYC: 48 SL:247
C7AB  29 80     AND #$80                        A:10 X:FF Y:00 P:24 SP:FF CYC: 60 SL:247
C7AD  F0 F9     BEQ $C7A8                       A:00 X:FF Y:00 P:26 SP:FF CYC: 66 SL:247
C7A8  AD 02 20  LDA $2002 = FF                  A:00 X:FF Y:00 P:26 SP:FF CYC: 75 SL:247
C7AB  29 80     AND #$80                        A:10 X:FF Y:00 P:24 SP:FF CYC: 87 SL:247
C7AD  F0 F9     BEQ $C7A8                       A:00 X:FF Y:00 P:26 SP:FF CYC: 93 SL:247
C7A8  AD 02 20  LDA $2002 = FF                  A:00 X:FF Y:00 P:26 SP:FF CYC:102 SL:247
C7AB  29 80     AND #$80                        A:10 X:FF Y:00 P:24 SP:FF CYC:114 SL:247
C7AD  F0 F9     BEQ $C7A8                       A:00 X:FF Y:00 P:26 SP:FF CYC:120 SL:247
C7A8  AD 02 20  LDA $2002 = FF                  A:00 X:FF Y:00 P:26 SP:FF CYC:129 SL:247
C7AB  29 80     AND #$80                        A:10 X:FF Y:00 P:24 SP:FF CYC:141 SL:247
C7AD  F0 F9     BEQ $C7A8                       A:00 X:FF Y:00 P:26 SP:FF CYC:147 SL:247
C7A8  AD 02 20  LDA $2002 = FF                  A:00 X:FF Y:00 P:26 SP:FF CYC:156 SL:247
C7AB  29 80     AND #$80                        A:10 X:FF Y:00 P:24 SP:FF CYC:168 SL:247
C7AD  F0 F9     BEQ $C7A8                       A:00 X:FF Y:00 P:26 SP:FF CYC:174 SL:247
C7A8  AD 02 20  LDA $2002 = FF                  A:00 X:FF Y:00 P:26 SP:FF CYC:183 SL:247
C7AB  29 80     AND #$80                        A:10 X:FF Y:00 P:24 SP:FF CYC:195 SL:247
C7AD  F0 F9     BEQ $C7A8                       A:00 X:FF Y:00 P:26 SP:FF CYC:201 SL:247
C7A8  AD 02 20  LDA $2002 = FF                  A:00 X:FF Y:00 P:26 SP:FF CYC:210 SL:247
C7AB  29 80     AND #$80                        A:10 X:FF Y:00 P:24 SP:FF CYC:222 SL:247
C7AD  F0 F9     BEQ $C7A8                       A:00 X:FF Y:00 P:26 SP:FF CYC:228 SL:247
C7A8  AD 02 20  LDA $2002 = FF                  A:00 X:FF Y:00 P:26 SP:FF CYC:237 SL:247
C7AB  29 80     AND #$80                        A:10 X:FF Y:00 P:24 SP:FF CYC:249 SL:247
C7AD  F0 F9     BEQ $C7A8                       A:00 X:FF Y:00 P:26 SP:FF CYC:255 SL:247
C7A8  AD 02 20  LDA $2002 = FF                  A:00 X:FF Y:00 P:26 SP:FF CYC:264 SL:247
C7AB  29 80     AND #$80                        A:10 X:FF Y:00 P:24 SP:FF CYC:276 SL:247
C7AD  F0 F9     BEQ $C7A8                       A:00 X:FF Y:00 P:26 SP:FF CYC:282 SL:247
C7A8  AD 02 20  LDA $2002 = FF                  A:00 X:FF Y:00 P:26 SP:FF CYC:291 SL:247
C7AB  29 80     AND #$80                        A:10 X:FF Y:00 P:24 SP:FF CYC:303 SL:247
C7AD  F0 F9     BEQ $C7A8                       A:00 X:FF Y:00 P:26 SP:FF CYC:309 SL:247
C7A8  AD 02 20  LDA $2002 = FF                  A:00 X:FF Y:00 P:26 SP:FF CYC:318 SL:247
C7AB  29 80     AND #$80                        A:10 X:FF Y:00 P:24 SP:FF CYC:330 SL:247
C7AD  F0 F9     BEQ $C7A8                       A:00 X:FF Y:00 P:26 SP:FF CYC:336 SL:247
C7A8  AD 02 20  LDA $2002 = FF                  A:00 X:FF Y:00 P:26 SP:FF CYC:  4 SL:248
C7AB  29 80     AND #$80                        A:10 X:FF Y:00 P:24 SP:FF CYC: 16 SL:248
C7AD  F0 F9     BEQ $C7A8                       A:00 X:FF Y:00 P:26 SP:FF CYC: 22 SL:248
C7A8  AD 02 20  LDA $2002 = FF                  A:00 X:FF Y:00 P:26 SP:FF CYC: 31 SL:248
C7AB  29 80     AND #$80                        A:10 X:FF Y:00 P:24 SP:FF CYC: 43 SL:248
C7AD  F0 F9     BEQ $C7A8                       A:00 X:FF Y:00 P:26 SP:FF CYC: 49 SL:248
C7A8  AD 02 20  LDA $2002 = FF                  A:00 X:FF Y:00 P:26 SP:FF CYC: 58 SL:248
C7AB  29 80     AND #$80                        A:10 X:FF Y:00 P:24 SP:FF CYC: 70 SL:248
C7AD  F0 F9     BEQ $C7A8                       A:00 X:FF Y:00 P:26 SP:FF CYC: 76 SL:248
C7A8  AD 02 20  LDA $2002 = FF                  A:00 X:FF Y:00 P:26 SP:FF CYC: 85 SL:248
C7AB  29 80     AND #$80                        A:10 X:FF Y:00 P:24 SP:FF CYC: 97 SL:248
C7AD  F0 F9     BEQ $C7A8                       A:00 X:FF Y:00 P:26 SP:FF CYC:103 SL:248
C7A8  AD 02 20  LDA $2002 = FF                  A:00 X:FF Y:00 P:26 SP:FF CYC:112 SL:248
C7AB  29 80     AND #$80                        A:10 X:FF Y:00 P:24 SP:FF CYC:124 SL:248
C7AD  F0 F9     BEQ $C7A8                       A:00 X:FF Y:00 P:26 SP:FF CYC:130 SL:248
C7A8  AD 02 20  LDA $2002 = FF                  A:00 X:FF Y:00 P:26 SP:FF CYC:139 SL:248
C7AB  29 80     AND #$80                        A:10 X:FF Y:00 P:24 SP:FF CYC:151 SL:248
C7AD  F0 F9     BEQ $C7A8                       A:00 X:FF Y:00 P:26 SP:FF CYC:157 SL:248
C7A8  AD 02 20  LDA $2002 = FF                  A:00 X:FF Y:00 P:26 SP:FF CYC:166 SL:248
C7AB  29 80     AND #$80                        A:10 X:FF Y:00 P:24 SP:FF CYC:178 SL:248
C7AD  F0 F9     BEQ $C7A8                       A:00 X:FF Y:00 P:26 SP:FF CYC:184 SL:248
C7A8  AD 02 20  LDA $2002 = FF                  A:00 X:FF Y:00 P:26 SP:FF CYC:193 SL:248
C7AB  29 80     AND #$80                        A:10 X:FF Y:00 P:24 SP:FF CYC:205 SL:248
C7AD  F0 F9     BEQ $C7A8                       A:00 X:FF Y:00 P:26 SP:FF CYC:211 SL:248
C7A8  AD 02 20  LDA $2002 = FF                  A:00 X:FF Y:00 P:26 SP:FF CYC:220 SL:248
C7AB  29 80     AND #$80                        A:10 X:FF Y:00 P:24 SP:FF CYC:232 SL:248
C7AD  F0 F9     BEQ $C7A8                       A:00 X:FF Y:00 P:26 SP:FF CYC:238 SL:248
C7A8  AD 02 20  LDA $2002 = FF                  A:00 X:FF Y:00 P:26 SP:FF CYC:247 SL:248
C7AB  29 80     AND #$80                        A:10 X:FF Y:00 P:24 SP:FF CYC:259 SL:248
C7AD  F0 F9     BEQ $C7A8                       A:00 X:FF Y:00 P:26 SP:FF CYC:265 SL:248
C7A8  AD 02 20  LDA $2002 = FF                  A:00 X:FF Y:00 P:26 SP:FF CYC:274 SL:248
C7AB  29 80     AND #$80                        A:10 X:FF Y:00 P:24 SP:FF CYC:286 SL:248
C7AD  F0 F9     BEQ $C7A8                       A:00 X:FF Y:00 P:26 SP:FF CYC:292 SL:248
C7A8  AD 02 20  LDA $2002 = FF                  A:00 X:FF Y:00 P:26 SP:FF CYC:301 SL:248
C7AB  29 80     AND #$80                        A:10 X:FF Y:00 P:24 SP:FF CYC:313 SL:248
C7AD  F0 F9     BEQ $C7A8                       A:00 X:FF Y:00 P:26 SP:FF CYC:319 SL:248
C7A8  AD 02 20  LDA $2002 = FF                  A:00 X:FF Y:00 P:26 SP:FF CYC:328 SL:248
C7AB  29 80     AND #$80                        A:10 X:FF Y:00 P:24 SP:FF CYC:340 SL:248
C7AD  F0 F9     BEQ $C7A8                       A:00 X:FF Y:00 P:26 SP:FF CYC:  5 SL:249
C7A8  AD 02 20  LDA $2002 = FF                  A:00 X:FF Y:00 P:26 SP:FF CYC: 14 SL:249
C7AB  29 80     AND #$80                        A:10 X:FF Y:00 P:24 SP:FF CYC: 26 SL:249
C7AD  F0 F9     BEQ $C7A8                       A:00 X:FF Y:00 P:26 SP:FF CYC: 32 SL:249
C7A8  AD 02 20  LDA $2002 = FF                  A:00 X:FF Y:00 P:26 SP:FF CYC: 41 SL:249
C7AB  29 80     AND #$80                        A:10 X:FF Y:00 P:24 SP:FF CYC: 53 SL:249
C7AD  F0 F9     BEQ $C7A8                       A:00 X:FF Y:00 P:26 SP:FF CYC: 59 SL:249
C7A8  AD 02 20  LDA $2002 = FF                  A:00 X:FF Y:00 P:26 SP:FF CYC: 68 SL:249
C7AB  29 80     AND #$80                        A:10 X:FF Y:00 P:24 SP:FF CYC: 80 SL:249
C7AD  F0 F9     BEQ $C7A8                       A:00 X:FF Y:00 P:26 SP:FF CYC: 86 SL:249
C7A8  AD 02 20  LDA $2002 = FF                  A:00 X:FF Y:00 P:26 SP:FF CYC: 95 SL:249
C7AB  29 80     AND #$80                        A:10 X:FF Y:00 P:24 SP:FF CYC:107 SL:249
C7AD  F0 F9     BEQ $C7A8                       A:00 X:FF Y:00 P:26 SP:FF CYC:113 SL:249
C7A8  AD 02 20  LDA $2002 = FF                  A:00 X:FF Y:00 P:26 SP:FF CYC:122 SL:249
C7AB  29 80     AND #$80                        A:10 X:FF Y:00 P:24 SP:FF CYC:134 SL:249
C7AD  F0 F9     BEQ $C7A8                       A:00 X:FF Y:00 P:26 SP:FF CYC:140 SL:249
C7A8  AD 02 20  LDA $2002 = FF                  A:00 X:FF Y:00 P:26 SP:FF CYC:149 SL:249
C7AB  29 80     AND #$80                        A:10 X:FF Y:00 P:24 SP:FF CYC:161 SL:249
C7AD  F0 F9     BEQ $C7A8                       A:00 X:FF Y:00 P:26 SP:FF CYC:167 SL:249
C7A8  AD 02 20  LDA $2002 = FF                  A:00 X:FF Y:00 P:26 SP:FF CYC:176 SL:249
C7AB  29 80     AND #$80                        A:10 X:FF Y:00 P:24 SP:FF CYC:188 SL:249
C7AD  F0 F9     BEQ $C7A8                       A:00 X:FF Y:00 P:26 SP:FF CYC:194 SL:249
C7A8  AD 02 20  LDA $2002 = FF                  A:00 X:FF Y:00 P:26 SP:FF CYC:203 SL:249
C7AB  29 80     AND #$80                        A:10 X:FF Y:00 P:24 SP:FF CYC:215 SL:249
C7AD  F0 F9     BEQ $C7A8                       A:00 X:FF Y:00 P:26 SP:FF CYC:221 SL:249
C7A8  AD 02 20  LDA $2002 = FF                  A:00 X:FF Y:00 P:26 SP:FF CYC:230 SL:249
C7AB  29 80     AND #$80                        A:10 X:FF Y:00 P:24 SP:FF CYC:242 SL:249
C7AD  F0 F9     BEQ $C7A8                       A:00 X:FF Y:00 P:26 SP:FF CYC:248 SL:249
C7A8  AD 02 20  LDA $2002 = FF                  A:00 X:FF Y:00 P:26 SP:FF CYC:257 SL:249
C7AB  29 80     AND #$80                        A:10 X:FF Y:00 P:24 SP:FF CYC:269 SL:249
C7AD  F0 F9     BEQ $C7A8                       A:00 X:FF Y:00 P:26 SP:FF CYC:275 SL:249
C7A8  AD 02 20  LDA $2002 = FF                  A:00 X:FF Y:00 P:26 SP:FF CYC:284 SL:249
C7AB  29 80     AND #$80                        A:10 X:FF Y:00 P:24 SP:FF CYC:296 SL:249
C7AD  F0 F9     BEQ $C7A8                       A:00 X:FF Y:00 P:26 SP:FF CYC:302 SL:249
C7A8  AD 02 20  LDA $2002 = FF                  A:00 X:FF Y:00 P:26 SP:FF CYC:311 SL:249
C7AB  29 80     AND #$80                        A:10 X:FF Y:00 P:24 SP:FF CYC:323 SL:249
C7AD  F0 F9     BEQ $C7A8                       A:00 X:FF Y:00 P:26 SP:FF CYC:329 SL:249
C7A8  AD 02 20  LDA $2002 = FF                  A:00 X:FF Y:00 P:26 SP:FF CYC:338 SL:249
C7AB  29 80     AND #$80                        A:10 X:FF Y:00 P:24 SP:FF CYC:  9 SL:250
C7AD  F0 F9     BEQ $C7A8                       A:00 X:FF Y:00 P:26 SP:FF CYC: 15 SL:250
C7A8  AD 02 20  LDA $2002 = FF                  A:00 X:FF Y:00 P:26 SP:FF CYC: 24 SL:250
C7AB  29 80     AND #$80                        A:10 X:FF Y:00 P:24 SP:FF CYC: 36 SL:250
C7AD  F0 F9     BEQ $C7A8                       A:00 X:FF Y:00 P:26 SP:FF CYC: 42 SL:250
C7A8  AD 02 20  LDA $2002 = FF                  A:00 X:FF Y:00 P:26 SP:FF CYC: 51 SL:250
C7AB  29 80     AND #$80                        A:10 X:FF Y:00 P:24 SP:FF CYC: 63 SL:250
C7AD  F0 F9     BEQ $C7A8                       A:00 X:FF Y:00 P:26 SP:FF CYC: 69 SL:250
C7A8  AD 02 20  LDA $2002 = FF                  A:00 X:FF Y:00 P:26 SP:FF CYC: 78 SL:250
C7AB  29 80     AND #$80                        A:10 X:FF Y:00 P:24 SP:FF CYC: 90 SL:250
C7AD  F0 F9     BEQ $C7A8                       A:00 X:FF Y:00 P:26 SP:FF CYC: 96 SL:250
C7A8  AD 02 20  LDA $2002 = FF                  A:00 X:FF Y:00 P:26 SP:FF CYC:105 SL:250
C7AB  29 80     AND #$80                        A:10 X:FF Y:00 P:24 SP:FF CYC:117 SL:250
C7AD  F0 F9     BEQ $C7A8                       A:00 X:FF Y:00 P:26 SP:FF CYC:123 SL:250
C7A8  AD 02 20  LDA $2002 = FF                  A:00 X:FF Y:00 P:26 SP:FF CYC:132 SL:250
C7AB  29 80     AND #$80                        A:10 X:FF Y:00 P:24 SP:FF CYC:144 SL:250
C7AD  F0 F9     BEQ $C7A8                       A:00 X:FF Y:00 P:26 SP:FF CYC:150 SL:250
C7A8  AD 02 20  LDA $2002 = FF                  A:00 X:FF Y:00 P:26 SP:FF CYC:159 SL:250
C7AB  29 80     AND #$80                        A:10 X:FF Y:00 P:24 SP:FF CYC:171 SL:250
C7AD  F0 F9     BEQ $C7A8                       A:00 X:FF Y:00 P:26 SP:FF CYC:177 SL:250
C7A8  AD 02 20  LDA $2002 = FF                  A:00 X:FF Y:00 P:26 SP:FF CYC:186 SL:250
C7AB  29 80     AND #$80                        A:10 X:FF Y:00 P:24 SP:FF CYC:198 SL:250
C7AD  F0 F9     BEQ $C7A8                       A:00 X:FF Y:00 P:26 SP:FF CYC:204 SL:250
C7A8  AD 02 20  LDA $2002 = FF                  A:00 X:FF Y:00 P:26 SP:FF CYC:213 SL:250
C7AB  29 80     AND #$80                        A:10 X:FF Y:00 P:24 SP:FF CYC:225 SL:250
C7AD  F0 F9     BEQ $C7A8                       A:00 X:FF Y:00 P:26 SP:FF CYC:231 SL:250
C7A8  AD 02 20  LDA $2002 = FF                  A:00 X:FF Y:00 P:26 SP:FF CYC:240 SL:250
C7AB  29 80     AND #$80                        A:10 X:FF Y:00 P:24 SP:FF CYC:252 SL:250
C7AD  F0 F9     BEQ $C7A8                       A:00 X:FF Y:00 P:26 SP:FF CYC:258 SL:250
C7A8  AD 02 20  LDA $2002 = FF                  A:00 X:FF Y:00 P:26 SP:FF CYC:267 SL:250
C7AB  29 80     AND #$80                        A:10 X:FF Y:00 P:24 SP:FF CYC:279 SL:250
C7AD  F0 F9     BEQ $C7A8                       A:00 X:FF Y:00 P:26 SP:FF CYC:285 SL:250
C7A8  AD 02 20  LDA $2002 = FF                  A:00 X:FF Y:00 P:26 SP:FF CYC:294 SL:250
C7AB  29 80     AND #$80                        A:10 X:FF Y:00 P:24 SP:FF CYC:306 SL:250
C7AD  F0 F9     BEQ $C7A8                       A:00 X:FF Y:00 P:26 SP:FF CYC:312 SL:250
C7A8  AD 02 20  LDA $2002 = FF                  A:00 X:FF Y:00 P:26 SP:FF CYC:321 SL:250
C7AB  29 80     AND #$80                        A:10 X:FF Y:00 P:24 SP:FF CYC:333 SL:250
C7AD  F0 F9     BEQ $C7A8                       A:00 X:FF Y:00 P:26 SP:FF CYC:339 SL:250
C7A8  AD 02 20  LDA $2002 = FF                  A:00 X:FF Y:00 P:26 SP:FF CYC:  7 SL:251
C7AB  29 80     AND #$80                        A:10 X:FF Y:00 P:24 SP:FF CYC: 19 SL:251
C7AD  F0 F9     BEQ $C7A8                       A:00 X:FF Y:00 P:26 SP:FF CYC: 25 SL:251
C7A8  AD 02 20  LDA $2002 = FF                  A:00 X:FF Y:00 P:26 SP:FF CYC: 34 SL:251
C7AB  29 80     AND #$80                        A:10 X:FF Y:00 P:24 SP:FF CYC: 46 SL:251
C7AD  F0 F9     BEQ $C7A8                       A:00 X:FF Y:00 P:26 SP:FF CYC: 52 SL:251
C7A8  AD 02 20  LDA $2002 = FF                  A:00 X:FF Y:00 P:26 SP:FF CYC: 61 SL:251
C7AB  29 80     AND #$80                        A:10 X:FF Y:00 P:24 SP:FF CYC: 73 SL:251
C7AD  F0 F9     BEQ $C7A8                       A:00 X:FF Y:00 P:26 SP:FF CYC: 79 SL:251
C7A8  AD 02 20  LDA $2002 = FF                  A:00 X:FF Y:00 P:26 SP:FF CYC: 88 SL:251
C7AB  29 80     AND #$80                        A:10 X:FF Y:00 P:24 SP:FF CYC:100 SL:251
C7AD  F0 F9     BEQ $C7A8                       A:00 X:FF Y:00 P:26 SP:FF CYC:106 SL:251
C7A8  AD 02 20  LDA $2002 = FF                  A:00 X:FF Y:00 P:26 SP:FF CYC:115 SL:251
C7AB  29 80     AND #$80                        A:10 X:FF Y:00 P:24 SP:FF CYC:127 SL:251
C7AD  F0 F9     BEQ $C7A8                       A:00 X:FF Y:00 P:26 SP:FF CYC:133 SL:251
C7A8  AD 02 20  LDA $2002 = FF                  A:00 X:FF Y:00 P:26 SP:FF CYC:142 SL:251
C7AB  29 80     AND #$80                        A:10 X:FF Y:00 P:24 SP:FF CYC:154 SL:251
C7AD  F0 F9     BEQ $C7A8                       A:00 X:FF Y:00 P:26 SP:FF CYC:160 SL:251
C7A8  AD 02 20  LDA $2002 = FF                  A:00 X:FF Y:00 P:26 SP:FF CYC:169 SL:251
C7AB  29 80     AND #$80                        A:10 X:FF Y:00 P:24 SP:FF CYC:181 SL:251
C7AD  F0 F9     BEQ $C7A8                       A:00 X:FF Y:00 P:26 SP:FF CYC:187 SL:251
C7A8  AD 02 20  LDA $2002 = FF                  A:00 X:FF Y:00 P:26 SP:FF CYC:196 SL:251
C7AB  29 80     AND #$80                        A:10 X:FF Y:00 P:24 SP:FF CYC:208 SL:251
C7AD  F0 F9     BEQ $C7A8                       A:00 X:FF Y:00 P:26 SP:FF CYC:214 SL:251
C7A8  AD 02 20  LDA $2002 = FF                  A:00 X:FF Y:00 P:26 SP:FF CYC:223 SL:251
C7AB  29 80     AND #$80                        A:10 X:FF Y:00 P:24 SP:FF CYC:235 SL:251
C7AD  F0 F9     BEQ $C7A8                       A:00 X:FF Y:00 P:26 SP:FF CYC:241 SL:251
C7A8  AD 02 20  LDA $2002 = FF                  A:00 X:FF Y:00 P:26 SP:FF CYC:250 SL:251
C7AB  29 80     AND #$80                        A:10 X:FF Y:00 P:24 SP:FF CYC:262 SL:251
C7AD  F0 F9     BEQ $C7A8                       A:00 X:FF Y:00 P:26 SP:FF CYC:268 SL:251
C7A8  AD 02 20  LDA $2002 = FF                  A:00 X:FF Y:00 P:26 SP:FF CYC:277 SL:251
C7AB  29 80     AND #$80                        A:10 X:FF Y:00 P:24 SP:FF CYC:289 SL:251
C7AD  F0 F9     BEQ $C7A8                       A:00 X:FF Y:00 P:26 SP:FF CYC:295 SL:251
C7A8  AD 02 20  LDA $2002 = FF                  A:00 X:FF Y:00 P:26 SP:FF CYC:304 SL:251
C7AB  29 80     AND #$80                        A:10 X:FF Y:00 P:24 SP:FF CYC:316 SL:251
C7AD  F0 F9     BEQ $C7A8                       A:00 X:FF Y:00 P:26 SP:FF CYC:322 SL:251
C7A8  AD 02 20  LDA $2002 = FF                  A:00 X:FF Y:00 P:26 SP:FF CYC:331 SL:251
C7AB  29 80     AND #$80                        A:10 X:FF Y:00 P:24 SP:FF CYC:  2 SL:252
C7AD  F0 F9     BEQ $C7A8                       A:00 X:FF Y:00 P:26 SP:FF CYC:  8 SL:252
C7A8  AD 02 20  LDA $2002 = FF                  A:00 X:FF Y:00 P:26 SP:FF CYC: 17 SL:252
C7AB  29 80     AND #$80                        A:10 X:FF Y:00 P:24 SP:FF CYC: 29 SL:252
C7AD  F0 F9     BEQ $C7A8                       A:00 X:FF Y:00 P:26 SP:FF CYC: 35 SL:252
C7A8  AD 02 20  LDA $2002 = FF                  A:00 X:FF Y:00 P:26 SP:FF CYC: 44 SL:252
C7AB  29 80     AND #$80                        A:10 X:FF Y:00 P:24 SP:FF CYC: 56 SL:252
C7AD  F0 F9     BEQ $C7A8                       A:00 X:FF Y:00 P:26 SP:FF CYC: 62 SL:252
C7A8  AD 02 20  LDA $2002 = FF                  A:00 X:FF Y:00 P:26 SP:FF CYC: 71 SL:252
C7AB  29 80     AND #$80                        A:10 X:FF Y:00 P:24 SP:FF CYC: 83 SL:252
C7AD  F0 F9     BEQ $C7A8                       A:00 X:FF Y:00 P:26 SP:FF CYC: 89 SL:252
C7A8  AD 02 20  LDA $2002 = FF                  A:00 X:FF Y:00 P:26 SP:FF CYC: 98 SL:252
C7AB  29 80     AND #$80                        A:10 X:FF Y:00 P:24 SP:FF CYC:110 SL:252
C7AD  F0 F9     BEQ $C7A8                       A:00 X:FF Y:00 P:26 SP:FF CYC:116 SL:252
C7A8  AD 02 20  LDA $2002 = FF                  A:00 X:FF Y:00 P:26 SP:FF CYC:125 SL:252
C7AB  29 80     AND #$80                        A:10 X:FF Y:00 P:24 SP:FF CYC:137 SL:252
C7AD  F0 F9     BEQ $C7A8                       A:00 X:FF Y:00 P:26 SP:FF CYC:143 SL:252
C7A8  AD 02 20  LDA $2002 = FF                  A:00 X:FF Y:00 P:26 SP:FF CYC:152 SL:252
C7AB  29 80     AND #$80                        A:10 X:FF Y:00 P:24 SP:FF CYC:164 SL:252
C7AD  F0 F9     BEQ $C7A8                       A:00 X:FF Y:00 P:26 SP:FF CYC:170 SL:252
C7A8  AD 02 20  LDA $2002 = FF                  A:00 X:FF Y:00 P:26 SP:FF CYC:179 SL:252
C7AB  29 80     AND #$80                        A:10 X:FF Y:00 P:24 SP:FF CYC:191 SL:252
C7AD  F0 F9     BEQ $C7A8                       A:00 X:FF Y:00 P:26 SP:FF CYC:197 SL:252
C7A8  AD 02 20  LDA $2002 = FF                  A:00 X:FF Y:00 P:26 SP:FF CYC:206 SL:252
C7AB  29 80     AND #$80                        A:10 X:FF Y:00 P:24 SP:FF CYC:218 SL:252
C7AD  F0 F9     BEQ $C7A8                       A:00 X:FF Y:00 P:26 SP:FF CYC:224 SL:252
C7A8  AD 02 20  LDA $2002 = FF                  A:00 X:FF Y:00 P:26 SP:FF CYC:233 SL:252
C7AB  29 80     AND #$80                        A:10 X:FF Y:00 P:24 SP:FF CYC:245 SL:252
C7AD  F0 F9     BEQ $C7A8                       A:00 X:FF Y:00 P:26 SP:FF CYC:251 SL:252
C7A8  AD 02 20  LDA $2002 = FF                  A:00 X:FF Y:00 P:26 SP:FF CYC:260 SL:252
C7AB  29 80     AND #$80                        A:10 X:FF Y:00 P:24 SP:FF CYC:272 SL:252
C7AD  F0 F9     BEQ $C7A8                       A:00 X:FF Y:00 P:26 SP:FF CYC:278 SL:252
C7A8  AD 02 20  LDA $2002 = FF                  A:00 X:FF Y:00 P:26 SP:FF CYC:287 SL:252
C7AB  29 80     AND #$80                        A:10 X:FF Y:00 P:24 SP:FF CYC:299 SL:252
C7AD  F0 F9     BEQ $C7A8                       A:00 X:FF Y:00 P:26 SP:FF CYC:305 SL:252
C7A8  AD 02 20  LDA $2002 = FF                  A:00 X:FF Y:00 P:26 SP:FF CYC:314 SL:252
C7AB  29 80     AND #$80                        A:10 X:FF Y:00 P:24 SP:FF CYC:326 SL:252
C7AD  F0 F9     BEQ $C7A8                       A:00 X:FF Y:00 P:26 SP:FF CYC:332 SL:252
C7A8  AD 02 20  LDA $2002 = FF                  A:00 X:FF Y:00 P:26 SP:FF CYC:  0 SL:253
C7AB  29 80     AND #$80                        A:10 X:FF Y:00 P:24 SP:FF CYC: 12 SL:253
C7AD  F0 F9     BEQ $C7A8                       A:00 X:FF Y:00 P:26 SP:FF CYC: 18 SL:253
C7A8  AD 02 20  LDA $2002 = FF                  A:00 X:FF Y:00 P:26 SP:FF CYC: 27 SL:253
C7AB  29 80     AND #$80                        A:10 X:FF Y:00 P:24 SP:FF CYC: 39 SL:253
C7AD  F0 F9     BEQ $C7A8                       A:00 X:FF Y:00 P:26 SP:FF CYC: 45 SL:253
C7A8  AD 02 20  LDA $2002 = FF                  A:00 X:FF Y:00 P:26 SP:FF CYC: 54 SL:253
C7AB  29 80     AND #$80                        A:10 X:FF Y:00 P:24 SP:FF CYC: 66 SL:253
C7AD  F0 F9     BEQ $C7A8                       A:00 X:FF Y:00 P:26 SP:FF CYC: 72 SL:253
C7A8  AD 02 20  LDA $2002 = FF                  A:00 X:FF Y:00 P:26 SP:FF CYC: 81 SL:253
C7AB  29 80     AND #$80                        A:10 X:FF Y:00 P:24 SP:FF CYC: 93 SL:253
C7AD  F0 F9     BEQ $C7A8                       A:00 X:FF Y:00 P:26 SP:FF CYC: 99 SL:253
C7A8  AD 02 20  LDA $2002 = FF                  A:00 X:FF Y:00 P:26 SP:FF CYC:108 SL:253
C7AB  29 80     AND #$80                        A:10 X:FF Y:00 P:24 SP:FF CYC:120 SL:253
C7AD  F0 F9     BEQ $C7A8                       A:00 X:FF Y:00 P:26 SP:FF CYC:126 SL:253
C7A8  AD 02 20  LDA $2002 = FF                  A:00 X:FF Y:00 P:26 SP:FF CYC:135 SL:253
C7AB  29 80     AND #$80                        A:10 X:FF Y:00 P:24 SP:FF CYC:147 SL:253
C7AD  F0 F9     BEQ $C7A8                       A:00 X:FF Y:00 P:26 SP:FF CYC:153 SL:253
C7A8  AD 02 20  LDA $2002 = FF                  A:00 X:FF Y:00 P:26 SP:FF CYC:162 SL:253
C7AB  29 80     AND #$80                        A:10 X:FF Y:00 P:24 SP:FF CYC:174 SL:253
C7AD  F0 F9     BEQ $C7A8                       A:00 X:FF Y:00 P:26 SP:FF CYC:180 SL:253
C7A8  AD 02 20  LDA $2002 = FF                  A:00 X:FF Y:00 P:26 SP:FF CYC:189 SL:253
C7AB  29 80     AND #$80                        A:10 X:FF Y:00 P:24 SP:FF CYC:201 SL:253
C7AD  F0 F9     BEQ $C7A8                       A:00 X:FF Y:00 P:26 SP:FF CYC:207 SL:253
C7A8  AD 02 20  LDA $2002 = FF                  A:00 X:FF Y:00 P:26 SP:FF CYC:216 SL:253
C7AB  29 80     AND #$80                        A:10 X:FF Y:00 P:24 SP:FF CYC:228 SL:253
C7AD  F0 F9     BEQ $C7A8                       A:00 X:FF Y:00 P:26 SP:FF CYC:234 SL:253
C7A8  AD 02 20  LDA $2002 = FF                  A:00 X:FF Y:00 P:26 SP:FF CYC:243 SL:253
C7AB  29 80     AND #$80                        A:10 X:FF Y:00 P:24 SP:FF CYC:255 SL:253
C7AD  F0 F9     BEQ $C7A8                       A:00 X:FF Y:00 P:26 SP:FF CYC:261 SL:253
C7A8  AD 02 20  LDA $2002 = FF                  A:00 X:FF Y:00 P:26 SP:FF CYC:270 SL:253
C7AB  29 80     AND #$80                        A:10 X:FF Y:00 P:24 SP:FF CYC:282 SL:253
C7AD  F0 F9     BEQ $C7A8                       A:00 X:FF Y:00 P:26 SP:FF CYC:288 SL:253
C7A8  AD 02 20  LDA $2002 = FF                  A:00 X:FF Y:00 P:26 SP:FF CYC:297 SL:253
C7AB  29 80     AND #$80                        A:10 X:FF Y:00 P:24 SP:FF CYC:309 SL:253
C7AD  F0 F9     BEQ $C7A8                       A:00 X:FF Y:00 P:26 SP:FF CYC:315 SL:253
C7A8  AD 02 20  LDA $2002 = FF                  A:00 X:FF Y:00 P:26 SP:FF CYC:324 SL:253
C7AB  29 80     AND #$80                        A:10 X:FF Y:00 P:24 SP:FF CYC:336 SL:253
C7AD  F0 F9     BEQ $C7A8                       A:00 X:FF Y:00 P:26 SP:FF CYC:  1 SL:254
C7A8  AD 02 20  LDA $2002 = FF                  A:00 X:FF Y:00 P:26 SP:FF CYC: 10 SL:254
C7AB  29 80     AND #$80                        A:10 X:FF Y:00 P:24 SP:FF CYC: 22 SL:254
C7AD  F0 F9     BEQ $C7A8                       A:00 X:FF Y:00 P:26 SP:FF CYC: 28 SL:254
C7A8  AD 02 20  LDA $2002 = FF                  A:00 X:FF Y:00 P:26 SP:FF CYC: 37 SL:254
C7AB  29 80     AND #$80                        A:10 X:FF Y:00 P:24 SP:FF CYC: 49 SL:254
C7AD  F0 F9     BEQ $C7A8                       A:00 X:FF Y:00 P:26 SP:FF CYC: 55 SL:254
C7A8  AD 02 20  LDA $2002 = FF                  A:00 X:FF Y:00 P:26 SP:FF CYC: 64 SL:254
C7AB  29 80     AND #$80                        A:10 X:FF Y:00 P:24 SP:FF CYC: 76 SL:254
C7AD  F0 F9     BEQ $C7A8                       A:00 X:FF Y:00 P:26 SP:FF CYC: 82 SL:254
C7A8  AD 02 20  LDA $2002 = FF                  A:00 X:FF Y:00 P:26 SP:FF CYC: 91 SL:254
C7AB  29 80     AND #$80                        A:10 X:FF Y:00 P:24 SP:FF CYC:103 SL:254
C7AD  F0 F9     BEQ $C7A8                       A:00 X:FF Y:00 P:26 SP:FF CYC:109 SL:254
C7A8  AD 02 20  LDA $2002 = FF                  A:00 X:FF Y:00 P:26 SP:FF CYC:118 SL:254
C7AB  29 80     AND #$80                        A:10 X:FF Y:00 P:24 SP:FF CYC:130 SL:254
C7AD  F0 F9     BEQ $C7A8                       A:00 X:FF Y:00 P:26 SP:FF CYC:136 SL:254
C7A8  AD 02 20  LDA $2002 = FF                  A:00 X:FF Y:00 P:26 SP:FF CYC:145 SL:254
C7AB  29 80     AND #$80                        A:10 X:FF Y:00 P:24 SP:FF CYC:157 SL:254
C7AD  F0 F9     BEQ $C7A8                       A:00 X:FF Y:00 P:26 SP:FF CYC:163 SL:254
C7A8  AD 02 20  LDA $2002 = FF                  A:00 X:FF Y:00 P:26 SP:FF CYC:172 SL:254
C7AB  29 80     AND #$80                        A:10 X:FF Y:00 P:24 SP:FF CYC:184 SL:254
C7AD  F0 F9     BEQ $C7A8                       A:00 X:FF Y:00 P:26 SP:FF CYC:190 SL:254
C7A8  AD 02 20  LDA $2002 = FF                  A:00 X:FF Y:00 P:26 SP:FF CYC:199 SL:254
C7AB  29 80     AND #$80                        A:10 X:FF Y:00 P:24 SP:FF CYC:211 SL:254
C7AD  F0 F9     BEQ $C7A8                       A:00 X:FF Y:00 P:26 SP:FF CYC:217 SL:254
C7A8  AD 02 20  LDA $2002 = FF                  A:00 X:FF Y:00 P:26 SP:FF CYC:226 SL:254
C7AB  29 80     AND #$80                        A:10 X:FF Y:00 P:24 SP:FF CYC:238 SL:254
C7AD  F0 F9     BEQ $C7A8                       A:00 X:FF Y:00 P:26 SP:FF CYC:244 SL:254
C7A8  AD 02 20  LDA $2002 = FF                  A:00 X:FF Y:00 P:26 SP:FF CYC:253 SL:254
C7AB  29 80     AND #$80                        A:10 X:FF Y:00 P:24 SP:FF CYC:265 SL:254
C7AD  F0 F9     BEQ $C7A8                       A:00 X:FF Y:00 P:26 SP:FF CYC:271 SL:254
C7A8  AD 02 20  LDA $2002 = FF                  A:00 X:FF Y:00 P:26 SP:FF CYC:280 SL:254
C7AB  29 80     AND #$80                        A:10 X:FF Y:00 P:24 SP:FF CYC:292 SL:254
C7AD  F0 F9     BEQ $C7A8                       A:00 X:FF Y:00 P:26 SP:FF CYC:298 SL:254
C7A8  AD 02 20  LDA $2002 = FF                  A:00 X:FF Y:00 P:26 SP:FF CYC:307 SL:254
C7AB  29 80     AND #$80                        A:10 X:FF Y:00 P:24 SP:FF CYC:319 SL:254
C7AD  F0 F9     BEQ $C7A8                       A:00 X:FF Y:00 P:26 SP:FF CYC:325 SL:254
C7A8  AD 02 20  LDA $2002 = FF                  A:00 X:FF Y:00 P:26 SP:FF CYC:334 SL:254
C7AB  29 80     AND #$80                        A:10 X:FF Y:00 P:24 SP:FF CYC:  5 SL:255
C7AD  F0 F9     BEQ $C7A8                       A:00 X:FF Y:00 P:26 SP:FF CYC: 11 SL:255
C7A8  AD 02 20  LDA $2002 = FF                  A:00 X:FF Y:00 P:26 SP:FF CYC: 20 SL:255
C7AB  29 80     AND #$80                        A:10 X:FF Y:00 P:24 SP:FF CYC: 32 SL:255
C7AD  F0 F9     BEQ $C7A8                       A:00 X:FF Y:00 P:26 SP:FF CYC: 38 SL:255
C7A8  AD 02 20  LDA $2002 = FF                  A:00 X:FF Y:00 P:26 SP:FF CYC: 47 SL:255
C7AB  29 80     AND #$80                        A:10 X:FF Y:00 P:24 SP:FF CYC: 59 SL:255
C7AD  F0 F9     BEQ $C7A8                       A:00 X:FF Y:00 P:26 SP:FF CYC: 65 SL:255
C7A8  AD 02 20  LDA $2002 = FF                  A:00 X:FF Y:00 P:26 SP:FF CYC: 74 SL:255
C7AB  29 80     AND #$80                        A:10 X:FF Y:00 P:24 SP:FF CYC: 86 SL:255
C7AD  F0 F9     BEQ $C7A8                       A:00 X:FF Y:00 P:26 SP:FF CYC: 92 SL:255
C7A8  AD 02 20  LDA $2002 = FF                  A:00 X:FF Y:00 P:26 SP:FF CYC:101 SL:255
C7AB  29 80     AND #$80                        A:10 X:FF Y:00 P:24 SP:FF CYC:113 SL:255
C7AD  F0 F9     BEQ $C7A8                       A:00 X:FF Y:00 P:26 SP:FF CYC:119 SL:255
C7A8  AD 02 20  LDA $2002 = FF                  A:00 X:FF Y:00 P:26 SP:FF CYC:128 SL:255
C7AB  29 80     AND #$80                        A:10 X:FF Y:00 P:24 SP:FF CYC:140 SL:255
C7AD  F0 F9     BEQ $C7A8                       A:00 X:FF Y:00 P:26 SP:FF CYC:146 SL:255
C7A8  AD 02 20  LDA $2002 = FF                  A:00 X:FF Y:00 P:26 SP:FF CYC:155 SL:255
C7AB  29 80     AND #$80                        A:10 X:FF Y:00 P:24 SP:FF CYC:167 SL:255
C7AD  F0 F9     BEQ $C7A8                       A:00 X:FF Y:00 P:26 SP:FF CYC:173 SL:255
C7A8  AD 02 20  LDA $2002 = FF                  A:00 X:FF Y:00 P:26 SP:FF CYC:182 SL:255
C7AB  29 80     AND #$80                        A:10 X:FF Y:00 P:24 SP:FF CYC:194 SL:255
C7AD  F0 F9     BEQ $C7A8                       A:00 X:FF Y:00 P:26 SP:FF CYC:200 SL:255
C7A8  AD 02 20  LDA $2002 = FF                  A:00 X:FF Y:00 P:26 SP:FF CYC:209 SL:255
C7AB  29 80     AND #$80                        A:10 X:FF Y:00 P:24 SP:FF CYC:221 SL:255
C7AD  F0 F9     BEQ $C7A8                       A:00 X:FF Y:00 P:26 SP:FF CYC:227 SL:255
C7A8  AD 02 20  LDA $2002 = FF                  A:00 X:FF Y:00 P:26 SP:FF CYC:236 SL:255
C7AB  29 80     AND #$80                        A:10 X:FF Y:00 P:24 SP:FF CYC:248 SL:255
C7AD  F0 F9     BEQ $C7A8                       A:00 X:FF Y:00 P:26 SP:FF CYC:254 SL:255
C7A8  AD 02 20  LDA $2002 = FF                  A:00 X:FF Y:00 P:26 SP:FF CYC:263 SL:255
C7AB  29 80     AND #$80                        A:10 X:FF Y:00 P:24 SP:FF CYC:275 SL:255
C7AD  F0 F9     BEQ $C7A8                       A:00 X:FF Y:00 P:26 SP:FF CYC:281 SL:255
C7A8  AD 02 20  LDA $2002 = FF                  A:00 X:FF Y:00 P:26 SP:FF CYC:290 SL:255
C7AB  29 80     AND #$80                        A:10 X:FF Y:00 P:24 SP:FF CYC:302 SL:255
C7AD  F0 F9     BEQ $C7A8                       A:00 X:FF Y:00 P:26 SP:FF CYC:308 SL:255
C7A8  AD 02 20  LDA $2002 = FF                  A:00 X:FF Y:00 P:26 SP:FF CYC:317 SL:255
C7AB  29 80     AND #$80                        A:10 X:FF Y:00 P:24 SP:FF CYC:329 SL:255
C7AD  F0 F9     BEQ $C7A8                       A:00 X:FF Y:00 P:26 SP:FF CYC:335 SL:255
C7A8  AD 02 20  LDA $2002 = FF                  A:00 X:FF Y:00 P:26 SP:FF CYC:  3 SL:256
C7AB  29 80     AND #$80                        A:10 X:FF Y:00 P:24 SP:FF CYC: 15 SL:256
C7AD  F0 F9     BEQ $C7A8                       A:00 X:FF Y:00 P:26 SP:FF CYC: 21 SL:256
C7A8  AD 02 20  LDA $2002 = FF                  A:00 X:FF Y:00 P:26 SP:FF CYC: 30 SL:256
C7AB  29 80     AND #$80                        A:10 X:FF Y:00 P:24 SP:FF CYC: 42 SL:256
C7AD  F0 F9     BEQ $C7A8                       A:00 X:FF Y:00 P:26 SP:FF CYC: 48 SL:256
C7A8  AD 02 20  LDA $2002 = FF                  A:00 X:FF Y:00 P:26 SP:FF CYC: 57 SL:256
C7AB  29 80     AND #$80                        A:10 X:FF Y:00 P:24 SP:FF CYC: 69 SL:256
C7AD  F0 F9     BEQ $C7A8                       A:00 X:FF Y:00 P:26 SP:FF CYC: 75 SL:256
C7A8  AD 02 20  LDA $2002 = FF                  A:00 X:FF Y:00 P:26 SP:FF CYC: 84 SL:256
C7AB  29 80     AND #$80                        A:10 X:FF Y:00 P:24 SP:FF CYC: 96 SL:256
C7AD  F0 F9     BEQ $C7A8                       A:00 X:FF Y:00 P:26 SP:FF CYC:102 SL:256
C7A8  AD 02 20  LDA $2002 = FF                  A:00 X:FF Y:00 P:26 SP:FF CYC:111 SL:256
C7AB  29 80     AND #$80                        A:10 X:FF Y:00 P:24 SP:FF CYC:123 SL:256
C7AD  F0 F9     BEQ $C7A8                       A:00 X:FF Y:00 P:26 SP:FF CYC:129 SL:256
C7A8  AD 02 20  LDA $2002 = FF                  A:00 X:FF Y:00 P:26 SP:FF CYC:138 SL:256
C7AB  29 80     AND #$80                        A:10 X:FF Y:00 P:24 SP:FF CYC:150 SL:256
C7AD  F0 F9     BEQ $C7A8                       A:00 X:FF Y:00 P:26 SP:FF CYC:156 SL:256
C7A8  AD 02 20  LDA $2002 = FF                  A:00 X:FF Y:00 P:26 SP:FF CYC:165 SL:256
C7AB  29 80     AND #$80                        A:10 X:FF Y:00 P:24 SP:FF CYC:177 SL:256
C7AD  F0 F9     BEQ $C7A8                       A:00 X:FF Y:00 P:26 SP:FF CYC:183 SL:256
C7A8  AD 02 20  LDA $2002 = FF                  A:00 X:FF Y:00 P:26 SP:FF CYC:192 SL:256
C7AB  29 80     AND #$80                        A:10 X:FF Y:00 P:24 SP:FF CYC:204 SL:256
C7AD  F0 F9     BEQ $C7A8                       A:00 X:FF Y:00 P:26 SP:FF CYC:210 SL:256
C7A8  AD 02 20  LDA $2002 = FF                  A:00 X:FF Y:00 P:26 SP:FF CYC:219 SL:256
C7AB  29 80     AND #$80                        A:10 X:FF Y:00 P:24 SP:FF CYC:231 SL:256
C7AD  F0 F9     BEQ $C7A8                       A:00 X:FF Y:00 P:26 SP:FF CYC:237 SL:256
C7A8  AD 02 20  LDA $2002 = FF                  A:00 X:FF Y:00 P:26 SP:FF CYC:246 SL:256
C7AB  29 80     AND #$80                        A:10 X:FF Y:00 P:24 SP:FF CYC:258 SL:256
C7AD  F0 F9     BEQ $C7A8                       A:00 X:FF Y:00 P:26 SP:FF CYC:264 SL:256
C7A8  AD 02 20  LDA $2002 = FF                  A:00 X:FF Y:00 P:26 SP:FF CYC:273 SL:256
C7AB  29 80     AND #$80                        A:10 X:FF Y:00 P:24 SP:FF CYC:285 SL:256
C7AD  F0 F9     BEQ $C7A8                       A:00 X:FF Y:00 P:26 SP:FF CYC:291 SL:256
C7A8  AD 02 20  LDA $2002 = FF                  A:00 X:FF Y:00 P:26 SP:FF CYC:300 SL:256
C7AB  29 80     AND #$80                        A:10 X:FF Y:00 P:24 SP:FF CYC:312 SL:256
C7AD  F0 F9     BEQ $C7A8                       A:00 X:FF Y:00 P:26 SP:FF CYC:318 SL:256
C7A8  AD 02 20  LDA $2002 = FF                  A:00 X:FF Y:00 P:26 SP:FF CYC:327 SL:256
C7AB  29 80     AND #$80                        A:10 X:FF Y:00 P:24 SP:FF CYC:339 SL:256
C7AD  F0 F9     BEQ $C7A8                       A:00 X:FF Y:00 P:26 SP:FF CYC:  4 SL:257
C7A8  AD 02 20  LDA $2002 = FF                  A:00 X:FF Y:00 P:26 SP:FF CYC: 13 SL:257
C7AB  29 80     AND #$80                        A:10 X:FF Y:00 P:24 SP:FF CYC: 25 SL:257
C7AD  F0 F9     BEQ $C7A8                       A:00 X:FF Y:00 P:26 SP:FF CYC: 31 SL:257
C7A8  AD 02 20  LDA $2002 = FF                  A:00 X:FF Y:00 P:26 SP:FF CYC: 40 SL:257
C7AB  29 80     AND #$80                        A:10 X:FF Y:00 P:24 SP:FF CYC: 52 SL:257
C7AD  F0 F9     BEQ $C7A8                       A:00 X:FF Y:00 P:26 SP:FF CYC: 58 SL:257
C7A8  AD 02 20  LDA $2002 = FF                  A:00 X:FF Y:00 P:26 SP:FF CYC: 67 SL:257
C7AB  29 80     AND #$80                        A:10 X:FF Y:00 P:24 SP:FF CYC: 79 SL:257
C7AD  F0 F9     BEQ $C7A8                       A:00 X:FF Y:00 P:26 SP:FF CYC: 85 SL:257
C7A8  AD 02 20  LDA $2002 = FF                  A:00 X:FF Y:00 P:26 SP:FF CYC: 94 SL:257
C7AB  29 80     AND #$80                        A:10 X:FF Y:00 P:24 SP:FF CYC:106 SL:257
C7AD  F0 F9     BEQ $C7A8                       A:00 X:FF Y:00 P:26 SP:FF CYC:112 SL:257
C7A8  AD 02 20  LDA $2002 = FF                  A:00 X:FF Y:00 P:26 SP:FF CYC:121 SL:257
C7AB  29 80     AND #$80                        A:10 X:FF Y:00 P:24 SP:FF CYC:133 SL:257
C7AD  F0 F9     BEQ $C7A8                       A:00 X:FF Y:00 P:26 SP:FF CYC:139 SL:257
C7A8  AD 02 20  LDA $2002 = FF                  A:00 X:FF Y:00 P:26 SP:FF CYC:148 SL:257
C7AB  29 80     AND #$80                        A:10 X:FF Y:00 P:24 SP:FF CYC:160 SL:257
C7AD  F0 F9     BEQ $C7A8                       A:00 X:FF Y:00 P:26 SP:FF CYC:166 SL:257
C7A8  AD 02 20  LDA $2002 = FF                  A:00 X:FF Y:00 P:26 SP:FF CYC:175 SL:257
C7AB  29 80     AND #$80                        A:10 X:FF Y:00 P:24 SP:FF CYC:187 SL:257
C7AD  F0 F9     BEQ $C7A8                       A:00 X:FF Y:00 P:26 SP:FF CYC:193 SL:257
C7A8  AD 02 20  LDA $2002 = FF                  A:00 X:FF Y:00 P:26 SP:FF CYC:202 SL:257
C7AB  29 80     AND #$80                        A:10 X:FF Y:00 P:24 SP:FF CYC:214 SL:257
C7AD  F0 F9     BEQ $C7A8                       A:00 X:FF Y:00 P:26 SP:FF CYC:220 SL:257
C7A8  AD 02 20  LDA $2002 = FF                  A:00 X:FF Y:00 P:26 SP:FF CYC:229 SL:257
C7AB  29 80     AND #$80                        A:10 X:FF Y:00 P:24 SP:FF CYC:241 SL:257
C7AD  F0 F9     BEQ $C7A8                       A:00 X:FF Y:00 P:26 SP:FF CYC:247 SL:257
C7A8  AD 02 20  LDA $2002 = FF                  A:00 X:FF Y:00 P:26 SP:FF CYC:256 SL:257
C7AB  29 80     AND #$80                        A:10 X:FF Y:00 P:24 SP:FF CYC:268 SL:257
C7AD  F0 F9     BEQ $C7A8                       A:00 X:FF Y:00 P:26 SP:FF CYC:274 SL:257
C7A8  AD 02 20  LDA $2002 = FF                  A:00 X:FF Y:00 P:26 SP:FF CYC:283 SL:257
C7AB  29 80     AND #$80                        A:10 X:FF Y:00 P:24 SP:FF CYC:295 SL:257
C7AD  F0 F9     BEQ $C7A8                       A:00 X:FF Y:00 P:26 SP:FF CYC:301 SL:257
C7A8  AD 02 20  LDA $2002 = FF                  A:00 X:FF Y:00 P:26 SP:FF CYC:310 SL:257
C7AB  29 80     AND #$80                        A:10 X:FF Y:00 P:24 SP:FF CYC:322 SL:257
C7AD  F0 F9     BEQ $C7A8                       A:00 X:FF Y:00 P:26 SP:FF CYC:328 SL:257
C7A8  AD 02 20  LDA $2002 = FF                  A:00 X:FF Y:00 P:26 SP:FF CYC:337 SL:257
C7AB  29 80     AND #$80                        A:10 X:FF Y:00 P:24 SP:FF CYC:  8 SL:258
C7AD  F0 F9     BEQ $C7A8                       A:00 X:FF Y:00 P:26 SP:FF CYC: 14 SL:258
C7A8  AD 02 20  LDA $2002 = FF                  A:00 X:FF Y:00 P:26 SP:FF CYC: 23 SL:258
C7AB  29 80     AND #$80                        A:10 X:FF Y:00 P:24 SP:FF CYC: 35 SL:258
C7AD  F0 F9     BEQ $C7A8                       A:00 X:FF Y:00 P:26 SP:FF CYC: 41 SL:258
C7A8  AD 02 20  LDA $2002 = FF                  A:00 X:FF Y:00 P:26 SP:FF CYC: 50 SL:258
C7AB  29 80     AND #$80                        A:10 X:FF Y:00 P:24 SP:FF CYC: 62 SL:258
C7AD  F0 F9     BEQ $C7A8                       A:00 X:FF Y:00 P:26 SP:FF CYC: 68 SL:258
C7A8  AD 02 20  LDA $2002 = FF                  A:00 X:FF Y:00 P:26 SP:FF CYC: 77 SL:258
C7AB  29 80     AND #$80                        A:10 X:FF Y:00 P:24 SP:FF CYC: 89 SL:258
C7AD  F0 F9     BEQ $C7A8                       A:00 X:FF Y:00 P:26 SP:FF CYC: 95 SL:258
C7A8  AD 02 20  LDA $2002 = FF                  A:00 X:FF Y:00 P:26 SP:FF CYC:104 SL:258
C7AB  29 80     AND #$80                        A:10 X:FF Y:00 P:24 SP:FF CYC:116 SL:258
C7AD  F0 F9     BEQ $C7A8                       A:00 X:FF Y:00 P:26 SP:FF CYC:122 SL:258
C7A8  AD 02 20  LDA $2002 = FF                  A:00 X:FF Y:00 P:26 SP:FF CYC:131 SL:258
C7AB  29 80     AND #$80                        A:10 X:FF Y:00 P:24 SP:FF CYC:143 SL:258
C7AD  F0 F9     BEQ $C7A8                       A:00 X:FF Y:00 P:26 SP:FF CYC:149 SL:258
C7A8  AD 02 20  LDA $2002 = FF                  A:00 X:FF Y:00 P:26 SP:FF CYC:158 SL:258
C7AB  29 80     AND #$80                        A:10 X:FF Y:00 P:24 SP:FF CYC:170 SL:258
C7AD  F0 F9     BEQ $C7A8                       A:00 X:FF Y:00 P:26 SP:FF CYC:176 SL:258
C7A8  AD 02 20  LDA $2002 = FF                  A:00 X:FF Y:00 P:26 SP:FF CYC:185 SL:258
C7AB  29 80     AND #$80                        A:10 X:FF Y:00 P:24 SP:FF CYC:197 SL:258
C7AD  F0 F9     BEQ $C7A8                       A:00 X:FF Y:00 P:26 SP:FF CYC:203 SL:258
C7A8  AD 02 20  LDA $2002 = FF                  A:00 X:FF Y:00 P:26 SP:FF CYC:212 SL:258
C7AB  29 80     AND #$80                        A:10 X:FF Y:00 P:24 SP:FF CYC:224 SL:258
C7AD  F0 F9     BEQ $C7A8                       A:00 X:FF Y:00 P:26 SP:FF CYC:230 SL:258
C7A8  AD 02 20  LDA $2002 = FF                  A:00 X:FF Y:00 P:26 SP:FF CYC:239 SL:258
C7AB  29 80     AND #$80                        A:10 X:FF Y:00 P:24 SP:FF CYC:251 SL:258
C7AD  F0 F9     BEQ $C7A8                       A:00 X:FF Y:00 P:26 SP:FF CYC:257 SL:258
C7A8  AD 02 20  LDA $2002 = FF                  A:00 X:FF Y:00 P:26 SP:FF CYC:266 SL:258
C7AB  29 80     AND #$80                        A:10 X:FF Y:00 P:24 SP:FF CYC:278 SL:258
C7AD  F0 F9     BEQ $C7A8                       A:00 X:FF Y:00 P:26 SP:FF CYC:284 SL:258
C7A8  AD 02 20  LDA $2002 = FF                  A:00 X:FF Y:00 P:26 SP:FF CYC:293 SL:258
C7AB  29 80     AND #$80                        A:10 X:FF Y:00 P:24 SP:FF CYC:305 SL:258
C7AD  F0 F9     BEQ $C7A8                       A:00 X:FF Y:00 P:26 SP:FF CYC:311 SL:258
C7A8  AD 02 20  LDA $2002 = FF                  A:00 X:FF Y:00 P:26 SP:FF CYC:320 SL:258
C7AB  29 80     AND #$80                        A:10 X:FF Y:00 P:24 SP:FF CYC:332 SL:258
C7AD  F0 F9     BEQ $C7A8                       A:00 X:FF Y:00 P:26 SP:FF CYC:338 SL:258
C7A8  AD 02 20  LDA $2002 = FF                  A:00 X:FF Y:00 P:26 SP:FF CYC:  6 SL:259
C7AB  29 80     AND #$80                        A:10 X:FF Y:00 P:24 SP:FF CYC: 18 SL:259
C7AD  F0 F9     BEQ $C7A8                       A:00 X:FF Y:00 P:26 SP:FF CYC: 24 SL:259
C7A8  AD 02 20  LDA $2002 = FF                  A:00 X:FF Y:00 P:26 SP:FF CYC: 33 SL:259
C7AB  29 80     AND #$80                        A:10 X:FF Y:00 P:24 SP:FF CYC: 45 SL:259
C7AD  F0 F9     BEQ $C7A8                       A:00 X:FF Y:00 P:26 SP:FF CYC: 51 SL:259
C7A8  AD 02 20  LDA $2002 = FF                  A:00 X:FF Y:00 P:26 SP:FF CYC: 60 SL:259
C7AB  29 80     AND #$80                        A:10 X:FF Y:00 P:24 SP:FF CYC: 72 SL:259
C7AD  F0 F9     BEQ $C7A8                       A:00 X:FF Y:00 P:26 SP:FF CYC: 78 SL:259
C7A8  AD 02 20  LDA $2002 = FF                  A:00 X:FF Y:00 P:26 SP:FF CYC: 87 SL:259
C7AB  29 80     AND #$80                        A:10 X:FF Y:00 P:24 SP:FF CYC: 99 SL:259
C7AD  F0 F9     BEQ $C7A8                       A:00 X:FF Y:00 P:26 SP:FF CYC:105 SL:259
C7A8  AD 02 20  LDA $2002 = FF                  A:00 X:FF Y:00 P:26 SP:FF CYC:114 SL:259
C7AB  29 80     AND #$80                        A:10 X:FF Y:00 P:24 SP:FF CYC:126 SL:259
C7AD  F0 F9     BEQ $C7A8                       A:00 X:FF Y:00 P:26 SP:FF CYC:132 SL:259
C7A8  AD 02 20  LDA $2002 = FF                  A:00 X:FF Y:00 P:26 SP:FF CYC:141 SL:259
C7AB  29 80     AND #$80                        A:10 X:FF Y:00 P:24 SP:FF CYC:153 SL:259
C7AD  F0 F9     BEQ $C7A8                       A:00 X:FF Y:00 P:26 SP:FF CYC:159 SL:259
C7A8  AD 02 20  LDA $2002 = FF                  A:00 X:FF Y:00 P:26 SP:FF CYC:168 SL:259
C7AB  29 80     AND #$80                        A:10 X:FF Y:00 P:24 SP:FF CYC:180 SL:259
C7AD  F0 F9     BEQ $C7A8                       A:00 X:FF Y:00 P:26 SP:FF CYC:186 SL:259
C7A8  AD 02 20  LDA $2002 = FF                  A:00 X:FF Y:00 P:26 SP:FF CYC:195 SL:259
C7AB  29 80     AND #$80                        A:10 X:FF Y:00 P:24 SP:FF CYC:207 SL:259
C7AD  F0 F9     BEQ $C7A8                       A:00 X:FF Y:00 P:26 SP:FF CYC:213 SL:259
C7A8  AD 02 20  LDA $2002 = FF                  A:00 X:FF Y:00 P:26 SP:FF CYC:222 SL:259
C7AB  29 80     AND #$80                        A:10 X:FF Y:00 P:24 SP:FF CYC:234 SL:259
C7AD  F0 F9     BEQ $C7A8                       A:00 X:FF Y:00 P:26 SP:FF CYC:240 SL:259
C7A8  AD 02 20  LDA $2002 = FF                  A:00 X:FF Y:00 P:26 SP:FF CYC:249 SL:259
C7AB  29 80     AND #$80                        A:10 X:FF Y:00 P:24 SP:FF CYC:261 SL:259
C7AD  F0 F9     BEQ $C7A8                       A:00 X:FF Y:00 P:26 SP:FF CYC:267 SL:259
C7A8  AD 02 20  LDA $2002 = FF                  A:00 X:FF Y:00 P:26 SP:FF CYC:276 SL:259
C7AB  29 80     AND #$80                        A:10 X:FF Y:00 P:24 SP:FF CYC:288 SL:259
C7AD  F0 F9     BEQ $C7A8                       A:00 X:FF Y:00 P:26 SP:FF CYC:294 SL:259
C7A8  AD 02 20  LDA $2002 = FF                  A:00 X:FF Y:00 P:26 SP:FF CYC:303 SL:259
C7AB  29 80     AND #$80                        A:10 X:FF Y:00 P:24 SP:FF CYC:315 SL:259
C7AD  F0 F9     BEQ $C7A8                       A:00 X:FF Y:00 P:26 SP:FF CYC:321 SL:259
C7A8  AD 02 20  LDA $2002 = FF                  A:00 X:FF Y:00 P:26 SP:FF CYC:330 SL:259
C7AB  29 80     AND #$80                        A:10 X:FF Y:00 P:24 SP:FF CYC:  1 SL:260
C7AD  F0 F9     BEQ $C7A8                       A:00 X:FF Y:00 P:26 SP:FF CYC:  7 SL:260
C7A8  AD 02 20  LDA $2002 = FF                  A:00 X:FF Y:00 P:26 SP:FF CYC: 16 SL:260
C7AB  29 80     AND #$80                        A:10 X:FF Y:00 P:24 SP:FF CYC: 28 SL:260
C7AD  F0 F9     BEQ $C7A8                       A:00 X:FF Y:00 P:26 SP:FF CYC: 34 SL:260
C7A8  AD 02 20  LDA $2002 = FF                  A:00 X:FF Y:00 P:26 SP:FF CYC: 43 SL:260
C7AB  29 80     AND #$80                        A:10 X:FF Y:00 P:24 SP:FF CYC: 55 SL:260
C7AD  F0 F9     BEQ $C7A8                       A:00 X:FF Y:00 P:26 SP:FF CYC: 61 SL:260
C7A8  AD 02 20  LDA $2002 = FF                  A:00 X:FF Y:00 P:26 SP:FF CYC: 70 SL:260
C7AB  29 80     AND #$80                        A:10 X:FF Y:00 P:24 SP:FF CYC: 82 SL:260
C7AD  F0 F9     BEQ $C7A8                       A:00 X:FF Y:00 P:26 SP:FF CYC: 88 SL:260
C7A8  AD 02 20  LDA $2002 = FF                  A:00 X:FF Y:00 P:26 SP:FF CYC: 97 SL:260
C7AB  29 80     AND #$80                        A:10 X:FF Y:00 P:24 SP:FF CYC:109 SL:260
C7AD  F0 F9     BEQ $C7A8                       A:00 X:FF Y:00 P:26 SP:FF CYC:115 SL:260
C7A8  AD 02 20  LDA $2002 = FF                  A:00 X:FF Y:00 P:26 SP:FF CYC:124 SL:260
C7AB  29 80     AND #$80                        A:10 X:FF Y:00 P:24 SP:FF CYC:136 SL:260
C7AD  F0 F9     BEQ $C7A8                       A:00 X:FF Y:00 P:26 SP:FF CYC:142 SL:260
C7A8  AD 02 20  LDA $2002 = FF                  A:00 X:FF Y:00 P:26 SP:FF CYC:151 SL:260
C7AB  29 80     AND #$80                        A:10 X:FF Y:00 P:24 SP:FF CYC:163 SL:260
C7AD  F0 F9     BEQ $C7A8                       A:00 X:FF Y:00 P:26 SP:FF CYC:169 SL:260
C7A8  AD 02 20  LDA $2002 = FF                  A:00 X:FF Y:00 P:26 SP:FF CYC:178 SL:260
C7AB  29 80     AND #$80                        A:10 X:FF Y:00 P:24 SP:FF CYC:190 SL:260
C7AD  F0 F9     BEQ $C7A8                       A:00 X:FF Y:00 P:26 SP:FF CYC:196 SL:260
C7A8  AD 02 20  LDA $2002 = FF                  A:00 X:FF Y:00 P:26 SP:FF CYC:205 SL:260
C7AB  29 80     AND #$80                        A:10 X:FF Y:00 P:24 SP:FF CYC:217 SL:260
C7AD  F0 F9     BEQ $C7A8                       A:00 X:FF Y:00 P:26 SP:FF CYC:223 SL:260
C7A8  AD 02 20  LDA $2002 = FF                  A:00 X:FF Y:00 P:26 SP:FF CYC:232 SL:260
C7AB  29 80     AND #$80                        A:10 X:FF Y:00 P:24 SP:FF CYC:244 SL:260
C7AD  F0 F9     BEQ $C7A8                       A:00 X:FF Y:00 P:26 SP:FF CYC:250 SL:260
C7A8  AD 02 20  LDA $2002 = FF                  A:00 X:FF Y:00 P:26 SP:FF CYC:259 SL:260
C7AB  29 80     AND #$80                        A:10 X:FF Y:00 P:24 SP:FF CYC:271 SL:260
C7AD  F0 F9     BEQ $C7A8                       A:00 X:FF Y:00 P:26 SP:FF CYC:277 SL:260
C7A8  AD 02 20  LDA $2002 = FF                  A:00 X:FF Y:00 P:26 SP:FF CYC:286 SL:260
C7AB  29 80     AND #$80                        A:10 X:FF Y:00 P:24 SP:FF CYC:298 SL:260
C7AD  F0 F9     BEQ $C7A8                       A:00 X:FF Y:00 P:26 SP:FF CYC:304 SL:260
C7A8  AD 02 20  LDA $2002 = FF                  A:00 X:FF Y:00 P:26 SP:FF CYC:313 SL:260
C7AB  29 80     AND #$80                        A:10 X:FF Y:00 P:24 SP:FF CYC:325 SL:260
C7AD  F0 F9     BEQ $C7A8                       A:00 X:FF Y:00 P:26 SP:FF CYC:331 SL:260
C7A8  AD 02 20  LDA $2002 = FF                  A:00 X:FF Y:00 P:26 SP:FF CYC:340 SL:260
C7AB  29 80     AND #$80                        A:10 X:FF Y:00 P:24 SP:FF CYC: 11 SL:-1
C7AD  F0 F9     BEQ $C7A8                       A:00 X:FF Y:00 P:26 SP:FF CYC: 17 SL:-1
C7A8  AD 02 20  LDA $2002 = FF                  A:00 X:FF Y:00 P:26 SP:FF CYC: 26 SL:-1
C7AB  29 80     AND #$80                        A:10 X:FF Y:00 P:24 SP:FF CYC: 38 SL:-1
C7AD  F0 F9     BEQ $C7A8                       A:00 X:FF Y:00 P:26 SP:FF CYC: 44 SL:-1
C7A8  AD 02 20  LDA $2002 = FF                  A:00 X:FF Y:00 P:26 SP:FF CYC: 53 SL:-1
C7AB  29 80     AND #$80                        A:10 X:FF Y:00 P:24 SP:FF CYC: 65 SL:-1
C7AD  F0 F9     BEQ $C7A8                       A:00 X:FF Y:00 P:26 SP:FF CYC: 71 SL:-1
C7A8  AD 02 20  LDA $2002 = FF                  A:00 X:FF Y:00 P:26 SP:FF CYC: 80 SL:-1
C7AB  29 80     AND #$80                        A:10 X:FF Y:00 P:24 SP:FF CYC: 92 SL:-1
C7AD  F0 F9     BEQ $C7A8                       A:00 X:FF Y:00 P:26 SP:FF CYC: 98 SL:-1
C7A8  AD 02 20  LDA $2002 = FF                  A:00 X:FF Y:00 P:26 SP:FF CYC:107 SL:-1
C7AB  29 80     AND #$80                        A:10 X:FF Y:00 P:24 SP:FF CYC:119 SL:-1
C7AD  F0 F9     BEQ $C7A8                       A:00 X:FF Y:00 P:26 SP:FF CYC:125 SL:-1
C7A8  AD 02 20  LDA $2002 = FF                  A:00 X:FF Y:00 P:26 SP:FF CYC:134 SL:-1
C7AB  29 80     AND #$80                        A:10 X:FF Y:00 P:24 SP:FF CYC:146 SL:-1
C7AD  F0 F9     BEQ $C7A8                       A:00 X:FF Y:00 P:26 SP:FF CYC:152 SL:-1
C7A8  AD 02 20  LDA $2002 = FF                  A:00 X:FF Y:00 P:26 SP:FF CYC:161 SL:-1
C7AB  29 80     AND #$80                        A:10 X:FF Y:00 P:24 SP:FF CYC:173 SL:-1
C7AD  F0 F9     BEQ $C7A8                       A:00 X:FF Y:00 P:26 SP:FF CYC:179 SL:-1
C7A8  AD 02 20  LDA $2002 = FF                  A:00 X:FF Y:00 P:26 SP:FF CYC:188 SL:-1
C7AB  29 80     AND #$80                        A:10 X:FF Y:00 P:24 SP:FF CYC:200 SL:-1
C7AD  F0 F9     BEQ $C7A8                       A:00 X:FF Y:00 P:26 SP:FF CYC:206 SL:-1
C7A8  AD 02 20  LDA $2002 = FF                  A:00 X:FF Y:00 P:26 SP:FF CYC:215 SL:-1
C7AB  29 80     AND #$80                        A:10 X:FF Y:00 P:24 SP:FF CYC:227 SL:-1
C7AD  F0 F9     BEQ $C7A8                       A:00 X:FF Y:00 P:26 SP:FF CYC:233 SL:-1
C7A8  AD 02 20  LDA $2002 = FF                  A:00 X:FF Y:00 P:26 SP:FF CYC:242 SL:-1
C7AB  29 80     AND #$80                        A:10 X:FF Y:00 P:24 SP:FF CYC:254 SL:-1
C7AD  F0 F9     BEQ $C7A8                       A:00 X:FF Y:00 P:26 SP:FF CYC:260 SL:-1
C7A8  AD 02 20  LDA $2002 = FF                  A:00 X:FF Y:00 P:26 SP:FF CYC:269 SL:-1
C7AB  29 80     AND #$80                        A:10 X:FF Y:00 P:24 SP:FF CYC:281 SL:-1
C7AD  F0 F9     BEQ $C7A8                       A:00 X:FF Y:00 P:26 SP:FF CYC:287 SL:-1
C7A8  AD 02 20  LDA $2002 = FF                  A:00 X:FF Y:00 P:26 SP:FF CYC:296 SL:-1
C7AB  29 80     AND #$80                        A:10 X:FF Y:00 P:24 SP:FF CYC:308 SL:-1
C7AD  F0 F9     BEQ $C7A8                       A:00 X:FF Y:00 P:26 SP:FF CYC:314 SL:-1
C7A8  AD 02 20  LDA $2002 = FF                  A:00 X:FF Y:00 P:26 SP:FF CYC:323 SL:-1
C7AB  29 80     AND #$80                        A:10 X:FF Y:00 P:24 SP:FF CYC:335 SL:-1
C7AD  F0 F9     BEQ $C7A8                       A:00 X:FF Y:00 P:26 SP:FF CYC:  0 SL:0
C7A8  AD 02 20  LDA $2002 = FF                  A:00 X:FF Y:00 P:26 SP:FF CYC:  9 SL:0
C7AB  29 80     AND #$80                        A:10 X:FF Y:00 P:24 SP:FF CYC: 21 SL:0
C7AD  F0 F9     BEQ $C7A8                       A:00 X:FF Y:00 P:26 SP:FF CYC: 27 SL:0
C7A8  AD 02 20  LDA $2002 = FF                  A:00 X:FF Y:00 P:26 SP:FF CYC: 36 SL:0
C7AB  29 80     AND #$80                        A:10 X:FF Y:00 P:24 SP:FF CYC: 48 SL:0
C7AD  F0 F9     BEQ $C7A8                       A:00 X:FF Y:00 P:26 SP:FF CYC: 54 SL:0
C7A8  AD 02 20  LDA $2002 = FF                  A:00 X:FF Y:00 P:26 SP:FF CYC: 63 SL:0
C7AB  29 80     AND #$80                        A:10 X:FF Y:00 P:24 SP:FF CYC: 75 SL:0
C7AD  F0 F9     BEQ $C7A8                       A:00 X:FF Y:00 P:26 SP:FF CYC: 81 SL:0
C7A8  AD 02 20  LDA $2002 = FF                  A:00 X:FF Y:00 P:26 SP:FF CYC: 90 SL:0
C7AB  29 80     AND #$80                        A:10 X:FF Y:00 P:24 SP:FF CYC:102 SL:0
C7AD  F0 F9     BEQ $C7A8                       A:00 X:FF Y:00 P:26 SP:FF CYC:108 SL:0
C7A8  AD 02 20  LDA $2002 = FF                  A:00 X:FF Y:00 P:26 SP:FF CYC:117 SL:0
C7AB  29 80     AND #$80                        A:10 X:FF Y:00 P:24 SP:FF CYC:129 SL:0
C7AD  F0 F9     BEQ $C7A8                       A:00 X:FF Y:00 P:26 SP:FF CYC:135 SL:0
C7A8  AD 02 20  LDA $2002 = FF                  A:00 X:FF Y:00 P:26 SP:FF CYC:144 SL:0
C7AB  29 80     AND #$80                        A:10 X:FF Y:00 P:24 SP:FF CYC:156 SL:0
C7AD  F0 F9     BEQ $C7A8                       A:00 X:FF Y:00 P:26 SP:FF CYC:162 SL:0
C7A8  AD 02 20  LDA $2002 = FF                  A:00 X:FF Y:00 P:26 SP:FF CYC:171 SL:0
C7AB  29 80     AND #$80                        A:10 X:FF Y:00 P:24 SP:FF CYC:183 SL:0
C7AD  F0 F9     BEQ $C7A8                       A:00 X:FF Y:00 P:26 SP:FF CYC:189 SL:0
C7A8  AD 02 20  LDA $2002 = FF                  A:00 X:FF Y:00 P:26 SP:FF CYC:198 SL:0
C7AB  29 80     AND #$80                        A:10 X:FF Y:00 P:24 SP:FF CYC:210 SL:0
C7AD  F0 F9     BEQ $C7A8                       A:00 X:FF Y:00 P:26 SP:FF CYC:216 SL:0
C7A8  AD 02 20  LDA $2002 = FF                  A:00 X:FF Y:00 P:26 SP:FF CYC:225 SL:0
C7AB  29 80     AND #$80                        A:10 X:FF Y:00 P:24 SP:FF CYC:237 SL:0
C7AD  F0 F9     BEQ $C7A8                       A:00 X:FF Y:00 P:26 SP:FF CYC:243 SL:0
C7A8  AD 02 20  LDA $2002 = FF                  A:00 X:FF Y:00 P:26 SP:FF CYC:252 SL:0
C7AB  29 80     AND #$80                        A:10 X:FF Y:00 P:24 SP:FF CYC:264 SL:0
C7AD  F0 F9     BEQ $C7A8                       A:00 X:FF Y:00 P:26 SP:FF CYC:270 SL:0
C7A8  AD 02 20  LDA $2002 = FF                  A:00 X:FF Y:00 P:26 SP:FF CYC:279 SL:0
C7AB  29 80     AND #$80                        A:10 X:FF Y:00 P:24 SP:FF CYC:291 SL:0
C7AD  F0 F9     BEQ $C7A8                       A:00 X:FF Y:00 P:26 SP:FF CYC:297 SL:0
C7A8  AD 02 20  LDA $2002 = FF                  A:00 X:FF Y:00 P:26 SP:FF CYC:306 SL:0
C7AB  29 80     AND #$80                        A:10 X:FF Y:00 P:24 SP:FF CYC:318 SL:0
C7AD  F0 F9     BEQ $C7A8                       A:00 X:FF Y:00 P:26 SP:FF CYC:324 SL:0
C7A8  AD 02 20  LDA $2002 = FF                  A:00 X:FF Y:00 P:26 SP:FF CYC:333 SL:0
C7AB  29 80     AND #$80                        A:10 X:FF Y:00 P:24 SP:FF CYC:  4 SL:1
C7AD  F0 F9     BEQ $C7A8                       A:00 X:FF Y:00 P:26 SP:FF CYC: 10 SL:1
C7A8  AD 02 20  LDA $2002 = FF                  A:00 X:FF Y:00 P:26 SP:FF CYC: 19 SL:1
C7AB  29 80     AND #$80                        A:10 X:FF Y:00 P:24 SP:FF CYC: 31 SL:1
C7AD  F0 F9     BEQ $C7A8                       A:00 X:FF Y:00 P:26 SP:FF CYC: 37 SL:1
C7A8  AD 02 20  LDA $2002 = FF                  A:00 X:FF Y:00 P:26 SP:FF CYC: 46 SL:1
C7AB  29 80     AND #$80                        A:10 X:FF Y:00 P:24 SP:FF CYC: 58 SL:1
C7AD  F0 F9     BEQ $C7A8                       A:00 X:FF Y:00 P:26 SP:FF CYC: 64 SL:1
C7A8  AD 02 20  LDA $2002 = FF                  A:00 X:FF Y:00 P:26 SP:FF CYC: 73 SL:1
C7AB  29 80     AND #$80                        A:10 X:FF Y:00 P:24 SP:FF CYC: 85 SL:1
C7AD  F0 F9     BEQ $C7A8                       A:00 X:FF Y:00 P:26 SP:FF CYC: 91 SL:1
C7A8  AD 02 20  LDA $2002 = FF                  A:00 X:FF Y:00 P:26 SP:FF CYC:100 SL:1
C7AB  29 80     AND #$80                        A:10 X:FF Y:00 P:24 SP:FF CYC:112 SL:1
C7AD  F0 F9     BEQ $C7A8                       A:00 X:FF Y:00 P:26 SP:FF CYC:118 SL:1
C7A8  AD 02 20  LDA $2002 = FF                  A:00 X:FF Y:00 P:26 SP:FF CYC:127 SL:1
C7AB  29 80     AND #$80                        A:10 X:FF Y:00 P:24 SP:FF CYC:139 SL:1
C7AD  F0 F9     BEQ $C7A8                       A:00 X:FF Y:00 P:26 SP:FF CYC:145 SL:1
C7A8  AD 02 20  LDA $2002 = FF                  A:00 X:FF Y:00 P:26 SP:FF CYC:154 SL:1
C7AB  29 80     AND #$80                        A:10 X:FF Y:00 P:24 SP:FF CYC:166 SL:1
C7AD  F0 F9     BEQ $C7A8                       A:00 X:FF Y:00 P:26 SP:FF CYC:172 SL:1
C7A8  AD 02 20  LDA $2002 = FF                  A:00 X:FF Y:00 P:26 SP:FF CYC:181 SL:1
C7AB  29 80     AND #$80                        A:10 X:FF Y:00 P:24 SP:FF CYC:193 SL:1
C7AD  F0 F9     BEQ $C7A8                       A:00 X:FF Y:00 P:26 SP:FF CYC:199 SL:1
C7A8  AD 02 20  LDA $2002 = FF                  A:00 X:FF Y:00 P:26 SP:FF CYC:208 SL:1
C7AB  29 80     AND #$80                        A:10 X:FF Y:00 P:24 SP:FF CYC:220 SL:1
C7AD  F0 F9     BEQ $C7A8                       A:00 X:FF Y:00 P:26 SP:FF CYC:226 SL:1
C7A8  AD 02 20  LDA $2002 = FF                  A:00 X:FF Y:00 P:26 SP:FF CYC:235 SL:1
C7AB  29 80     AND #$80                        A:10 X:FF Y:00 P:24 SP:FF CYC:247 SL:1
C7AD  F0 F9     BEQ $C7A8                       A:00 X:FF Y:00 P:26 SP:FF CYC:253 SL:1
C7A8  AD 02 20  LDA $2002 = FF                  A:00 X:FF Y:00 P:26 SP:FF CYC:262 SL:1
C7AB  29 80     AND #$80                        A:10 X:FF Y:00 P:24 SP:FF CYC:274 SL:1
C7AD  F0 F9     BEQ $C7A8                       A:00 X:FF Y:00 P:26 SP:FF CYC:280 SL:1
C7A8  AD 02 20  LDA $2002 = FF                  A:00 X:FF Y:00 P:26 SP:FF CYC:289 SL:1
C7AB  29 80     AND #$80                        A:10 X:FF Y:00 P:24 SP:FF CYC:301 SL:1
C7AD  F0 F9     BEQ $C7A8                       A:00 X:FF Y:00 P:26 SP:FF CYC:307 SL:1
C7A8  AD 02 20  LDA $2002 = FF                  A:00 X:FF Y:00 P:26 SP:FF CYC:316 SL:1
C7AB  29 80     AND #$80                        A:10 X:FF Y:00 P:24 SP:FF CYC:328 SL:1
C7AD  F0 F9     BEQ $C7A8                       A:00 X:FF Y:00 P:26 SP:FF CYC:334 SL:1
C7A8  AD 02 20  LDA $2002 = FF                  A:00 X:FF Y:00 P:26 SP:FF CYC:  2 SL:2
C7AB  29 80     AND #$80                        A:10 X:FF Y:00 P:24 SP:FF CYC: 14 SL:2
C7AD  F0 F9     BEQ $C7A8                       A:00 X:FF Y:00 P:26 SP:FF CYC: 20 SL:2
C7A8  AD 02 20  LDA $2002 = FF                  A:00 X:FF Y:00 P:26 SP:FF CYC: 29 SL:2
C7AB  29 80     AND #$80                        A:10 X:FF Y:00 P:24 SP:FF CYC: 41 SL:2
C7AD  F0 F9     BEQ $C7A8                       A:00 X:FF Y:00 P:26 SP:FF CYC: 47 SL:2
C7A8  AD 02 20  LDA $2002 = FF                  A:00 X:FF Y:00 P:26 SP:FF CYC: 56 SL:2
C7AB  29 80     AND #$80                        A:10 X:FF Y:00 P:24 SP:FF CYC: 68 SL:2
C7AD  F0 F9     BEQ $C7A8                       A:00 X:FF Y:00 P:26 SP:FF CYC: 74 SL:2
C7A8  AD 02 20  LDA $2002 = FF                  A:00 X:FF Y:00 P:26 SP:FF CYC: 83 SL:2
C7AB  29 80     AND #$80                        A:10 X:FF Y:00 P:24 SP:FF CYC: 95 SL:2
C7AD  F0 F9     BEQ $C7A8                       A:00 X:FF Y:00 P:26 SP:FF CYC:101 SL:2
C7A8  AD 02 20  LDA $2002 = FF                  A:00 X:FF Y:00 P:26 SP:FF CYC:110 SL:2
C7AB  29 80     AND #$80                        A:10 X:FF Y:00 P:24 SP:FF CYC:122 SL:2
C7AD  F0 F9     BEQ $C7A8                       A:00 X:FF Y:00 P:26 SP:FF CYC:128 SL:2
C7A8  AD 02 20  LDA $2002 = FF                  A:00 X:FF Y:00 P:26 SP:FF CYC:137 SL:2
C7AB  29 80     AND #$80                        A:10 X:FF Y:00 P:24 SP:FF CYC:149 SL:2
C7AD  F0 F9     BEQ $C7A8                       A:00 X:FF Y:00 P:26 SP:FF CYC:155 SL:2
C7A8  AD 02 20  LDA $2002 = FF                  A:00 X:FF Y:00 P:26 SP:FF CYC:164 SL:2
C7AB  29 80     AND #$80                        A:10 X:FF Y:00 P:24 SP:FF CYC:176 SL:2
C7AD  F0 F9     BEQ $C7A8                       A:00 X:FF Y:00 P:26 SP:FF CYC:182 SL:2
C7A8  AD 02 20  LDA $2002 = FF                  A:00 X:FF Y:00 P:26 SP:FF CYC:191 SL:2
C7AB  29 80     AND #$80                        A:10 X:FF Y:00 P:24 SP:FF CYC:203 SL:2
C7AD  F0 F9     BEQ $C7A8                       A:00 X:FF Y:00 P:26 SP:FF CYC:209 SL:2
C7A8  AD 02 20  LDA $2002 = FF                  A:00 X:FF Y:00 P:26 SP:FF CYC:218 SL:2
C7AB  29 80     AND #$80                        A:10 X:FF Y:00 P:24 SP:FF CYC:230 SL:2
C7AD  F0 F9     BEQ $C7A8                       A:00 X:FF Y:00 P:26 SP:FF CYC:236 SL:2
C7A8  AD 02 20  LDA $2002 = FF                  A:00 X:FF Y:00 P:26 SP:FF CYC:245 SL:2
C7AB  29 80     AND #$80                        A:10 X:FF Y:00 P:24 SP:FF CYC:257 SL:2
C7AD  F0 F9     BEQ $C7A8                       A:00 X:FF Y:00 P:26 SP:FF CYC:263 SL:2
C7A8  AD 02 20  LDA $2002 = FF                  A:00 X:FF Y:00 P:26 SP:FF CYC:272 SL:2
C7AB  29 80     AND #$80                        A:10 X:FF Y:00 P:24 SP:FF CYC:284 SL:2
C7AD  F0 F9     BEQ $C7A8                       A:00 X:FF Y:00 P:26 SP:FF CYC:290 SL:2
C7A8  AD 02 20  LDA $2002 = FF                  A:00 X:FF Y:00 P:26 SP:FF CYC:299 SL:2
C7AB  29 80     AND #$80                        A:10 X:FF Y:00 P:24 SP:FF CYC:311 SL:2
C7AD  F0 F9     BEQ $C7A8                       A:00 X:FF Y:00 P:26 SP:FF CYC:317 SL:2
C7A8  AD 02 20  LDA $2002 = FF                  A:00 X:FF Y:00 P:26 SP:FF CYC:326 SL:2
C7AB  29 80     AND #$80                        A:10 X:FF Y:00 P:24 SP:FF CYC:338 SL:2
C7AD  F0 F9     BEQ $C7A8                       A:00 X:FF Y:00 P:26 SP:FF CYC:  3 SL:3
C7A8  AD 02 20  LDA $2002 = FF                  A:00 X:FF Y:00 P:26 SP:FF CYC: 12 SL:3
C7AB  29 80     AND #$80                        A:10 X:FF Y:00 P:24 SP:FF CYC: 24 SL:3
C7AD  F0 F9     BEQ $C7A8                       A:00 X:FF Y:00 P:26 SP:FF CYC: 30 SL:3
C7A8  AD 02 20  LDA $2002 = FF                  A:00 X:FF Y:00 P:26 SP:FF CYC: 39 SL:3
C7AB  29 80     AND #$80                        A:10 X:FF Y:00 P:24 SP:FF CYC: 51 SL:3
C7AD  F0 F9     BEQ $C7A8                       A:00 X:FF Y:00 P:26 SP:FF CYC: 57 SL:3
C7A8  AD 02 20  LDA $2002 = FF                  A:00 X:FF Y:00 P:26 SP:FF CYC: 66 SL:3
C7AB  29 80     AND #$80                        A:10 X:FF Y:00 P:24 SP:FF CYC: 78 SL:3
C7AD  F0 F9     BEQ $C7A8                       A:00 X:FF Y:00 P:26 SP:FF CYC: 84 SL:3
C7A8  AD 02 20  LDA $2002 = FF                  A:00 X:FF Y:00 P:26 SP:FF CYC: 93 SL:3
C7AB  29 80     AND #$80                        A:10 X:FF Y:00 P:24 SP:FF CYC:105 SL:3
C7AD  F0 F9     BEQ $C7A8                       A:00 X:FF Y:00 P:26 SP:FF CYC:111 SL:3
C7A8  AD 02 20  LDA $2002 = FF                  A:00 X:FF Y:00 P:26 SP:FF CYC:120 SL:3
C7AB  29 80     AND #$80                        A:10 X:FF Y:00 P:24 SP:FF CYC:132 SL:3
C7AD  F0 F9     BEQ $C7A8                       A:00 X:FF Y:00 P:26 SP:FF CYC:138 SL:3
C7A8  AD 02 20  LDA $2002 = FF                  A:00 X:FF Y:00 P:26 SP:FF CYC:147 SL:3
C7AB  29 80     AND #$80                        A:10 X:FF Y:00 P:24 SP:FF CYC:159 SL:3
C7AD  F0 F9     BEQ $C7A8                       A:00 X:FF Y:00 P:26 SP:FF CYC:165 SL:3
C7A8  AD 02 20  LDA $2002 = FF                  A:00 X:FF Y:00 P:26 SP:FF CYC:174 SL:3
C7AB  29 80     AND #$80                        A:10 X:FF Y:00 P:24 SP:FF CYC:186 SL:3
C7AD  F0 F9     BEQ $C7A8                       A:00 X:FF Y:00 P:26 SP:FF CYC:192 SL:3
C7A8  AD 02 20  LDA $2002 = FF                  A:00 X:FF Y:00 P:26 SP:FF CYC:201 SL:3
C7AB  29 80     AND #$80                        A:10 X:FF Y:00 P:24 SP:FF CYC:213 SL:3
C7AD  F0 F9     BEQ $C7A8                       A:00 X:FF Y:00 P:26 SP:FF CYC:219 SL:3
C7A8  AD 02 20  LDA $2002 = FF                  A:00 X:FF Y:00 P:26 SP:FF CYC:228 SL:3
C7AB  29 80     AND #$80                        A:10 X:FF Y:00 P:24 SP:FF CYC:240 SL:3
C7AD  F0 F9     BEQ $C7A8                       A:00 X:FF Y:00 P:26 SP:FF CYC:246 SL:3
C7A8  AD 02 20  LDA $2002 = FF                  A:00 X:FF Y:00 P:26 SP:FF CYC:255 SL:3
C7AB  29 80     AND #$80                        A:10 X:FF Y:00 P:24 SP:FF CYC:267 SL:3
C7AD  F0 F9     BEQ $C7A8                       A:00 X:FF Y:00 P:26 SP:FF CYC:273 SL:3
C7A8  AD 02 20  LDA $2002 = FF                  A:00 X:FF Y:00 P:26 SP:FF CYC:282 SL:3
C7AB  29 80     AND #$80                        A:10 X:FF Y:00 P:24 SP:FF CYC:294 SL:3
C7AD  F0 F9     BEQ $C7A8                       A:00 X:FF Y:00 P:26 SP:FF CYC:300 SL:3
C7A8  AD 02 20  LDA $2002 = FF                  A:00 X:FF Y:00 P:26 SP:FF CYC:309 SL:3
C7AB  29 80     AND #$80                        A:10 X:FF Y:00 P:24 SP:FF CYC:321 SL:3
C7AD  F0 F9     BEQ $C7A8                       A:00 X:FF Y:00 P:26 SP:FF CYC:327 SL:3
C7A8  AD 02 20  LDA $2002 = FF                  A:00 X:FF Y:00 P:26 SP:FF CYC:336 SL:3
C7AB  29 80     AND #$80                        A:10 X:FF Y:00 P:24 SP:FF CYC:  7 SL:4
C7AD  F0 F9     BEQ $C7A8                       A:00 X:FF Y:00 P:26 SP:FF CYC: 13 SL:4
C7A8  AD 02 20  LDA $2002 = FF                  A:00 X:FF Y:00 P:26 SP:FF CYC: 22 SL:4
C7AB  29 80     AND #$80                        A:10 X:FF Y:00 P:24 SP:FF CYC: 34 SL:4
C7AD  F0 F9     BEQ $C7A8                       A:00 X:FF Y:00 P:26 SP:FF CYC: 40 SL:4
C7A8  AD 02 20  LDA $2002 = FF                  A:00 X:FF Y:00 P:26 SP:FF CYC: 49 SL:4
C7AB  29 80     AND #$80                        A:10 X:FF Y:00 P:24 SP:FF CYC: 61 SL:4
C7AD  F0 F9     BEQ $C7A8                       A:00 X:FF Y:00 P:26 SP:FF CYC: 67 SL:4
C7A8  AD 02 20  LDA $2002 = FF                  A:00 X:FF Y:00 P:26 SP:FF CYC: 76 SL:4
C7AB  29 80     AND #$80                        A:10 X:FF Y:00 P:24 SP:FF CYC: 88 SL:4
C7AD  F0 F9     BEQ $C7A8                       A:00 X:FF Y:00 P:26 SP:FF CYC: 94 SL:4
C7A8  AD 02 20  LDA $2002 = FF                  A:00 X:FF Y:00 P:26 SP:FF CYC:103 SL:4
C7AB  29 80     AND #$80                        A:10 X:FF Y:00 P:24 SP:FF CYC:115 SL:4
C7AD  F0 F9     BEQ $C7A8                       A:00 X:FF Y:00 P:26 SP:FF CYC:121 SL:4
C7A8  AD 02 20  LDA $2002 = FF                  A:00 X:FF Y:00 P:26 SP:FF CYC:130 SL:4
C7AB  29 80     AND #$80                        A:10 X:FF Y:00 P:24 SP:FF CYC:142 SL:4
C7AD  F0 F9     BEQ $C7A8                       A:00 X:FF Y:00 P:26 SP:FF CYC:148 SL:4
C7A8  AD 02 20  LDA $2002 = FF                  A:00 X:FF Y:00 P:26 SP:FF CYC:157 SL:4
C7AB  29 80     AND #$80                        A:10 X:FF Y:00 P:24 SP:FF CYC:169 SL:4
C7AD  F0 F9     BEQ $C7A8                       A:00 X:FF Y:00 P:26 SP:FF CYC:175 SL:4
C7A8  AD 02 20  LDA $2002 = FF                  A:00 X:FF Y:00 P:26 SP:FF CYC:184 SL:4
C7AB  29 80     AND #$80                        A:10 X:FF Y:00 P:24 SP:FF CYC:196 SL:4
C7AD  F0 F9     BEQ $C7A8                       A:00 X:FF Y:00 P:26 SP:FF CYC:202 SL:4
C7A8  AD 02 20  LDA $2002 = FF                  A:00 X:FF Y:00 P:26 SP:FF CYC:211 SL:4
C7AB  29 80     AND #$80                        A:10 X:FF Y:00 P:24 SP:FF CYC:223 SL:4
C7AD  F0 F9     BEQ $C7A8                       A:00 X:FF Y:00 P:26 SP:FF CYC:229 SL:4
C7A8  AD 02 20  LDA $2002 = FF                  A:00 X:FF Y:00 P:26 SP:FF CYC:238 SL:4
C7AB  29 80     AND #$80                        A:10 X:FF Y:00 P:24 SP:FF CYC:250 SL:4
C7AD  F0 F9     BEQ $C7A8                       A:00 X:FF Y:00 P:26 SP:FF CYC:256 SL:4
C7A8  AD 02 20  LDA $2002 = FF                  A:00 X:FF Y:00 P:26 SP:FF CYC:265 SL:4
C7AB  29 80     AND #$80                        A:10 X:FF Y:00 P:24 SP:FF CYC:277 SL:4
C7AD  F0 F9     BEQ $C7A8                       A:00 X:FF Y:00 P:26 SP:FF CYC:283 SL:4
C7A8  AD 02 20  LDA $2002 = FF                  A:00 X:FF Y:00 P:26 SP:FF CYC:292 SL:4
C7AB  29 80     AND #$80                        A:10 X:FF Y:00 P:24 SP:FF CYC:304 SL:4
C7AD  F0 F9     BEQ $C7A8                       A:00 X:FF Y:00 P:26 SP:FF CYC:310 SL:4
C7A8  AD 02 20  LDA $2002 = FF                  A:00 X:FF Y:00 P:26 SP:FF CYC:319 SL:4
C7AB  29 80     AND #$80                        A:10 X:FF Y:00 P:24 SP:FF CYC:331 SL:4
C7AD  F0 F9     BEQ $C7A8                       A:00 X:FF Y:00 P:26 SP:FF CYC:337 SL:4
C7A8  AD 02 20  LDA $2002 = FF                  A:00 X:FF Y:00 P:26 SP:FF CYC:  5 SL:5
C7AB  29 80     AND #$80                        A:10 X:FF Y:00 P:24 SP:FF CYC: 17 SL:5
C7AD  F0 F9     BEQ $C7A8                       A:00 X:FF Y:00 P:26 SP:FF CYC: 23 SL:5
C7A8  AD 02 20  LDA $2002 = FF                  A:00 X:FF Y:00 P:26 SP:FF CYC: 32 SL:5
C7AB  29 80     AND #$80                        A:10 X:FF Y:00 P:24 SP:FF CYC: 44 SL:5
C7AD  F0 F9     BEQ $C7A8                       A:00 X:FF Y:00 P:26 SP:FF CYC: 50 SL:5
C7A8  AD 02 20  LDA $2002 = FF                  A:00 X:FF Y:00 P:26 SP:FF CYC: 59 SL:5
C7AB  29 80     AND #$80                        A:10 X:FF Y:00 P:24 SP:FF CYC: 71 SL:5
C7AD  F0 F9     BEQ $C7A8                       A:00 X:FF Y:00 P:26 SP:FF CYC: 77 SL:5
C7A8  AD 02 20  LDA $2002 = FF                  A:00 X:FF Y:00 P:26 SP:FF CYC: 86 SL:5
C7AB  29 80     AND #$80                        A:10 X:FF Y:00 P:24 SP:FF CYC: 98 SL:5
C7AD  F0 F9     BEQ $C7A8                       A:00 X:FF Y:00 P:26 SP:FF CYC:104 SL:5
C7A8  AD 02 20  LDA $2002 = FF                  A:00 X:FF Y:00 P:26 SP:FF CYC:113 SL:5
C7AB  29 80     AND #$80                        A:10 X:FF Y:00 P:24 SP:FF CYC:125 SL:5
C7AD  F0 F9     BEQ $C7A8                       A:00 X:FF Y:00 P:26 SP:FF CYC:131 SL:5
C7A8  AD 02 20  LDA $2002 = FF                  A:00 X:FF Y:00 P:26 SP:FF CYC:140 SL:5
C7AB  29 80     AND #$80                        A:10 X:FF Y:00 P:24 SP:FF CYC:152 SL:5
C7AD  F0 F9     BEQ $C7A8                       A:00 X:FF Y:00 P:26 SP:FF CYC:158 SL:5
C7A8  AD 02 20  LDA $2002 = FF                  A:00 X:FF Y:00 P:26 SP:FF CYC:167 SL:5
C7AB  29 80     AND #$80                        A:10 X:FF Y:00 P:24 SP:FF CYC:179 SL:5
C7AD  F0 F9     BEQ $C7A8                       A:00 X:FF Y:00 P:26 SP:FF CYC:185 SL:5
C7A8  AD 02 20  LDA $2002 = FF                  A:00 X:FF Y:00 P:26 SP:FF CYC:194 SL:5
C7AB  29 80     AND #$80                        A:10 X:FF Y:00 P:24 SP:FF CYC:206 SL:5
C7AD  F0 F9     BEQ $C7A8                       A:00 X:FF Y:00 P:26 SP:FF CYC:212 SL:5
C7A8  AD 02 20  LDA $2002 = FF                  A:00 X:FF Y:00 P:26 SP:FF CYC:221 SL:5
C7AB  29 80     AND #$80                        A:10 X:FF Y:00 P:24 SP:FF CYC:233 SL:5
C7AD  F0 F9     BEQ $C7A8                       A:00 X:FF Y:00 P:26 SP:FF CYC:239 SL:5
C7A8  AD 02 20  LDA $2002 = FF                  A:00 X:FF Y:00 P:26 SP:FF CYC:248 SL:5
C7AB  29 80     AND #$80                        A:10 X:FF Y:00 P:24 SP:FF CYC:260 SL:5
C7AD  F0 F9     BEQ $C7A8                       A:00 X:FF Y:00 P:26 SP:FF CYC:266 SL:5
C7A8  AD 02 20  LDA $2002 = FF                  A:00 X:FF Y:00 P:26 SP:FF CYC:275 SL:5
C7AB  29 80     AND #$80                        A:10 X:FF Y:00 P:24 SP:FF CYC:287 SL:5
C7AD  F0 F9     BEQ $C7A8                       A:00 X:FF Y:00 P:26 SP:FF CYC:293 SL:5
C7A8  AD 02 20  LDA $2002 = FF                  A:00 X:FF Y:00 P:26 SP:FF CYC:302 SL:5
C7AB  29 80     AND #$80                        A:10 X:FF Y:00 P:24 SP:FF CYC:314 SL:5
C7AD  F0 F9     BEQ $C7A8                       A:00 X:FF Y:00 P:26 SP:FF CYC:320 SL:5
C7A8  AD 02 20  LDA $2002 = FF                  A:00 X:FF Y:00 P:26 SP:FF CYC:329 SL:5
C7AB  29 80     AND #$80                        A:10 X:FF Y:00 P:24 SP:FF CYC:  0 SL:6
C7AD  F0 F9     BEQ $C7A8                       A:00 X:FF Y:00 P:26 SP:FF CYC:  6 SL:6
C7A8  AD 02 20  LDA $2002 = FF                  A:00 X:FF Y:00 P:26 SP:FF CYC: 15 SL:6
C7AB  29 80     AND #$80                        A:10 X:FF Y:00 P:24 SP:FF CYC: 27 SL:6
C7AD  F0 F9     BEQ $C7A8                       A:00 X:FF Y:00 P:26 SP:FF CYC: 33 SL:6
C7A8  AD 02 20  LDA $2002 = FF                  A:00 X:FF Y:00 P:26 SP:FF CYC: 42 SL:6
C7AB  29 80     AND #$80                        A:10 X:FF Y:00 P:24 SP:FF CYC: 54 SL:6
C7AD  F0 F9     BEQ $C7A8                       A:00 X:FF Y:00 P:26 SP:FF CYC: 60 SL:6
C7A8  AD 02 20  LDA $2002 = FF                  A:00 X:FF Y:00 P:26 SP:FF CYC: 69 SL:6
C7AB  29 80     AND #$80                        A:10 X:FF Y:00 P:24 SP:FF CYC: 81 SL:6
C7AD  F0 F9     BEQ $C7A8                       A:00 X:FF Y:00 P:26 SP:FF CYC: 87 SL:6
C7A8  AD 02 20  LDA $2002 = FF                  A:00 X:FF Y:00 P:26 SP:FF CYC: 96 SL:6
C7AB  29 80     AND #$80                        A:10 X:FF Y:00 P:24 SP:FF CYC:108 SL:6
C7AD  F0 F9     BEQ $C7A8                       A:00 X:FF Y:00 P:26 SP:FF CYC:114 SL:6
C7A8  AD 02 20  LDA $2002 = FF                  A:00 X:FF Y:00 P:26 SP:FF CYC:123 SL:6
C7AB  29 80     AND #$80                        A:10 X:FF Y:00 P:24 SP:FF CYC:135 SL:6
C7AD  F0 F9     BEQ $C7A8                       A:00 X:FF Y:00 P:26 SP:FF CYC:141 SL:6
C7A8  AD 02 20  LDA $2002 = FF                  A:00 X:FF Y:00 P:26 SP:FF CYC:150 SL:6
C7AB  29 80     AND #$80                        A:10 X:FF Y:00 P:24 SP:FF CYC:162 SL:6
C7AD  F0 F9     BEQ $C7A8                       A:00 X:FF Y:00 P:26 SP:FF CYC:168 SL:6
C7A8  AD 02 20  LDA $2002 = FF                  A:00 X:FF Y:00 P:26 SP:FF CYC:177 SL:6
C7AB  29 80     AND #$80                        A:10 X:FF Y:00 P:24 SP:FF CYC:189 SL:6
C7AD  F0 F9     BEQ $C7A8                       A:00 X:FF Y:00 P:26 SP:FF CYC:195 SL:6
C7A8  AD 02 20  LDA $2002 = FF                  A:00 X:FF Y:00 P:26 SP:FF CYC:204 SL:6
C7AB  29 80     AND #$80                        A:10 X:FF Y:00 P:24 SP:FF CYC:216 SL:6
C7AD  F0 F9     BEQ $C7A8                       A:00 X:FF Y:00 P:26 SP:FF CYC:222 SL:6
C7A8  AD 02 20  LDA $2002 = FF                  A:00 X:FF Y:00 P:26 SP:FF CYC:231 SL:6
C7AB  29 80     AND #$80                        A:10 X:FF Y:00 P:24 SP:FF CYC:243 SL:6
C7AD  F0 F9     BEQ $C7A8                       A:00 X:FF Y:00 P:26 SP:FF CYC:249 SL:6
C7A8  AD 02 20  LDA $2002 = FF                  A:00 X:FF Y:00 P:26 SP:FF CYC:258 SL:6
C7AB  29 80     AND #$80                        A:10 X:FF Y:00 P:24 SP:FF CYC:270 SL:6
C7AD  F0 F9     BEQ $C7A8                       A:00 X:FF Y:00 P:26 SP:FF CYC:276 SL:6
C7A8  AD 02 20  LDA $2002 = FF                  A:00 X:FF Y:00 P:26 SP:FF CYC:285 SL:6
C7AB  29 80     AND #$80                        A:10 X:FF Y:00 P:24 SP:FF CYC:297 SL:6
C7AD  F0 F9     BEQ $C7A8                       A:00 X:FF Y:00 P:26 SP:FF CYC:303 SL:6
C7A8  AD 02 20  LDA $2002 = FF                  A:00 X:FF Y:00 P:26 SP:FF CYC:312 SL:6
C7AB  29 80     AND #$80                        A:10 X:FF Y:00 P:24 SP:FF CYC:324 SL:6
C7AD  F0 F9     BEQ $C7A8                       A:00 X:FF Y:00 P:26 SP:FF CYC:330 SL:6
C7A8  AD 02 20  LDA $2002 = FF                  A:00 X:FF Y:00 P:26 SP:FF CYC:339 SL:6
C7AB  29 80     AND #$80                        A:10 X:FF Y:00 P:24 SP:FF CYC: 10 SL:7
C7AD  F0 F9     BEQ $C7A8                       A:00 X:FF Y:00 P:26 SP:FF CYC: 16 SL:7
C7A8  AD 02 20  LDA $2002 = FF                  A:00 X:FF Y:00 P:26 SP:FF CYC: 25 SL:7
C7AB  29 80     AND #$80                        A:10 X:FF Y:00 P:24 SP:FF CYC: 37 SL:7
C7AD  F0 F9     BEQ $C7A8                       A:00 X:FF Y:00 P:26 SP:FF CYC: 43 SL:7
C7A8  AD 02 20  LDA $2002 = FF                  A:00 X:FF Y:00 P:26 SP:FF CYC: 52 SL:7
C7AB  29 80     AND #$80                        A:10 X:FF Y:00 P:24 SP:FF CYC: 64 SL:7
C7AD  F0 F9     BEQ $C7A8                       A:00 X:FF Y:00 P:26 SP:FF CYC: 70 SL:7
C7A8  AD 02 20  LDA $2002 = FF                  A:00 X:FF Y:00 P:26 SP:FF CYC: 79 SL:7
C7AB  29 80     AND #$80                        A:10 X:FF Y:00 P:24 SP:FF CYC: 91 SL:7
C7AD  F0 F9     BEQ $C7A8                       A:00 X:FF Y:00 P:26 SP:FF CYC: 97 SL:7
C7A8  AD 02 20  LDA $2002 = FF                  A:00 X:FF Y:00 P:26 SP:FF CYC:106 SL:7
C7AB  29 80     AND #$80                        A:10 X:FF Y:00 P:24 SP:FF CYC:118 SL:7
C7AD  F0 F9     BEQ $C7A8                       A:00 X:FF Y:00 P:26 SP:FF CYC:124 SL:7
C7A8  AD 02 20  LDA $2002 = FF                  A:00 X:FF Y:00 P:26 SP:FF CYC:133 SL:7
C7AB  29 80     AND #$80                        A:10 X:FF Y:00 P:24 SP:FF CYC:145 SL:7
C7AD  F0 F9     BEQ $C7A8                       A:00 X:FF Y:00 P:26 SP:FF CYC:151 SL:7
C7A8  AD 02 20  LDA $2002 = FF                  A:00 X:FF Y:00 P:26 SP:FF CYC:160 SL:7
C7AB  29 80     AND #$80                        A:10 X:FF Y:00 P:24 SP:FF CYC:172 SL:7
C7AD  F0 F9     BEQ $C7A8                       A:00 X:FF Y:00 P:26 SP:FF CYC:178 SL:7
C7A8  AD 02 20  LDA $2002 = FF                  A:00 X:FF Y:00 P:26 SP:FF CYC:187 SL:7
C7AB  29 80     AND #$80                        A:10 X:FF Y:00 P:24 SP:FF CYC:199 SL:7
C7AD  F0 F9     BEQ $C7A8                       A:00 X:FF Y:00 P:26 SP:FF CYC:205 SL:7
C7A8  AD 02 20  LDA $2002 = FF                  A:00 X:FF Y:00 P:26 SP:FF CYC:214 SL:7
C7AB  29 80     AND #$80                        A:10 X:FF Y:00 P:24 SP:FF CYC:226 SL:7
C7AD  F0 F9     BEQ $C7A8                       A:00 X:FF Y:00 P:26 SP:FF CYC:232 SL:7
C7A8  AD 02 20  LDA $2002 = FF                  A:00 X:FF Y:00 P:26 SP:FF CYC:241 SL:7
C7AB  29 80     AND #$80                        A:10 X:FF Y:00 P:24 SP:FF CYC:253 SL:7
C7AD  F0 F9     BEQ $C7A8                       A:00 X:FF Y:00 P:26 SP:FF CYC:259 SL:7
C7A8  AD 02 20  LDA $2002 = FF                  A:00 X:FF Y:00 P:26 SP:FF CYC:268 SL:7
C7AB  29 80     AND #$80                        A:10 X:FF Y:00 P:24 SP:FF CYC:280 SL:7
C7AD  F0 F9     BEQ $C7A8                       A:00 X:FF Y:00 P:26 SP:FF CYC:286 SL:7
C7A8  AD 02 20  LDA $2002 = FF                  A:00 X:FF Y:00 P:26 SP:FF CYC:295 SL:7
C7AB  29 80     AND #$80                        A:10 X:FF Y:00 P:24 SP:FF CYC:307 SL:7
C7AD  F0 F9     BEQ $C7A8                       A:00 X:FF Y:00 P:26 SP:FF CYC:313 SL:7
C7A8  AD 02 20  LDA $2002 = FF                  A:00 X:FF Y:00 P:26 SP:FF CYC:322 SL:7
C7AB  29 80     AND #$80                        A:10 X:FF Y:00 P:24 SP:FF CYC:334 SL:7
C7AD  F0 F9     BEQ $C7A8                       A:00 X:FF Y:00 P:26 SP:FF CYC:340 SL:7
C7A8  AD 02 20  LDA $2002 = FF                  A:00 X:FF Y:00 P:26 SP:FF CYC:  8 SL:8
C7AB  29 80     AND #$80                        A:10 X:FF Y:00 P:24 SP:FF CYC: 20 SL:8
C7AD  F0 F9     BEQ $C7A8                       A:00 X:FF Y:00 P:26 SP:FF CYC: 26 SL:8
C7A8  AD 02 20  LDA $2002 = FF                  A:00 X:FF Y:00 P:26 SP:FF CYC: 35 SL:8
C7AB  29 80     AND #$80                        A:10 X:FF Y:00 P:24 SP:FF CYC: 47 SL:8
C7AD  F0 F9     BEQ $C7A8                       A:00 X:FF Y:00 P:26 SP:FF CYC: 53 SL:8
C7A8  AD 02 20  LDA $2002 = FF                  A:00 X:FF Y:00 P:26 SP:FF CYC: 62 SL:8
C7AB  29 80     AND #$80                        A:10 X:FF Y:00 P:24 SP:FF CYC: 74 SL:8
C7AD  F0 F9     BEQ $C7A8                       A:00 X:FF Y:00 P:26 SP:FF CYC: 80 SL:8
C7A8  AD 02 20  LDA $2002 = FF                  A:00 X:FF Y:00 P:26 SP:FF CYC: 89 SL:8
C7AB  29 80     AND #$80                        A:10 X:FF Y:00 P:24 SP:FF CYC:101 SL:8
C7AD  F0 F9     BEQ $C7A8                       A:00 X:FF Y:00 P:26 SP:FF CYC:107 SL:8
C7A8  AD 02 20  LDA $2002 = FF                  A:00 X:FF Y:00 P:26 SP:FF CYC:116 SL:8
C7AB  29 80     AND #$80                        A:10 X:FF Y:00 P:24 SP:FF CYC:128 SL:8
C7AD  F0 F9     BEQ $C7A8                       A:00 X:FF Y:00 P:26 SP:FF CYC:134 SL:8
C7A8  AD 02 20  LDA $2002 = FF                  A:00 X:FF Y:00 P:26 SP:FF CYC:143 SL:8
C7AB  29 80     AND #$80                        A:10 X:FF Y:00 P:24 SP:FF CYC:155 SL:8
C7AD  F0 F9     BEQ $C7A8                       A:00 X:FF Y:00 P:26 SP:FF CYC:161 SL:8
C7A8  AD 02 20  LDA $2002 = FF                  A:00 X:FF Y:00 P:26 SP:FF CYC:170 SL:8
C7AB  29 80     AND #$80                        A:10 X:FF Y:00 P:24 SP:FF CYC:182 SL:8
C7AD  F0 F9     BEQ $C7A8                       A:00 X:FF Y:00 P:26 SP:FF CYC:188 SL:8
C7A8  AD 02 20  LDA $2002 = FF                  A:00 X:FF Y:00 P:26 SP:FF CYC:197 SL:8
C7AB  29 80     AND #$80                        A:10 X:FF Y:00 P:24 SP:FF CYC:209 SL:8
C7AD  F0 F9     BEQ $C7A8                       A:00 X:FF Y:00 P:26 SP:FF CYC:215 SL:8
C7A8  AD 02 20  LDA $2002 = FF                  A:00 X:FF Y:00 P:26 SP:FF CYC:224 SL:8
C7AB  29 80     AND #$80                        A:10 X:FF Y:00 P:24 SP:FF CYC:236 SL:8
C7AD  F0 F9     BEQ $C7A8                       A:00 X:FF Y:00 P:26 SP:FF CYC:242 SL:8
C7A8  AD 02 20  LDA $2002 = FF                  A:00 X:FF Y:00 P:26 SP:FF CYC:251 SL:8
C7AB  29 80     AND #$80                        A:10 X:FF Y:00 P:24 SP:FF CYC:263 SL:8
C7AD  F0 F9     BEQ $C7A8                       A:00 X:FF Y:00 P:26 SP:FF CYC:269 SL:8
C7A8  AD 02 20  LDA $2002 = FF                  A:00 X:FF Y:00 P:26 SP:FF CYC:278 SL:8
C7AB  29 80     AND #$80                        A:10 X:FF Y:00 P:24 SP:FF CYC:290 SL:8
C7AD  F0 F9     BEQ $C7A8                       A:00 X:FF Y:00 P:26 SP:FF CYC:296 SL:8
C7A8  AD 02 20  LDA $2002 = FF                  A:00 X:FF Y:00 P:26 SP:FF CYC:305 SL:8
C7AB  29 80     AND #$80                        A:10 X:FF Y:00 P:24 SP:FF CYC:317 SL:8
C7AD  F0 F9     BEQ $C7A8                       A:00 X:FF Y:00 P:26 SP:FF CYC:323 SL:8
C7A8  AD 02 20  LDA $2002 = FF                  A:00 X:FF Y:00 P:26 SP:FF CYC:332 SL:8
C7AB  29 80     AND #$80                        A:10 X:FF Y:00 P:24 SP:FF CYC:  3 SL:9
C7AD  F0 F9     BEQ $C7A8                       A:00 X:FF Y:00 P:26 SP:FF CYC:  9 SL:9
C7A8  AD 02 20  LDA $2002 = FF                  A:00 X:FF Y:00 P:26 SP:FF CYC: 18 SL:9
C7AB  29 80     AND #$80                        A:10 X:FF Y:00 P:24 SP:FF CYC: 30 SL:9
C7AD  F0 F9     BEQ $C7A8                       A:00 X:FF Y:00 P:26 SP:FF CYC: 36 SL:9
C7A8  AD 02 20  LDA $2002 = FF                  A:00 X:FF Y:00 P:26 SP:FF CYC: 45 SL:9
C7AB  29 80     AND #$80                        A:10 X:FF Y:00 P:24 SP:FF CYC: 57 SL:9
C7AD  F0 F9     BEQ $C7A8                       A:00 X:FF Y:00 P:26 SP:FF CYC: 63 SL:9
C7A8  AD 02 20  LDA $2002 = FF                  A:00 X:FF Y:00 P:26 SP:FF CYC: 72 SL:9
C7AB  29 80     AND #$80                        A:10 X:FF Y:00 P:24 SP:FF CYC: 84 SL:9
C7AD  F0 F9     BEQ $C7A8                       A:00 X:FF Y:00 P:26 SP:FF CYC: 90 SL:9
C7A8  AD 02 20  LDA $2002 = FF                  A:00 X:FF Y:00 P:26 SP:FF CYC: 99 SL:9
C7AB  29 80     AND #$80                        A:10 X:FF Y:00 P:24 SP:FF CYC:111 SL:9
C7AD  F0 F9     BEQ $C7A8                       A:00 X:FF Y:00 P:26 SP:FF CYC:117 SL:9
C7A8  AD 02 20  LDA $2002 = FF                  A:00 X:FF Y:00 P:26 SP:FF CYC:126 SL:9
C7AB  29 80     AND #$80                        A:10 X:FF Y:00 P:24 SP:FF CYC:138 SL:9
C7AD  F0 F9     BEQ $C7A8                       A:00 X:FF Y:00 P:26 SP:FF CYC:144 SL:9
C7A8  AD 02 20  LDA $2002 = FF                  A:00 X:FF Y:00 P:26 SP:FF CYC:153 SL:9
C7AB  29 80     AND #$80                        A:10 X:FF Y:00 P:24 SP:FF CYC:165 SL:9
C7AD  F0 F9     BEQ $C7A8                       A:00 X:FF Y:00 P:26 SP:FF CYC:171 SL:9
C7A8  AD 02 20  LDA $2002 = FF                  A:00 X:FF Y:00 P:26 SP:FF CYC:180 SL:9
C7AB  29 80     AND #$80                        A:10 X:FF Y:00 P:24 SP:FF CYC:192 SL:9
C7AD  F0 F9     BEQ $C7A8                       A:00 X:FF Y:00 P:26 SP:FF CYC:198 SL:9
C7A8  AD 02 20  LDA $2002 = FF                  A:00 X:FF Y:00 P:26 SP:FF CYC:207 SL:9
C7AB  29 80     AND #$80                        A:10 X:FF Y:00 P:24 SP:FF CYC:219 SL:9
C7AD  F0 F9     BEQ $C7A8                       A:00 X:FF Y:00 P:26 SP:FF CYC:225 SL:9
C7A8  AD 02 20  LDA $2002 = FF                  A:00 X:FF Y:00 P:26 SP:FF CYC:234 SL:9
C7AB  29 80     AND #$80                        A:10 X:FF Y:00 P:24 SP:FF CYC:246 SL:9
C7AD  F0 F9     BEQ $C7A8                       A:00 X:FF Y:00 P:26 SP:FF CYC:252 SL:9
C7A8  AD 02 20  LDA $2002 = FF                  A:00 X:FF Y:00 P:26 SP:FF CYC:261 SL:9
C7AB  29 80     AND #$80                        A:10 X:FF Y:00 P:24 SP:FF CYC:273 SL:9
C7AD  F0 F9     BEQ $C7A8                       A:00 X:FF Y:00 P:26 SP:FF CYC:279 SL:9
C7A8  AD 02 20  LDA $2002 = FF                  A:00 X:FF Y:00 P:26 SP:FF CYC:288 SL:9
C7AB  29 80     AND #$80                        A:10 X:FF Y:00 P:24 SP:FF CYC:300 SL:9
C7AD  F0 F9     BEQ $C7A8                       A:00 X:FF Y:00 P:26 SP:FF CYC:306 SL:9
C7A8  AD 02 20  LDA $2002 = FF                  A:00 X:FF Y:00 P:26 SP:FF CYC:315 SL:9
C7AB  29 80     AND #$80                        A:10 X:FF Y:00 P:24 SP:FF CYC:327 SL:9
C7AD  F0 F9     BEQ $C7A8                       A:00 X:FF Y:00 P:26 SP:FF CYC:333 SL:9
C7A8  AD 02 20  LDA $2002 = FF                  A:00 X:FF Y:00 P:26 SP:FF CYC:  1 SL:10
C7AB  29 80     AND #$80                        A:10 X:FF Y:00 P:24 SP:FF CYC: 13 SL:10
C7AD  F0 F9     BEQ $C7A8                       A:00 X:FF Y:00 P:26 SP:FF CYC: 19 SL:10
C7A8  AD 02 20  LDA $2002 = FF                  A:00 X:FF Y:00 P:26 SP:FF CYC: 28 SL:10
C7AB  29 80     AND #$80                        A:10 X:FF Y:00 P:24 SP:FF CYC: 40 SL:10
C7AD  F0 F9     BEQ $C7A8                       A:00 X:FF Y:00 P:26 SP:FF CYC: 46 SL:10
C7A8  AD 02 20  LDA $2002 = FF                  A:00 X:FF Y:00 P:26 SP:FF CYC: 55 SL:10
C7AB  29 80     AND #$80                        A:10 X:FF Y:00 P:24 SP:FF CYC: 67 SL:10
C7AD  F0 F9     BEQ $C7A8                       A:00 X:FF Y:00 P:26 SP:FF CYC: 73 SL:10
C7A8  AD 02 20  LDA $2002 = FF                  A:00 X:FF Y:00 P:26 SP:FF CYC: 82 SL:10
C7AB  29 80     AND #$80                        A:10 X:FF Y:00 P:24 SP:FF CYC: 94 SL:10
C7AD  F0 F9     BEQ $C7A8                       A:00 X:FF Y:00 P:26 SP:FF CYC:100 SL:10
C7A8  AD 02 20  LDA $2002 = FF                  A:00 X:FF Y:00 P:26 SP:FF CYC:109 SL:10
C7AB  29 80     AND #$80                        A:10 X:FF Y:00 P:24 SP:FF CYC:121 SL:10
C7AD  F0 F9     BEQ $C7A8                       A:00 X:FF Y:00 P:26 SP:FF CYC:127 SL:10
C7A8  AD 02 20  LDA $2002 = FF                  A:00 X:FF Y:00 P:26 SP:FF CYC:136 SL:10
C7AB  29 80     AND #$80                        A:10 X:FF Y:00 P:24 SP:FF CYC:148 SL:10
C7AD  F0 F9     BEQ $C7A8                       A:00 X:FF Y:00 P:26 SP:FF CYC:154 SL:10
C7A8  AD 02 20  LDA $2002 = FF                  A:00 X:FF Y:00 P:26 SP:FF CYC:163 SL:10
C7AB  29 80     AND #$80                        A:10 X:FF Y:00 P:24 SP:FF CYC:175 SL:10
C7AD  F0 F9     BEQ $C7A8                       A:00 X:FF Y:00 P:26 SP:FF CYC:181 SL:10
C7A8  AD 02 20  LDA $2002 = FF                  A:00 X:FF Y:00 P:26 SP:FF CYC:190 SL:10
C7AB  29 80     AND #$80                        A:10 X:FF Y:00 P:24 SP:FF CYC:202 SL:10
C7AD  F0 F9     BEQ $C7A8                       A:00 X:FF Y:00 P:26 SP:FF CYC:208 SL:10
C7A8  AD 02 20  LDA $2002 = FF                  A:00 X:FF Y:00 P:26 SP:FF CYC:217 SL:10
C7AB  29 80     AND #$80                        A:10 X:FF Y:00 P:24 SP:FF CYC:229 SL:10
C7AD  F0 F9     BEQ $C7A8                       A:00 X:FF Y:00 P:26 SP:FF CYC:235 SL:10
C7A8  AD 02 20  LDA $2002 = FF                  A:00 X:FF Y:00 P:26 SP:FF CYC:244 SL:10
C7AB  29 80     AND #$80                        A:10 X:FF Y:00 P:24 SP:FF CYC:256 SL:10
C7AD  F0 F9     BEQ $C7A8                       A:00 X:FF Y:00 P:26 SP:FF CYC:262 SL:10
C7A8  AD 02 20  LDA $2002 = FF                  A:00 X:FF Y:00 P:26 SP:FF CYC:271 SL:10
C7AB  29 80     AND #$80                        A:10 X:FF Y:00 P:24 SP:FF CYC:283 SL:10
C7AD  F0 F9     BEQ $C7A8                       A:00 X:FF Y:00 P:26 SP:FF CYC:289 SL:10
C7A8  AD 02 20  LDA $2002 = FF                  A:00 X:FF Y:00 P:26 SP:FF CYC:298 SL:10
C7AB  29 80     AND #$80                        A:10 X:FF Y:00 P:24 SP:FF CYC:310 SL:10
C7AD  F0 F9     BEQ $C7A8                       A:00 X:FF Y:00 P:26 SP:FF CYC:316 SL:10
C7A8  AD 02 20  LDA $2002 = FF                  A:00 X:FF Y:00 P:26 SP:FF CYC:325 SL:10
C7AB  29 80     AND #$80                        A:10 X:FF Y:00 P:24 SP:FF CYC:337 SL:10
C7AD  F0 F9     BEQ $C7A8                       A:00 X:FF Y:00 P:26 SP:FF CYC:  2 SL:11
C7A8  AD 02 20  LDA $2002 = FF                  A:00 X:FF Y:00 P:26 SP:FF CYC: 11 SL:11
C7AB  29 80     AND #$80                        A:10 X:FF Y:00 P:24 SP:FF CYC: 23 SL:11
C7AD  F0 F9     BEQ $C7A8                       A:00 X:FF Y:00 P:26 SP:FF CYC: 29 SL:11
C7A8  AD 02 20  LDA $2002 = FF                  A:00 X:FF Y:00 P:26 SP:FF CYC: 38 SL:11
C7AB  29 80     AND #$80                        A:10 X:FF Y:00 P:24 SP:FF CYC: 50 SL:11
C7AD  F0 F9     BEQ $C7A8                       A:00 X:FF Y:00 P:26 SP:FF CYC: 56 SL:11
C7A8  AD 02 20  LDA $2002 = FF                  A:00 X:FF Y:00 P:26 SP:FF CYC: 65 SL:11
C7AB  29 80     AND #$80                        A:10 X:FF Y:00 P:24 SP:FF CYC: 77 SL:11
C7AD  F0 F9     BEQ $C7A8                       A:00 X:FF Y:00 P:26 SP:FF CYC: 83 SL:11
C7A8  AD 02 20  LDA $2002 = FF                  A:00 X:FF Y:00 P:26 SP:FF CYC: 92 SL:11
C7AB  29 80     AND #$80                        A:10 X:FF Y:00 P:24 SP:FF CYC:104 SL:11
C7AD  F0 F9     BEQ $C7A8                       A:00 X:FF Y:00 P:26 SP:FF CYC:110 SL:11
C7A8  AD 02 20  LDA $2002 = FF                  A:00 X:FF Y:00 P:26 SP:FF CYC:119 SL:11
C7AB  29 80     AND #$80                        A:10 X:FF Y:00 P:24 SP:FF CYC:131 SL:11
C7AD  F0 F9     BEQ $C7A8                       A:00 X:FF Y:00 P:26 SP:FF CYC:137 SL:11
C7A8  AD 02 20  LDA $2002 = FF                  A:00 X:FF Y:00 P:26 SP:FF CYC:146 SL:11
C7AB  29 80     AND #$80                        A:10 X:FF Y:00 P:24 SP:FF CYC:158 SL:11
C7AD  F0 F9     BEQ $C7A8                       A:00 X:FF Y:00 P:26 SP:FF CYC:164 SL:11
C7A8  AD 02 20  LDA $2002 = FF                  A:00 X:FF Y:00 P:26 SP:FF CYC:173 SL:11
C7AB  29 80     AND #$80                        A:10 X:FF Y:00 P:24 SP:FF CYC:185 SL:11
C7AD  F0 F9     BEQ $C7A8                       A:00 X:FF Y:00 P:26 SP:FF CYC:191 SL:11
C7A8  AD 02 20  LDA $2002 = FF                  A:00 X:FF Y:00 P:26 SP:FF CYC:200 SL:11
C7AB  29 80     AND #$80                        A:10 X:FF Y:00 P:24 SP:FF CYC:212 SL:11
C7AD  F0 F9     BEQ $C7A8                       A:00 X:FF Y:00 P:26 SP:FF CYC:218 SL:11
C7A8  AD 02 20  LDA $2002 = FF                  A:00 X:FF Y:00 P:26 SP:FF CYC:227 SL:11
C7AB  29 80     AND #$80                        A:10 X:FF Y:00 P:24 SP:FF CYC:239 SL:11
C7AD  F0 F9     BEQ $C7A8                       A:00 X:FF Y:00 P:26 SP:FF CYC:245 SL:11
C7A8  AD 02 20  LDA $2002 = FF                  A:00 X:FF Y:00 P:26 SP:FF CYC:254 SL:11
C7AB  29 80     AND #$80                        A:10 X:FF Y:00 P:24 SP:FF CYC:266 SL:11
C7AD  F0 F9     BEQ $C7A8                       A:00 X:FF Y:00 P:26 SP:FF CYC:272 SL:11
C7A8  AD 02 20  LDA $2002 = FF                  A:00 X:FF Y:00 P:26 SP:FF CYC:281 SL:11
C7AB  29 80     AND #$80                        A:10 X:FF Y:00 P:24 SP:FF CYC:293 SL:11
C7AD  F0 F9     BEQ $C7A8                       A:00 X:FF Y:00 P:26 SP:FF CYC:299 SL:11
C7A8  AD 02 20  LDA $2002 = FF                  A:00 X:FF Y:00 P:26 SP:FF CYC:308 SL:11
C7AB  29 80     AND #$80                        A:10 X:FF Y:00 P:24 SP:FF CYC:320 SL:11
C7AD  F0 F9     BEQ $C7A8                       A:00 X:FF Y:00 P:26 SP:FF CYC:326 SL:11
C7A8  AD 02 20  LDA $2002 = FF                  A:00 X:FF Y:00 P:26 SP:FF CYC:335 SL:11
C7AB  29 80     AND #$80                        A:10 X:FF Y:00 P:24 SP:FF CYC:  6 SL:12
C7AD  F0 F9     BEQ $C7A8                       A:00 X:FF Y:00 P:26 SP:FF CYC: 12 SL:12
C7A8  AD 02 20  LDA $2002 = FF                  A:00 X:FF Y:00 P:26 SP:FF CYC: 21 SL:12
C7AB  29 80     AND #$80                        A:10 X:FF Y:00 P:24 SP:FF CYC: 33 SL:12
C7AD  F0 F9     BEQ $C7A8                       A:00 X:FF Y:00 P:26 SP:FF CYC: 39 SL:12
C7A8  AD 02 20  LDA $2002 = FF                  A:00 X:FF Y:00 P:26 SP:FF CYC: 48 SL:12
C7AB  29 80     AND #$80                        A:10 X:FF Y:00 P:24 SP:FF CYC: 60 SL:12
C7AD  F0 F9     BEQ $C7A8                       A:00 X:FF Y:00 P:26 SP:FF CYC: 66 SL:12
C7A8  AD 02 20  LDA $2002 = FF                  A:00 X:FF Y:00 P:26 SP:FF CYC: 75 SL:12
C7AB  29 80     AND #$80                        A:10 X:FF Y:00 P:24 SP:FF CYC: 87 SL:12
C7AD  F0 F9     BEQ $C7A8                       A:00 X:FF Y:00 P:26 SP:FF CYC: 93 SL:12
C7A8  AD 02 20  LDA $2002 = FF                  A:00 X:FF Y:00 P:26 SP:FF CYC:102 SL:12
C7AB  29 80     AND #$80                        A:10 X:FF Y:00 P:24 SP:FF CYC:114 SL:12
C7AD  F0 F9     BEQ $C7A8                       A:00 X:FF Y:00 P:26 SP:FF CYC:120 SL:12
C7A8  AD 02 20  LDA $2002 = FF                  A:00 X:FF Y:00 P:26 SP:FF CYC:129 SL:12
C7AB  29 80     AND #$80                        A:10 X:FF Y:00 P:24 SP:FF CYC:141 SL:12
C7AD  F0 F9     BEQ $C7A8                       A:00 X:FF Y:00 P:26 SP:FF CYC:147 SL:12
C7A8  AD 02 20  LDA $2002 = FF                  A:00 X:FF Y:00 P:26 SP:FF CYC:156 SL:12
C7AB  29 80     AND #$80                        A:10 X:FF Y:00 P:24 SP:FF CYC:168 SL:12
C7AD  F0 F9     BEQ $C7A8                       A:00 X:FF Y:00 P:26 SP:FF CYC:174 SL:12
C7A8  AD 02 20  LDA $2002 = FF                  A:00 X:FF Y:00 P:26 SP:FF CYC:183 SL:12
C7AB  29 80     AND #$80                        A:10 X:FF Y:00 P:24 SP:FF CYC:195 SL:12
C7AD  F0 F9     BEQ $C7A8                       A:00 X:FF Y:00 P:26 SP:FF CYC:201 SL:12
C7A8  AD 02 20  LDA $2002 = FF                  A:00 X:FF Y:00 P:26 SP:FF CYC:210 SL:12
C7AB  29 80     AND #$80                        A:10 X:FF Y:00 P:24 SP:FF CYC:222 SL:12
C7AD  F0 F9     BEQ $C7A8                       A:00 X:FF Y:00 P:26 SP:FF CYC:228 SL:12
C7A8  AD 02 20  LDA $2002 = FF                  A:00 X:FF Y:00 P:26 SP:FF CYC:237 SL:12
C7AB  29 80     AND #$80                        A:10 X:FF Y:00 P:24 SP:FF CYC:249 SL:12
C7AD  F0 F9     BEQ $C7A8                       A:00 X:FF Y:00 P:26 SP:FF CYC:255 SL:12
C7A8  AD 02 20  LDA $2002 = FF                  A:00 X:FF Y:00 P:26 SP:FF CYC:264 SL:12
C7AB  29 80     AND #$80                        A:10 X:FF Y:00 P:24 SP:FF CYC:276 SL:12
C7AD  F0 F9     BEQ $C7A8                       A:00 X:FF Y:00 P:26 SP:FF CYC:282 SL:12
C7A8  AD 02 20  LDA $2002 = FF                  A:00 X:FF Y:00 P:26 SP:FF CYC:291 SL:12
C7AB  29 80     AND #$80                        A:10 X:FF Y:00 P:24 SP:FF CYC:303 SL:12
C7AD  F0 F9     BEQ $C7A8                       A:00 X:FF Y:00 P:26 SP:FF CYC:309 SL:12
C7A8  AD 02 20  LDA $2002 = FF                  A:00 X:FF Y:00 P:26 SP:FF CYC:318 SL:12
C7AB  29 80     AND #$80                        A:10 X:FF Y:00 P:24 SP:FF CYC:330 SL:12
C7AD  F0 F9     BEQ $C7A8                       A:00 X:FF Y:00 P:26 SP:FF CYC:336 SL:12
C7A8  AD 02 20  LDA $2002 = FF                  A:00 X:FF Y:00 P:26 SP:FF CYC:  4 SL:13
C7AB  29 80     AND #$80                        A:10 X:FF Y:00 P:24 SP:FF CYC: 16 SL:13
C7AD  F0 F9     BEQ $C7A8                       A:00 X:FF Y:00 P:26 SP:FF CYC: 22 SL:13
C7A8  AD 02 20  LDA $2002 = FF                  A:00 X:FF Y:00 P:26 SP:FF CYC: 31 SL:13
C7AB  29 80     AND #$80                        A:10 X:FF Y:00 P:24 SP:FF CYC: 43 SL:13
C7AD  F0 F9     BEQ $C7A8                       A:00 X:FF Y:00 P:26 SP:FF CYC: 49 SL:13
C7A8  AD 02 20  LDA $2002 = FF                  A:00 X:FF Y:00 P:26 SP:FF CYC: 58 SL:13
C7AB  29 80     AND #$80                        A:10 X:FF Y:00 P:24 SP:FF CYC: 70 SL:13
C7AD  F0 F9     BEQ $C7A8                       A:00 X:FF Y:00 P:26 SP:FF CYC: 76 SL:13
C7A8  AD 02 20  LDA $2002 = FF                  A:00 X:FF Y:00 P:26 SP:FF CYC: 85 SL:13
C7AB  29 80     AND #$80                        A:10 X:FF Y:00 P:24 SP:FF CYC: 97 SL:13
C7AD  F0 F9     BEQ $C7A8                       A:00 X:FF Y:00 P:26 SP:FF CYC:103 SL:13
C7A8  AD 02 20  LDA $2002 = FF                  A:00 X:FF Y:00 P:26 SP:FF CYC:112 SL:13
C7AB  29 80     AND #$80                        A:10 X:FF Y:00 P:24 SP:FF CYC:124 SL:13
C7AD  F0 F9     BEQ $C7A8                       A:00 X:FF Y:00 P:26 SP:FF CYC:130 SL:13
C7A8  AD 02 20  LDA $2002 = FF                  A:00 X:FF Y:00 P:26 SP:FF CYC:139 SL:13
C7AB  29 80     AND #$80                        A:10 X:FF Y:00 P:24 SP:FF CYC:151 SL:13
C7AD  F0 F9     BEQ $C7A8                       A:00 X:FF Y:00 P:26 SP:FF CYC:157 SL:13
C7A8  AD 02 20  LDA $2002 = FF                  A:00 X:FF Y:00 P:26 SP:FF CYC:166 SL:13
C7AB  29 80     AND #$80                        A:10 X:FF Y:00 P:24 SP:FF CYC:178 SL:13
C7AD  F0 F9     BEQ $C7A8                       A:00 X:FF Y:00 P:26 SP:FF CYC:184 SL:13
C7A8  AD 02 20  LDA $2002 = FF                  A:00 X:FF Y:00 P:26 SP:FF CYC:193 SL:13
C7AB  29 80     AND #$80                        A:10 X:FF Y:00 P:24 SP:FF CYC:205 SL:13
C7AD  F0 F9     BEQ $C7A8                       A:00 X:FF Y:00 P:26 SP:FF CYC:211 SL:13
C7A8  AD 02 20  LDA $2002 = FF                  A:00 X:FF Y:00 P:26 SP:FF CYC:220 SL:13
C7AB  29 80     AND #$80                        A:10 X:FF Y:00 P:24 SP:FF CYC:232 SL:13
C7AD  F0 F9     BEQ $C7A8                       A:00 X:FF Y:00 P:26 SP:FF CYC:238 SL:13
C7A8  AD 02 20  LDA $2002 = FF                  A:00 X:FF Y:00 P:26 SP:FF CYC:247 SL:13
C7AB  29 80     AND #$80                        A:10 X:FF Y:00 P:24 SP:FF CYC:259 SL:13
C7AD  F0 F9     BEQ $C7A8                       A:00 X:FF Y:00 P:26 SP:FF CYC:265 SL:13
C7A8  AD 02 20  LDA $2002 = FF                  A:00 X:FF Y:00 P:26 SP:FF CYC:274 SL:13
C7AB  29 80     AND #$80                        A:10 X:FF Y:00 P:24 SP:FF CYC:286 SL:13
C7AD  F0 F9     BEQ $C7A8                       A:00 X:FF Y:00 P:26 SP:FF CYC:292 SL:13
C7A8  AD 02 20  LDA $2002 = FF                  A:00 X:FF Y:00 P:26 SP:FF CYC:301 SL:13
C7AB  29 80     AND #$80                        A:10 X:FF Y:00 P:24 SP:FF CYC:313 SL:13
C7AD  F0 F9     BEQ $C7A8                       A:00 X:FF Y:00 P:26 SP:FF CYC:319 SL:13
C7A8  AD 02 20  LDA $2002 = FF                  A:00 X:FF Y:00 P:26 SP:FF CYC:328 SL:13
C7AB  29 80     AND #$80                        A:10 X:FF Y:00 P:24 SP:FF CYC:340 SL:13
C7AD  F0 F9     BEQ $C7A8                       A:00 X:FF Y:00 P:26 SP:FF CYC:  5 SL:14
C7A8  AD 02 20  LDA $2002 = FF                  A:00 X:FF Y:00 P:26 SP:FF CYC: 14 SL:14
C7AB  29 80     AND #$80                        A:10 X:FF Y:00 P:24 SP:FF CYC: 26 SL:14
C7AD  F0 F9     BEQ $C7A8                       A:00 X:FF Y:00 P:26 SP:FF CYC: 32 SL:14
C7A8  AD 02 20  LDA $2002 = FF                  A:00 X:FF Y:00 P:26 SP:FF CYC: 41 SL:14
C7AB  29 80     AND #$80                        A:10 X:FF Y:00 P:24 SP:FF CYC: 53 SL:14
C7AD  F0 F9     BEQ $C7A8                       A:00 X:FF Y:00 P:26 SP:FF CYC: 59 SL:14
C7A8  AD 02 20  LDA $2002 = FF                  A:00 X:FF Y:00 P:26 SP:FF CYC: 68 SL:14
C7AB  29 80     AND #$80                        A:10 X:FF Y:00 P:24 SP:FF CYC: 80 SL:14
C7AD  F0 F9     BEQ $C7A8                       A:00 X:FF Y:00 P:26 SP:FF CYC: 86 SL:14
C7A8  AD 02 20  LDA $2002 = FF                  A:00 X:FF Y:00 P:26 SP:FF CYC: 95 SL:14
C7AB  29 80     AND #$80                        A:10 X:FF Y:00 P:24 SP:FF CYC:107 SL:14
C7AD  F0 F9     BEQ $C7A8                       A:00 X:FF Y:00 P:26 SP:FF CYC:113 SL:14
C7A8  AD 02 20  LDA $2002 = FF                  A:00 X:FF Y:00 P:26 SP:FF CYC:122 SL:14
C7AB  29 80     AND #$80                        A:10 X:FF Y:00 P:24 SP:FF CYC:134 SL:14
C7AD  F0 F9     BEQ $C7A8                       A:00 X:FF Y:00 P:26 SP:FF CYC:140 SL:14
C7A8  AD 02 20  LDA $2002 = FF                  A:00 X:FF Y:00 P:26 SP:FF CYC:149 SL:14
C7AB  29 80     AND #$80                        A:10 X:FF Y:00 P:24 SP:FF CYC:161 SL:14
C7AD  F0 F9     BEQ $C7A8                       A:00 X:FF Y:00 P:26 SP:FF CYC:167 SL:14
C7A8  AD 02 20  LDA $2002 = FF                  A:00 X:FF Y:00 P:26 SP:FF CYC:176 SL:14
C7AB  29 80     AND #$80                        A:10 X:FF Y:00 P:24 SP:FF CYC:188 SL:14
C7AD  F0 F9     BEQ $C7A8                       A:00 X:FF Y:00 P:26 SP:FF CYC:194 SL:14
C7A8  AD 02 20  LDA $2002 = FF                  A:00 X:FF Y:00 P:26 SP:FF CYC:203 SL:14
C7AB  29 80     AND #$80                        A:10 X:FF Y:00 P:24 SP:FF CYC:215 SL:14
C7AD  F0 F9     BEQ $C7A8                       A:00 X:FF Y:00 P:26 SP:FF CYC:221 SL:14
C7A8  AD 02 20  LDA $2002 = FF                  A:00 X:FF Y:00 P:26 SP:FF CYC:230 SL:14
C7AB  29 80     AND #$80                        A:10 X:FF Y:00 P:24 SP:FF CYC:242 SL:14
C7AD  F0 F9     BEQ $C7A8                       A:00 X:FF Y:00 P:26 SP:FF CYC:248 SL:14
C7A8  AD 02 20  LDA $2002 = FF                  A:00 X:FF Y:00 P:26 SP:FF CYC:257 SL:14
C7AB  29 80     AND #$80                        A:10 X:FF Y:00 P:24 SP:FF CYC:269 SL:14
C7AD  F0 F9     BEQ $C7A8                       A:00 X:FF Y:00 P:26 SP:FF CYC:275 SL:14
C7A8  AD 02 20  LDA $2002 = FF                  A:00 X:FF Y:00 P:26 SP:FF CYC:284 SL:14
C7AB  29 80     AND #$80                        A:10 X:FF Y:00 P:24 SP:FF CYC:296 SL:14
C7AD  F0 F9     BEQ $C7A8                       A:00 X:FF Y:00 P:26 SP:FF CYC:302 SL:14
C7A8  AD 02 20  LDA $2002 = FF                  A:00 X:FF Y:00 P:26 SP:FF CYC:311 SL:14
C7AB  29 80     AND #$80                        A:10 X:FF Y:00 P:24 SP:FF CYC:323 SL:14
C7AD  F0 F9     BEQ $C7A8                       A:00 X:FF Y:00 P:26 SP:FF CYC:329 SL:14
C7A8  AD 02 20  LDA $2002 = FF                  A:00 X:FF Y:00 P:26 SP:FF CYC:338 SL:14
C7AB  29 80     AND #$80                        A:10 X:FF Y:00 P:24 SP:FF CYC:  9 SL:15
C7AD  F0 F9     BEQ $C7A8                       A:00 X:FF Y:00 P:26 SP:FF CYC: 15 SL:15
C7A8  AD 02 20  LDA $2002 = FF                  A:00 X:FF Y:00 P:26 SP:FF CYC: 24 SL:15
C7AB  29 80     AND #$80                        A:10 X:FF Y:00 P:24 SP:FF CYC: 36 SL:15
C7AD  F0 F9     BEQ $C7A8                       A:00 X:FF Y:00 P:26 SP:FF CYC: 42 SL:15
C7A8  AD 02 20  LDA $2002 = FF                  A:00 X:FF Y:00 P:26 SP:FF CYC: 51 SL:15
C7AB  29 80     AND #$80                        A:10 X:FF Y:00 P:24 SP:FF CYC: 63 SL:15
C7AD  F0 F9     BEQ $C7A8                       A:00 X:FF Y:00 P:26 SP:FF CYC: 69 SL:15
C7A8  AD 02 20  LDA $2002 = FF                  A:00 X:FF Y:00 P:26 SP:FF CYC: 78 SL:15
C7AB  29 80     AND #$80                        A:10 X:FF Y:00 P:24 SP:FF CYC: 90 SL:15
C7AD  F0 F9     BEQ $C7A8                       A:00 X:FF Y:00 P:26 SP:FF CYC: 96 SL:15
C7A8  AD 02 20  LDA $2002 = FF                  A:00 X:FF Y:00 P:26 SP:FF CYC:105 SL:15
C7AB  29 80     AND #$80                        A:10 X:FF Y:00 P:24 SP:FF CYC:117 SL:15
C7AD  F0 F9     BEQ $C7A8                       A:00 X:FF Y:00 P:26 SP:FF CYC:123 SL:15
C7A8  AD 02 20  LDA $2002 = FF                  A:00 X:FF Y:00 P:26 SP:FF CYC:132 SL:15
C7AB  29 80     AND #$80                        A:10 X:FF Y:00 P:24 SP:FF CYC:144 SL:15
C7AD  F0 F9     BEQ $C7A8                       A:00 X:FF Y:00 P:26 SP:FF CYC:150 SL:15
C7A8  AD 02 20  LDA $2002 = FF                  A:00 X:FF Y:00 P:26 SP:FF CYC:159 SL:15
C7AB  29 80     AND #$80                        A:10 X:FF Y:00 P:24 SP:FF CYC:171 SL:15
C7AD  F0 F9     BEQ $C7A8                       A:00 X:FF Y:00 P:26 SP:FF CYC:177 SL:15
C7A8  AD 02 20  LDA $2002 = FF                  A:00 X:FF Y:00 P:26 SP:FF CYC:186 SL:15
C7AB  29 80     AND #$80                        A:10 X:FF Y:00 P:24 SP:FF CYC:198 SL:15
C7AD  F0 F9     BEQ $C7A8                       A:00 X:FF Y:00 P:26 SP:FF CYC:204 SL:15
C7A8  AD 02 20  LDA $2002 = FF                  A:00 X:FF Y:00 P:26 SP:FF CYC:213 SL:15
C7AB  29 80     AND #$80                        A:10 X:FF Y:00 P:24 SP:FF CYC:225 SL:15
C7AD  F0 F9     BEQ $C7A8                       A:00 X:FF Y:00 P:26 SP:FF CYC:231 SL:15
C7A8  AD 02 20  LDA $2002 = FF                  A:00 X:FF Y:00 P:26 SP:FF CYC:240 SL:15
C7AB  29 80     AND #$80                        A:10 X:FF Y:00 P:24 SP:FF CYC:252 SL:15
C7AD  F0 F9     BEQ $C7A8                       A:00 X:FF Y:00 P:26 SP:FF CYC:258 SL:15
C7A8  AD 02 20  LDA $2002 = FF                  A:00 X:FF Y:00 P:26 SP:FF CYC:267 SL:15
C7AB  29 80     AND #$80                        A:10 X:FF Y:00 P:24 SP:FF CYC:279 SL:15
C7AD  F0 F9     BEQ $C7A8                       A:00 X:FF Y:00 P:26 SP:FF CYC:285 SL:15
C7A8  AD 02 20  LDA $2002 = FF                  A:00 X:FF Y:00 P:26 SP:FF CYC:294 SL:15
C7AB  29 80     AND #$80                        A:10 X:FF Y:00 P:24 SP:FF CYC:306 SL:15
C7AD  F0 F9     BEQ $C7A8                       A:00 X:FF Y:00 P:26 SP:FF CYC:312 SL:15
C7A8  AD 02 20  LDA $2002 = FF                  A:00 X:FF Y:00 P:26 SP:FF CYC:321 SL:15
C7AB  29 80     AND #$80                        A:10 X:FF Y:00 P:24 SP:FF CYC:333 SL:15
C7AD  F0 F9     BEQ $C7A8                       A:00 X:FF Y:00 P:26 SP:FF CYC:339 SL:15
C7A8  AD 02 20  LDA $2002 = FF                  A:00 X:FF Y:00 P:26 SP:FF CYC:  7 SL:16
C7AB  29 80     AND #$80                        A:10 X:FF Y:00 P:24 SP:FF CYC: 19 SL:16
C7AD  F0 F9     BEQ $C7A8                       A:00 X:FF Y:00 P:26 SP:FF CYC: 25 SL:16
C7A8  AD 02 20  LDA $2002 = FF                  A:00 X:FF Y:00 P:26 SP:FF CYC: 34 SL:16
C7AB  29 80     AND #$80                        A:10 X:FF Y:00 P:24 SP:FF CYC: 46 SL:16
C7AD  F0 F9     BEQ $C7A8                       A:00 X:FF Y:00 P:26 SP:FF CYC: 52 SL:16
C7A8  AD 02 20  LDA $2002 = FF                  A:00 X:FF Y:00 P:26 SP:FF CYC: 61 SL:16
C7AB  29 80     AND #$80                        A:10 X:FF Y:00 P:24 SP:FF CYC: 73 SL:16
C7AD  F0 F9     BEQ $C7A8                       A:00 X:FF Y:00 P:26 SP:FF CYC: 79 SL:16
C7A8  AD 02 20  LDA $2002 = FF                  A:00 X:FF Y:00 P:26 SP:FF CYC: 88 SL:16
C7AB  29 80     AND #$80                        A:10 X:FF Y:00 P:24 SP:FF CYC:100 SL:16
C7AD  F0 F9     BEQ $C7A8                       A:00 X:FF Y:00 P:26 SP:FF CYC:106 SL:16
C7A8  AD 02 20  LDA $2002 = FF                  A:00 X:FF Y:00 P:26 SP:FF CYC:115 SL:16
C7AB  29 80     AND #$80                        A:10 X:FF Y:00 P:24 SP:FF CYC:127 SL:16
C7AD  F0 F9     BEQ $C7A8                       A:00 X:FF Y:00 P:26 SP:FF CYC:133 SL:16
C7A8  AD 02 20  LDA $2002 = FF                  A:00 X:FF Y:00 P:26 SP:FF CYC:142 SL:16
C7AB  29 80     AND #$80                        A:10 X:FF Y:00 P:24 SP:FF CYC:154 SL:16
C7AD  F0 F9     BEQ $C7A8                       A:00 X:FF Y:00 P:26 SP:FF CYC:160 SL:16
C7A8  AD 02 20  LDA $2002 = FF                  A:00 X:FF Y:00 P:26 SP:FF CYC:169 SL:16
C7AB  29 80     AND #$80                        A:10 X:FF Y:00 P:24 SP:FF CYC:181 SL:16
C7AD  F0 F9     BEQ $C7A8                       A:00 X:FF Y:00 P:26 SP:FF CYC:187 SL:16
C7A8  AD 02 20  LDA $2002 = FF                  A:00 X:FF Y:00 P:26 SP:FF CYC:196 SL:16
C7AB  29 80     AND #$80                        A:10 X:FF Y:00 P:24 SP:FF CYC:208 SL:16
C7AD  F0 F9     BEQ $C7A8                       A:00 X:FF Y:00 P:26 SP:FF CYC:214 SL:16
C7A8  AD 02 20  LDA $2002 = FF                  A:00 X:FF Y:00 P:26 SP:FF CYC:223 SL:16
C7AB  29 80     AND #$80                        A:10 X:FF Y:00 P:24 SP:FF CYC:235 SL:16
C7AD  F0 F9     BEQ $C7A8                       A:00 X:FF Y:00 P:26 SP:FF CYC:241 SL:16
C7A8  AD 02 20  LDA $2002 = FF                  A:00 X:FF Y:00 P:26 SP:FF CYC:250 SL:16
C7AB  29 80     AND #$80                        A:10 X:FF Y:00 P:24 SP:FF CYC:262 SL:16
C7AD  F0 F9     BEQ $C7A8                       A:00 X:FF Y:00 P:26 SP:FF CYC:268 SL:16
C7A8  AD 02 20  LDA $2002 = FF                  A:00 X:FF Y:00 P:26 SP:FF CYC:277 SL:16
C7AB  29 80     AND #$80                        A:10 X:FF Y:00 P:24 SP:FF CYC:289 SL:16
C7AD  F0 F9     BEQ $C7A8                       A:00 X:FF Y:00 P:26 SP:FF CYC:295 SL:16
C7A8  AD 02 20  LDA $2002 = FF                  A:00 X:FF Y:00 P:26 SP:FF CYC:304 SL:16
C7AB  29 80     AND #$80                        A:10 X:FF Y:00 P:24 SP:FF CYC:316 SL:16
C7AD  F0 F9     BEQ $C7A8                       A:00 X:FF Y:00 P:26 SP:FF CYC:322 SL:16
C7A8  AD 02 20  LDA $2002 = FF                  A:00 X:FF Y:00 P:26 SP:FF CYC:331 SL:16
C7AB  29 80     AND #$80                        A:10 X:FF Y:00 P:24 SP:FF CYC:  2 SL:17
C7AD  F0 F9     BEQ $C7A8                       A:00 X:FF Y:00 P:26 SP:FF CYC:  8 SL:17
C7A8  AD 02 20  LDA $2002 = FF                  A:00 X:FF Y:00 P:26 SP:FF CYC: 17 SL:17
C7AB  29 80     AND #$80                        A:10 X:FF Y:00 P:24 SP:FF CYC: 29 SL:17
C7AD  F0 F9     BEQ $C7A8                       A:00 X:FF Y:00 P:26 SP:FF CYC: 35 SL:17
C7A8  AD 02 20  LDA $2002 = FF                  A:00 X:FF Y:00 P:26 SP:FF CYC: 44 SL:17
C7AB  29 80     AND #$80                        A:10 X:FF Y:00 P:24 SP:FF CYC: 56 SL:17
C7AD  F0 F9     BEQ $C7A8                       A:00 X:FF Y:00 P:26 SP:FF CYC: 62 SL:17
C7A8  AD 02 20  LDA $2002 = FF                  A:00 X:FF Y:00 P:26 SP:FF CYC: 71 SL:17
C7AB  29 80     AND #$80                        A:10 X:FF Y:00 P:24 SP:FF CYC: 83 SL:17
C7AD  F0 F9     BEQ $C7A8                       A:00 X:FF Y:00 P:26 SP:FF CYC: 89 SL:17
C7A8  AD 02 20  LDA $2002 = FF                  A:00 X:FF Y:00 P:26 SP:FF CYC: 98 SL:17
C7AB  29 80     AND #$80                        A:10 X:FF Y:00 P:24 SP:FF CYC:110 SL:17
C7AD  F0 F9     BEQ $C7A8                       A:00 X:FF Y:00 P:26 SP:FF CYC:116 SL:17
C7A8  AD 02 20  LDA $2002 = FF                  A:00 X:FF Y:00 P:26 SP:FF CYC:125 SL:17
C7AB  29 80     AND #$80                        A:10 X:FF Y:00 P:24 SP:FF CYC:137 SL:17
C7AD  F0 F9     BEQ $C7A8                       A:00 X:FF Y:00 P:26 SP:FF CYC:143 SL:17
C7A8  AD 02 20  LDA $2002 = FF                  A:00 X:FF Y:00 P:26 SP:FF CYC:152 SL:17
C7AB  29 80     AND #$80                        A:10 X:FF Y:00 P:24 SP:FF CYC:164 SL:17
C7AD  F0 F9     BEQ $C7A8                       A:00 X:FF Y:00 P:26 SP:FF CYC:170 SL:17
C7A8  AD 02 20  LDA $2002 = FF                  A:00 X:FF Y:00 P:26 SP:FF CYC:179 SL:17
C7AB  29 80     AND #$80                        A:10 X:FF Y:00 P:24 SP:FF CYC:191 SL:17
C7AD  F0 F9     BEQ $C7A8                       A:00 X:FF Y:00 P:26 SP:FF CYC:197 SL:17
C7A8  AD 02 20  LDA $2002 = FF                  A:00 X:FF Y:00 P:26 SP:FF CYC:206 SL:17
C7AB  29 80     AND #$80                        A:10 X:FF Y:00 P:24 SP:FF CYC:218 SL:17
C7AD  F0 F9     BEQ $C7A8                       A:00 X:FF Y:00 P:26 SP:FF CYC:224 SL:17
C7A8  AD 02 20  LDA $2002 = FF                  A:00 X:FF Y:00 P:26 SP:FF CYC:233 SL:17
C7AB  29 80     AND #$80                        A:10 X:FF Y:00 P:24 SP:FF CYC:245 SL:17
C7AD  F0 F9     BEQ $C7A8                       A:00 X:FF Y:00 P:26 SP:FF CYC:251 SL:17
C7A8  AD 02 20  LDA $2002 = FF                  A:00 X:FF Y:00 P:26 SP:FF CYC:260 SL:17
C7AB  29 80     AND #$80                        A:10 X:FF Y:00 P:24 SP:FF CYC:272 SL:17
C7AD  F0 F9     BEQ $C7A8                       A:00 X:FF Y:00 P:26 SP:FF CYC:278 SL:17
C7A8  AD 02 20  LDA $2002 = FF                  A:00 X:FF Y:00 P:26 SP:FF CYC:287 SL:17
C7AB  29 80     AND #$80                        A:10 X:FF Y:00 P:24 SP:FF CYC:299 SL:17
C7AD  F0 F9     BEQ $C7A8                       A:00 X:FF Y:00 P:26 SP:FF CYC:305 SL:17
C7A8  AD 02 20  LDA $2002 = FF                  A:00 X:FF Y:00 P:26 SP:FF CYC:314 SL:17
C7AB  29 80     AND #$80                        A:10 X:FF Y:00 P:24 SP:FF CYC:326 SL:17
C7AD  F0 F9     BEQ $C7A8                       A:00 X:FF Y:00 P:26 SP:FF CYC:332 SL:17
C7A8  AD 02 20  LDA $2002 = FF                  A:00 X:FF Y:00 P:26 SP:FF CYC:  0 SL:18
C7AB  29 80     AND #$80                        A:10 X:FF Y:00 P:24 SP:FF CYC: 12 SL:18
C7AD  F0 F9     BEQ $C7A8                       A:00 X:FF Y:00 P:26 SP:FF CYC: 18 SL:18
C7A8  AD 02 20  LDA $2002 = FF                  A:00 X:FF Y:00 P:26 SP:FF CYC: 27 SL:18
C7AB  29 80     AND #$80                        A:10 X:FF Y:00 P:24 SP:FF CYC: 39 SL:18
C7AD  F0 F9     BEQ $C7A8                       A:00 X:FF Y:00 P:26 SP:FF CYC: 45 SL:18
C7A8  AD 02 20  LDA $2002 = FF                  A:00 X:FF Y:00 P:26 SP:FF CYC: 54 SL:18
C7AB  29 80     AND #$80                        A:10 X:FF Y:00 P:24 SP:FF CYC: 66 SL:18
C7AD  F0 F9     BEQ $C7A8                       A:00 X:FF Y:00 P:26 SP:FF CYC: 72 SL:18
C7A8  AD 02 20  LDA $2002 = FF                  A:00 X:FF Y:00 P:26 SP:FF CYC: 81 SL:18
C7AB  29 80     AND #$80                        A:10 X:FF Y:00 P:24 SP:FF CYC: 93 SL:18
C7AD  F0 F9     BEQ $C7A8                       A:00 X:FF Y:00 P:26 SP:FF CYC: 99 SL:18
C7A8  AD 02 20  LDA $2002 = FF                  A:00 X:FF Y:00 P:26 SP:FF CYC:108 SL:18
C7AB  29 80     AND #$80                        A:10 X:FF Y:00 P:24 SP:FF CYC:120 SL:18
C7AD  F0 F9     BEQ $C7A8                       A:00 X:FF Y:00 P:26 SP:FF CYC:126 SL:18
C7A8  AD 02 20  LDA $2002 = FF                  A:00 X:FF Y:00 P:26 SP:FF CYC:135 SL:18
C7AB  29 80     AND #$80                        A:10 X:FF Y:00 P:24 SP:FF CYC:147 SL:18
C7AD  F0 F9     BEQ $C7A8                       A:00 X:FF Y:00 P:26 SP:FF CYC:153 SL:18
C7A8  AD 02 20  LDA $2002 = FF                  A:00 X:FF Y:00 P:26 SP:FF CYC:162 SL:18
C7AB  29 80     AND #$80                        A:10 X:FF Y:00 P:24 SP:FF CYC:174 SL:18
C7AD  F0 F9     BEQ $C7A8                       A:00 X:FF Y:00 P:26 SP:FF CYC:180 SL:18
C7A8  AD 02 20  LDA $2002 = FF                  A:00 X:FF Y:00 P:26 SP:FF CYC:189 SL:18
C7AB  29 80     AND #$80                        A:10 X:FF Y:00 P:24 SP:FF CYC:201 SL:18
C7AD  F0 F9     BEQ $C7A8                       A:00 X:FF Y:00 P:26 SP:FF CYC:207 SL:18
C7A8  AD 02 20  LDA $2002 = FF                  A:00 X:FF Y:00 P:26 SP:FF CYC:216 SL:18
C7AB  29 80     AND #$80                        A:10 X:FF Y:00 P:24 SP:FF CYC:228 SL:18
C7AD  F0 F9     BEQ $C7A8                       A:00 X:FF Y:00 P:26 SP:FF CYC:234 SL:18
C7A8  AD 02 20  LDA $2002 = FF                  A:00 X:FF Y:00 P:26 SP:FF CYC:243 SL:18
C7AB  29 80     AND #$80                        A:10 X:FF Y:00 P:24 SP:FF CYC:255 SL:18
C7AD  F0 F9     BEQ $C7A8                       A:00 X:FF Y:00 P:26 SP:FF CYC:261 SL:18
C7A8  AD 02 20  LDA $2002 = FF                  A:00 X:FF Y:00 P:26 SP:FF CYC:270 SL:18
C7AB  29 80     AND #$80                        A:10 X:FF Y:00 P:24 SP:FF CYC:282 SL:18
C7AD  F0 F9     BEQ $C7A8                       A:00 X:FF Y:00 P:26 SP:FF CYC:288 SL:18
C7A8  AD 02 20  LDA $2002 = FF                  A:00 X:FF Y:00 P:26 SP:FF CYC:297 SL:18
C7AB  29 80     AND #$80                        A:10 X:FF Y:00 P:24 SP:FF CYC:309 SL:18
C7AD  F0 F9     BEQ $C7A8                       A:00 X:FF Y:00 P:26 SP:FF CYC:315 SL:18
C7A8  AD 02 20  LDA $2002 = FF                  A:00 X:FF Y:00 P:26 SP:FF CYC:324 SL:18
C7AB  29 80     AND #$80                        A:10 X:FF Y:00 P:24 SP:FF CYC:336 SL:18
C7AD  F0 F9     BEQ $C7A8                       A:00 X:FF Y:00 P:26 SP:FF CYC:  1 SL:19
C7A8  AD 02 20  LDA $2002 = FF                  A:00 X:FF Y:00 P:26 SP:FF CYC: 10 SL:19
C7AB  29 80     AND #$80                        A:10 X:FF Y:00 P:24 SP:FF CYC: 22 SL:19
C7AD  F0 F9     BEQ $C7A8                       A:00 X:FF Y:00 P:26 SP:FF CYC: 28 SL:19
C7A8  AD 02 20  LDA $2002 = FF                  A:00 X:FF Y:00 P:26 SP:FF CYC: 37 SL:19
C7AB  29 80     AND #$80                        A:10 X:FF Y:00 P:24 SP:FF CYC: 49 SL:19
C7AD  F0 F9     BEQ $C7A8                       A:00 X:FF Y:00 P:26 SP:FF CYC: 55 SL:19
C7A8  AD 02 20  LDA $2002 = FF                  A:00 X:FF Y:00 P:26 SP:FF CYC: 64 SL:19
C7AB  29 80     AND #$80                        A:10 X:FF Y:00 P:24 SP:FF CYC: 76 SL:19
C7AD  F0 F9     BEQ $C7A8                       A:00 X:FF Y:00 P:26 SP:FF CYC: 82 SL:19
C7A8  AD 02 20  LDA $2002 = FF                  A:00 X:FF Y:00 P:26 SP:FF CYC: 91 SL:19
C7AB  29 80     AND #$80                        A:10 X:FF Y:00 P:24 SP:FF CYC:103 SL:19
C7AD  F0 F9     BEQ $C7A8                       A:00 X:FF Y:00 P:26 SP:FF CYC:109 SL:19
C7A8  AD 02 20  LDA $2002 = FF                  A:00 X:FF Y:00 P:26 SP:FF CYC:118 SL:19
C7AB  29 80     AND #$80                        A:10 X:FF Y:00 P:24 SP:FF CYC:130 SL:19
C7AD  F0 F9     BEQ $C7A8                       A:00 X:FF Y:00 P:26 SP:FF CYC:136 SL:19
C7A8  AD 02 20  LDA $2002 = FF                  A:00 X:FF Y:00 P:26 SP:FF CYC:145 SL:19
C7AB  29 80     AND #$80                        A:10 X:FF Y:00 P:24 SP:FF CYC:157 SL:19
C7AD  F0 F9     BEQ $C7A8                       A:00 X:FF Y:00 P:26 SP:FF CYC:163 SL:19
C7A8  AD 02 20  LDA $2002 = FF                  A:00 X:FF Y:00 P:26 SP:FF CYC:172 SL:19
C7AB  29 80     AND #$80                        A:10 X:FF Y:00 P:24 SP:FF CYC:184 SL:19
C7AD  F0 F9     BEQ $C7A8                       A:00 X:FF Y:00 P:26 SP:FF CYC:190 SL:19
C7A8  AD 02 20  LDA $2002 = FF                  A:00 X:FF Y:00 P:26 SP:FF CYC:199 SL:19
C7AB  29 80     AND #$80                        A:10 X:FF Y:00 P:24 SP:FF CYC:211 SL:19
C7AD  F0 F9     BEQ $C7A8                       A:00 X:FF Y:00 P:26 SP:FF CYC:217 SL:19
C7A8  AD 02 20  LDA $2002 = FF                  A:00 X:FF Y:00 P:26 SP:FF CYC:226 SL:19
C7AB  29 80     AND #$80                        A:10 X:FF Y:00 P:24 SP:FF CYC:238 SL:19
C7AD  F0 F9     BEQ $C7A8                       A:00 X:FF Y:00 P:26 SP:FF CYC:244 SL:19
C7A8  AD 02 20  LDA $2002 = FF                  A:00 X:FF Y:00 P:26 SP:FF CYC:253 SL:19
C7AB  29 80     AND #$80                        A:10 X:FF Y:00 P:24 SP:FF CYC:265 SL:19
C7AD  F0 F9     BEQ $C7A8                       A:00 X:FF Y:00 P:26 SP:FF CYC:271 SL:19
C7A8  AD 02 20  LDA $2002 = FF                  A:00 X:FF Y:00 P:26 SP:FF CYC:280 SL:19
C7AB  29 80     AND #$80                        A:10 X:FF Y:00 P:24 SP:FF CYC:292 SL:19
C7AD  F0 F9     BEQ $C7A8                       A:00 X:FF Y:00 P:26 SP:FF CYC:298 SL:19
C7A8  AD 02 20  LDA $2002 = FF                  A:00 X:FF Y:00 P:26 SP:FF CYC:307 SL:19
C7AB  29 80     AND #$80                        A:10 X:FF Y:00 P:24 SP:FF CYC:319 SL:19
C7AD  F0 F9     BEQ $C7A8                       A:00 X:FF Y:00 P:26 SP:FF CYC:325 SL:19
C7A8  AD 02 20  LDA $2002 = FF                  A:00 X:FF Y:00 P:26 SP:FF CYC:334 SL:19
C7AB  29 80     AND #$80                        A:10 X:FF Y:00 P:24 SP:FF CYC:  5 SL:20
C7AD  F0 F9     BEQ $C7A8                       A:00 X:FF Y:00 P:26 SP:FF CYC: 11 SL:20
C7A8  AD 02 20  LDA $2002 = FF                  A:00 X:FF Y:00 P:26 SP:FF CYC: 20 SL:20
C7AB  29 80     AND #$80                        A:10 X:FF Y:00 P:24 SP:FF CYC: 32 SL:20
C7AD  F0 F9     BEQ $C7A8                       A:00 X:FF Y:00 P:26 SP:FF CYC: 38 SL:20
C7A8  AD 02 20  LDA $2002 = FF                  A:00 X:FF Y:00 P:26 SP:FF CYC: 47 SL:20
C7AB  29 80     AND #$80                        A:10 X:FF Y:00 P:24 SP:FF CYC: 59 SL:20
C7AD  F0 F9     BEQ $C7A8                       A:00 X:FF Y:00 P:26 SP:FF CYC: 65 SL:20
C7A8  AD 02 20  LDA $2002 = FF                  A:00 X:FF Y:00 P:26 SP:FF CYC: 74 SL:20
C7AB  29 80     AND #$80                        A:10 X:FF Y:00 P:24 SP:FF CYC: 86 SL:20
C7AD  F0 F9     BEQ $C7A8                       A:00 X:FF Y:00 P:26 SP:FF CYC: 92 SL:20
C7A8  AD 02 20  LDA $2002 = FF                  A:00 X:FF Y:00 P:26 SP:FF CYC:101 SL:20
C7AB  29 80     AND #$80                        A:10 X:FF Y:00 P:24 SP:FF CYC:113 SL:20
C7AD  F0 F9     BEQ $C7A8                       A:00 X:FF Y:00 P:26 SP:FF CYC:119 SL:20
C7A8  AD 02 20  LDA $2002 = FF                  A:00 X:FF Y:00 P:26 SP:FF CYC:128 SL:20
C7AB  29 80     AND #$80                        A:10 X:FF Y:00 P:24 SP:FF CYC:140 SL:20
C7AD  F0 F9     BEQ $C7A8                       A:00 X:FF Y:00 P:26 SP:FF CYC:146 SL:20
C7A8  AD 02 20  LDA $2002 = FF                  A:00 X:FF Y:00 P:26 SP:FF CYC:155 SL:20
C7AB  29 80     AND #$80                        A:10 X:FF Y:00 P:24 SP:FF CYC:167 SL:20
C7AD  F0 F9     BEQ $C7A8                       A:00 X:FF Y:00 P:26 SP:FF CYC:173 SL:20
C7A8  AD 02 20  LDA $2002 = FF                  A:00 X:FF Y:00 P:26 SP:FF CYC:182 SL:20
C7AB  29 80     AND #$80                        A:10 X:FF Y:00 P:24 SP:FF CYC:194 SL:20
C7AD  F0 F9     BEQ $C7A8                       A:00 X:FF Y:00 P:26 SP:FF CYC:200 SL:20
C7A8  AD 02 20  LDA $2002 = FF                  A:00 X:FF Y:00 P:26 SP:FF CYC:209 SL:20
C7AB  29 80     AND #$80                        A:10 X:FF Y:00 P:24 SP:FF CYC:221 SL:20
C7AD  F0 F9     BEQ $C7A8                       A:00 X:FF Y:00 P:26 SP:FF CYC:227 SL:20
C7A8  AD 02 20  LDA $2002 = FF                  A:00 X:FF Y:00 P:26 SP:FF CYC:236 SL:20
C7AB  29 80     AND #$80                        A:10 X:FF Y:00 P:24 SP:FF CYC:248 SL:20
C7AD  F0 F9     BEQ $C7A8                       A:00 X:FF Y:00 P:26 SP:FF CYC:254 SL:20
C7A8  AD 02 20  LDA $2002 = FF                  A:00 X:FF Y:00 P:26 SP:FF CYC:263 SL:20
C7AB  29 80     AND #$80                        A:10 X:FF Y:00 P:24 SP:FF CYC:275 SL:20
C7AD  F0 F9     BEQ $C7A8                       A:00 X:FF Y:00 P:26 SP:FF CYC:281 SL:20
C7A8  AD 02 20  LDA $2002 = FF                  A:00 X:FF Y:00 P:26 SP:FF CYC:290 SL:20
C7AB  29 80     AND #$80                        A:10 X:FF Y:00 P:24 SP:FF CYC:302 SL:20
C7AD  F0 F9     BEQ $C7A8                       A:00 X:FF Y:00 P:26 SP:FF CYC:308 SL:20
C7A8  AD 02 20  LDA $2002 = FF                  A:00 X:FF Y:00 P:26 SP:FF CYC:317 SL:20
C7AB  29 80     AND #$80                        A:10 X:FF Y:00 P:24 SP:FF CYC:329 SL:20
C7AD  F0 F9     BEQ $C7A8                       A:00 X:FF Y:00 P:26 SP:FF CYC:335 SL:20
C7A8  AD 02 20  LDA $2002 = FF                  A:00 X:FF Y:00 P:26 SP:FF CYC:  3 SL:21
C7AB  29 80     AND #$80                        A:10 X:FF Y:00 P:24 SP:FF CYC: 15 SL:21
C7AD  F0 F9     BEQ $C7A8                       A:00 X:FF Y:00 P:26 SP:FF CYC: 21 SL:21
C7A8  AD 02 20  LDA $2002 = FF                  A:00 X:FF Y:00 P:26 SP:FF CYC: 30 SL:21
C7AB  29 80     AND #$80                        A:10 X:FF Y:00 P:24 SP:FF CYC: 42 SL:21
C7AD  F0 F9     BEQ $C7A8                       A:00 X:FF Y:00 P:26 SP:FF CYC: 48 SL:21
C7A8  AD 02 20  LDA $2002 = FF                  A:00 X:FF Y:00 P:26 SP:FF CYC: 57 SL:21
C7AB  29 80     AND #$80                        A:10 X:FF Y:00 P:24 SP:FF CYC: 69 SL:21
C7AD  F0 F9     BEQ $C7A8                       A:00 X:FF Y:00 P:26 SP:FF CYC: 75 SL:21
C7A8  AD 02 20  LDA $2002 = FF                  A:00 X:FF Y:00 P:26 SP:FF CYC: 84 SL:21
C7AB  29 80     AND #$80                        A:10 X:FF Y:00 P:24 SP:FF CYC: 96 SL:21
C7AD  F0 F9     BEQ $C7A8                       A:00 X:FF Y:00 P:26 SP:FF CYC:102 SL:21
C7A8  AD 02 20  LDA $2002 = FF                  A:00 X:FF Y:00 P:26 SP:FF CYC:111 SL:21
C7AB  29 80     AND #$80                        A:10 X:FF Y:00 P:24 SP:FF CYC:123 SL:21
C7AD  F0 F9     BEQ $C7A8                       A:00 X:FF Y:00 P:26 SP:FF CYC:129 SL:21
C7A8  AD 02 20  LDA $2002 = FF                  A:00 X:FF Y:00 P:26 SP:FF CYC:138 SL:21
C7AB  29 80     AND #$80                        A:10 X:FF Y:00 P:24 SP:FF CYC:150 SL:21
C7AD  F0 F9     BEQ $C7A8                       A:00 X:FF Y:00 P:26 SP:FF CYC:156 SL:21
C7A8  AD 02 20  LDA $2002 = FF                  A:00 X:FF Y:00 P:26 SP:FF CYC:165 SL:21
C7AB  29 80     AND #$80                        A:10 X:FF Y:00 P:24 SP:FF CYC:177 SL:21
C7AD  F0 F9     BEQ $C7A8                       A:00 X:FF Y:00 P:26 SP:FF CYC:183 SL:21
C7A8  AD 02 20  LDA $2002 = FF                  A:00 X:FF Y:00 P:26 SP:FF CYC:192 SL:21
C7AB  29 80     AND #$80                        A:10 X:FF Y:00 P:24 SP:FF CYC:204 SL:21
C7AD  F0 F9     BEQ $C7A8                       A:00 X:FF Y:00 P:26 SP:FF CYC:210 SL:21
C7A8  AD 02 20  LDA $2002 = FF                  A:00 X:FF Y:00 P:26 SP:FF CYC:219 SL:21
C7AB  29 80     AND #$80                        A:10 X:FF Y:00 P:24 SP:FF CYC:231 SL:21
C7AD  F0 F9     BEQ $C7A8                       A:00 X:FF Y:00 P:26 SP:FF CYC:237 SL:21
C7A8  AD 02 20  LDA $2002 = FF                  A:00 X:FF Y:00 P:26 SP:FF CYC:246 SL:21
C7AB  29 80     AND #$80                        A:10 X:FF Y:00 P:24 SP:FF CYC:258 SL:21
C7AD  F0 F9     BEQ $C7A8                       A:00 X:FF Y:00 P:26 SP:FF CYC:264 SL:21
C7A8  AD 02 20  LDA $2002 = FF                  A:00 X:FF Y:00 P:26 SP:FF CYC:273 SL:21
C7AB  29 80     AND #$80                        A:10 X:FF Y:00 P:24 SP:FF CYC:285 SL:21
C7AD  F0 F9     BEQ $C7A8                       A:00 X:FF Y:00 P:26 SP:FF CYC:291 SL:21
C7A8  AD 02 20  LDA $2002 = FF                  A:00 X:FF Y:00 P:26 SP:FF CYC:300 SL:21
C7AB  29 80     AND #$80                        A:10 X:FF Y:00 P:24 SP:FF CYC:312 SL:21
C7AD  F0 F9     BEQ $C7A8                       A:00 X:FF Y:00 P:26 SP:FF CYC:318 SL:21
C7A8  AD 02 20  LDA $2002 = FF                  A:00 X:FF Y:00 P:26 SP:FF CYC:327 SL:21
C7AB  29 80     AND #$80                        A:10 X:FF Y:00 P:24 SP:FF CYC:339 SL:21
C7AD  F0 F9     BEQ $C7A8                       A:00 X:FF Y:00 P:26 SP:FF CYC:  4 SL:22
C7A8  AD 02 20  LDA $2002 = FF                  A:00 X:FF Y:00 P:26 SP:FF CYC: 13 SL:22
C7AB  29 80     AND #$80                        A:10 X:FF Y:00 P:24 SP:FF CYC: 25 SL:22
C7AD  F0 F9     BEQ $C7A8                       A:00 X:FF Y:00 P:26 SP:FF CYC: 31 SL:22
C7A8  AD 02 20  LDA $2002 = FF                  A:00 X:FF Y:00 P:26 SP:FF CYC: 40 SL:22
C7AB  29 80     AND #$80                        A:10 X:FF Y:00 P:24 SP:FF CYC: 52 SL:22
C7AD  F0 F9     BEQ $C7A8                       A:00 X:FF Y:00 P:26 SP:FF CYC: 58 SL:22
C7A8  AD 02 20  LDA $2002 = FF                  A:00 X:FF Y:00 P:26 SP:FF CYC: 67 SL:22
C7AB  29 80     AND #$80                        A:10 X:FF Y:00 P:24 SP:FF CYC: 79 SL:22
C7AD  F0 F9     BEQ $C7A8                       A:00 X:FF Y:00 P:26 SP:FF CYC: 85 SL:22
C7A8  AD 02 20  LDA $2002 = FF                  A:00 X:FF Y:00 P:26 SP:FF CYC: 94 SL:22
C7AB  29 80     AND #$80                        A:10 X:FF Y:00 P:24 SP:FF CYC:106 SL:22
C7AD  F0 F9     BEQ $C7A8                       A:00 X:FF Y:00 P:26 SP:FF CYC:112 SL:22
C7A8  AD 02 20  LDA $2002 = FF                  A:00 X:FF Y:00 P:26 SP:FF CYC:121 SL:22
C7AB  29 80     AND #$80                        A:10 X:FF Y:00 P:24 SP:FF CYC:133 SL:22
C7AD  F0 F9     BEQ $C7A8                       A:00 X:FF Y:00 P:26 SP:FF CYC:139 SL:22
C7A8  AD 02 20  LDA $2002 = FF                  A:00 X:FF Y:00 P:26 SP:FF CYC:148 SL:22
C7AB  29 80     AND #$80                        A:10 X:FF Y:00 P:24 SP:FF CYC:160 SL:22
C7AD  F0 F9     BEQ $C7A8                       A:00 X:FF Y:00 P:26 SP:FF CYC:166 SL:22
C7A8  AD 02 20  LDA $2002 = FF                  A:00 X:FF Y:00 P:26 SP:FF CYC:175 SL:22
C7AB  29 80     AND #$80                        A:10 X:FF Y:00 P:24 SP:FF CYC:187 SL:22
C7AD  F0 F9     BEQ $C7A8                       A:00 X:FF Y:00 P:26 SP:FF CYC:193 SL:22
C7A8  AD 02 20  LDA $2002 = FF                  A:00 X:FF Y:00 P:26 SP:FF CYC:202 SL:22
C7AB  29 80     AND #$80                        A:10 X:FF Y:00 P:24 SP:FF CYC:214 SL:22
C7AD  F0 F9     BEQ $C7A8                       A:00 X:FF Y:00 P:26 SP:FF CYC:220 SL:22
C7A8  AD 02 20  LDA $2002 = FF                  A:00 X:FF Y:00 P:26 SP:FF CYC:229 SL:22
C7AB  29 80     AND #$80                        A:10 X:FF Y:00 P:24 SP:FF CYC:241 SL:22
C7AD  F0 F9     BEQ $C7A8                       A:00 X:FF Y:00 P:26 SP:FF CYC:247 SL:22
C7A8  AD 02 20  LDA $2002 = FF                  A:00 X:FF Y:00 P:26 SP:FF CYC:256 SL:22
C7AB  29 80     AND #$80                        A:10 X:FF Y:00 P:24 SP:FF CYC:268 SL:22
C7AD  F0 F9     BEQ $C7A8                       A:00 X:FF Y:00 P:26 SP:FF CYC:274 SL:22
C7A8  AD 02 20  LDA $2002 = FF                  A:00 X:FF Y:00 P:26 SP:FF CYC:283 SL:22
C7AB  29 80     AND #$80                        A:10 X:FF Y:00 P:24 SP:FF CYC:295 SL:22
C7AD  F0 F9     BEQ $C7A8                       A:00 X:FF Y:00 P:26 SP:FF CYC:301 SL:22
C7A8  AD 02 20  LDA $2002 = FF                  A:00 X:FF Y:00 P:26 SP:FF CYC:310 SL:22
C7AB  29 80     AND #$80                        A:10 X:FF Y:00 P:24 SP:FF CYC:322 SL:22
C7AD  F0 F9     BEQ $C7A8                       A:00 X:FF Y:00 P:26 SP:FF CYC:328 SL:22
C7A8  AD 02 20  LDA $2002 = FF                  A:00 X:FF Y:00 P:26 SP:FF CYC:337 SL:22
C7AB  29 80     AND #$80                        A:10 X:FF Y:00 P:24 SP:FF CYC:  8 SL:23
C7AD  F0 F9     BEQ $C7A8                       A:00 X:FF Y:00 P:26 SP:FF CYC: 14 SL:23
C7A8  AD 02 20  LDA $2002 = FF                  A:00 X:FF Y:00 P:26 SP:FF CYC: 23 SL:23
C7AB  29 80     AND #$80                        A:10 X:FF Y:00 P:24 SP:FF CYC: 35 SL:23
C7AD  F0 F9     BEQ $C7A8                       A:00 X:FF Y:00 P:26 SP:FF CYC: 41 SL:23
C7A8  AD 02 20  LDA $2002 = FF                  A:00 X:FF Y:00 P:26 SP:FF CYC: 50 SL:23
C7AB  29 80     AND #$80                        A:10 X:FF Y:00 P:24 SP:FF CYC: 62 SL:23
C7AD  F0 F9     BEQ $C7A8                       A:00 X:FF Y:00 P:26 SP:FF CYC: 68 SL:23
C7A8  AD 02 20  LDA $2002 = FF                  A:00 X:FF Y:00 P:26 SP:FF CYC: 77 SL:23
C7AB  29 80     AND #$80                        A:10 X:FF Y:00 P:24 SP:FF CYC: 89 SL:23
C7AD  F0 F9     BEQ $C7A8                       A:00 X:FF Y:00 P:26 SP:FF CYC: 95 SL:23
C7A8  AD 02 20  LDA $2002 = FF                  A:00 X:FF Y:00 P:26 SP:FF CYC:104 SL:23
C7AB  29 80     AND #$80                        A:10 X:FF Y:00 P:24 SP:FF CYC:116 SL:23
C7AD  F0 F9     BEQ $C7A8                       A:00 X:FF Y:00 P:26 SP:FF CYC:122 SL:23
C7A8  AD 02 20  LDA $2002 = FF                  A:00 X:FF Y:00 P:26 SP:FF CYC:131 SL:23
C7AB  29 80     AND #$80                        A:10 X:FF Y:00 P:24 SP:FF CYC:143 SL:23
C7AD  F0 F9     BEQ $C7A8                       A:00 X:FF Y:00 P:26 SP:FF CYC:149 SL:23
C7A8  AD 02 20  LDA $2002 = FF                  A:00 X:FF Y:00 P:26 SP:FF CYC:158 SL:23
C7AB  29 80     AND #$80                        A:10 X:FF Y:00 P:24 SP:FF CYC:170 SL:23
C7AD  F0 F9     BEQ $C7A8                       A:00 X:FF Y:00 P:26 SP:FF CYC:176 SL:23
C7A8  AD 02 20  LDA $2002 = FF                  A:00 X:FF Y:00 P:26 SP:FF CYC:185 SL:23
C7AB  29 80     AND #$80                        A:10 X:FF Y:00 P:24 SP:FF CYC:197 SL:23
C7AD  F0 F9     BEQ $C7A8                       A:00 X:FF Y:00 P:26 SP:FF CYC:203 SL:23
C7A8  AD 02 20  LDA $2002 = FF                  A:00 X:FF Y:00 P:26 SP:FF CYC:212 SL:23
C7AB  29 80     AND #$80                        A:10 X:FF Y:00 P:24 SP:FF CYC:224 SL:23
C7AD  F0 F9     BEQ $C7A8                       A:00 X:FF Y:00 P:26 SP:FF CYC:230 SL:23
C7A8  AD 02 20  LDA $2002 = FF                  A:00 X:FF Y:00 P:26 SP:FF CYC:239 SL:23
C7AB  29 80     AND #$80                        A:10 X:FF Y:00 P:24 SP:FF CYC:251 SL:23
C7AD  F0 F9     BEQ $C7A8                       A:00 X:FF Y:00 P:26 SP:FF CYC:257 SL:23
C7A8  AD 02 20  LDA $2002 = FF                  A:00 X:FF Y:00 P:26 SP:FF CYC:266 SL:23
C7AB  29 80     AND #$80                        A:10 X:FF Y:00 P:24 SP:FF CYC:278 SL:23
C7AD  F0 F9     BEQ $C7A8                       A:00 X:FF Y:00 P:26 SP:FF CYC:284 SL:23
C7A8  AD 02 20  LDA $2002 = FF                  A:00 X:FF Y:00 P:26 SP:FF CYC:293 SL:23
C7AB  29 80     AND #$80                        A:10 X:FF Y:00 P:24 SP:FF CYC:305 SL:23
C7AD  F0 F9     BEQ $C7A8                       A:00 X:FF Y:00 P:26 SP:FF CYC:311 SL:23
C7A8  AD 02 20  LDA $2002 = FF                  A:00 X:FF Y:00 P:26 SP:FF CYC:320 SL:23
C7AB  29 80     AND #$80                        A:10 X:FF Y:00 P:24 SP:FF CYC:332 SL:23
C7AD  F0 F9     BEQ $C7A8                       A:00 X:FF Y:00 P:26 SP:FF CYC:338 SL:23
C7A8  AD 02 20  LDA $2002 = FF                  A:00 X:FF Y:00 P:26 SP:FF CYC:  6 SL:24
C7AB  29 80     AND #$80                        A:10 X:FF Y:00 P:24 SP:FF CYC: 18 SL:24
C7AD  F0 F9     BEQ $C7A8                       A:00 X:FF Y:00 P:26 SP:FF CYC: 24 SL:24
C7A8  AD 02 20  LDA $2002 = FF                  A:00 X:FF Y:00 P:26 SP:FF CYC: 33 SL:24
C7AB  29 80     AND #$80                        A:10 X:FF Y:00 P:24 SP:FF CYC: 45 SL:24
C7AD  F0 F9     BEQ $C7A8                       A:00 X:FF Y:00 P:26 SP:FF CYC: 51 SL:24
C7A8  AD 02 20  LDA $2002 = FF                  A:00 X:FF Y:00 P:26 SP:FF CYC: 60 SL:24
C7AB  29 80     AND #$80                        A:10 X:FF Y:00 P:24 SP:FF CYC: 72 SL:24
C7AD  F0 F9     BEQ $C7A8                       A:00 X:FF Y:00 P:26 SP:FF CYC: 78 SL:24
C7A8  AD 02 20  LDA $2002 = FF                  A:00 X:FF Y:00 P:26 SP:FF CYC: 87 SL:24
C7AB  29 80     AND #$80                        A:10 X:FF Y:00 P:24 SP:FF CYC: 99 SL:24
C7AD  F0 F9     BEQ $C7A8                       A:00 X:FF Y:00 P:26 SP:FF CYC:105 SL:24
C7A8  AD 02 20  LDA $2002 = FF                  A:00 X:FF Y:00 P:26 SP:FF CYC:114 SL:24
C7AB  29 80     AND #$80                        A:10 X:FF Y:00 P:24 SP:FF CYC:126 SL:24
C7AD  F0 F9     BEQ $C7A8                       A:00 X:FF Y:00 P:26 SP:FF CYC:132 SL:24
C7A8  AD 02 20  LDA $2002 = FF                  A:00 X:FF Y:00 P:26 SP:FF CYC:141 SL:24
C7AB  29 80     AND #$80                        A:10 X:FF Y:00 P:24 SP:FF CYC:153 SL:24
C7AD  F0 F9     BEQ $C7A8                       A:00 X:FF Y:00 P:26 SP:FF CYC:159 SL:24
C7A8  AD 02 20  LDA $2002 = FF                  A:00 X:FF Y:00 P:26 SP:FF CYC:168 SL:24
C7AB  29 80     AND #$80                        A:10 X:FF Y:00 P:24 SP:FF CYC:180 SL:24
C7AD  F0 F9     BEQ $C7A8                       A:00 X:FF Y:00 P:26 SP:FF CYC:186 SL:24
C7A8  AD 02 20  LDA $2002 = FF                  A:00 X:FF Y:00 P:26 SP:FF CYC:195 SL:24
C7AB  29 80     AND #$80                        A:10 X:FF Y:00 P:24 SP:FF CYC:207 SL:24
C7AD  F0 F9     BEQ $C7A8                       A:00 X:FF Y:00 P:26 SP:FF CYC:213 SL:24
C7A8  AD 02 20  LDA $2002 = FF                  A:00 X:FF Y:00 P:26 SP:FF CYC:222 SL:24
C7AB  29 80     AND #$80                        A:10 X:FF Y:00 P:24 SP:FF CYC:234 SL:24
C7AD  F0 F9     BEQ $C7A8                       A:00 X:FF Y:00 P:26 SP:FF CYC:240 SL:24
C7A8  AD 02 20  LDA $2002 = FF                  A:00 X:FF Y:00 P:26 SP:FF CYC:249 SL:24
C7AB  29 80     AND #$80                        A:10 X:FF Y:00 P:24 SP:FF CYC:261 SL:24
C7AD  F0 F9     BEQ $C7A8                       A:00 X:FF Y:00 P:26 SP:FF CYC:267 SL:24
C7A8  AD 02 20  LDA $2002 = FF                  A:00 X:FF Y:00 P:26 SP:FF CYC:276 SL:24
C7AB  29 80     AND #$80                        A:10 X:FF Y:00 P:24 SP:FF CYC:288 SL:24
C7AD  F0 F9     BEQ $C7A8                       A:00 X:FF Y:00 P:26 SP:FF CYC:294 SL:24
C7A8  AD 02 20  LDA $2002 = FF                  A:00 X:FF Y:00 P:26 SP:FF CYC:303 SL:24
C7AB  29 80     AND #$80                        A:10 X:FF Y:00 P:24 SP:FF CYC:315 SL:24
C7AD  F0 F9     BEQ $C7A8                       A:00 X:FF Y:00 P:26 SP:FF CYC:321 SL:24
C7A8  AD 02 20  LDA $2002 = FF                  A:00 X:FF Y:00 P:26 SP:FF CYC:330 SL:24
C7AB  29 80     AND #$80                        A:10 X:FF Y:00 P:24 SP:FF CYC:  1 SL:25
C7AD  F0 F9     BEQ $C7A8                       A:00 X:FF Y:00 P:26 SP:FF CYC:  7 SL:25
C7A8  AD 02 20  LDA $2002 = FF                  A:00 X:FF Y:00 P:26 SP:FF CYC: 16 SL:25
C7AB  29 80     AND #$80                        A:10 X:FF Y:00 P:24 SP:FF CYC: 28 SL:25
C7AD  F0 F9     BEQ $C7A8                       A:00 X:FF Y:00 P:26 SP:FF CYC: 34 SL:25
C7A8  AD 02 20  LDA $2002 = FF                  A:00 X:FF Y:00 P:26 SP:FF CYC: 43 SL:25
C7AB  29 80     AND #$80                        A:10 X:FF Y:00 P:24 SP:FF CYC: 55 SL:25
C7AD  F0 F9     BEQ $C7A8                       A:00 X:FF Y:00 P:26 SP:FF CYC: 61 SL:25
C7A8  AD 02 20  LDA $2002 = FF                  A:00 X:FF Y:00 P:26 SP:FF CYC: 70 SL:25
C7AB  29 80     AND #$80                        A:10 X:FF Y:00 P:24 SP:FF CYC: 82 SL:25
C7AD  F0 F9     BEQ $C7A8                       A:00 X:FF Y:00 P:26 SP:FF CYC: 88 SL:25
C7A8  AD 02 20  LDA $2002 = FF                  A:00 X:FF Y:00 P:26 SP:FF CYC: 97 SL:25
C7AB  29 80     AND #$80                        A:10 X:FF Y:00 P:24 SP:FF CYC:109 SL:25
C7AD  F0 F9     BEQ $C7A8                       A:00 X:FF Y:00 P:26 SP:FF CYC:115 SL:25
C7A8  AD 02 20  LDA $2002 = FF                  A:00 X:FF Y:00 P:26 SP:FF CYC:124 SL:25
C7AB  29 80     AND #$80                        A:10 X:FF Y:00 P:24 SP:FF CYC:136 SL:25
C7AD  F0 F9     BEQ $C7A8                       A:00 X:FF Y:00 P:26 SP:FF CYC:142 SL:25
C7A8  AD 02 20  LDA $2002 = FF                  A:00 X:FF Y:00 P:26 SP:FF CYC:151 SL:25
C7AB  29 80     AND #$80                        A:10 X:FF Y:00 P:24 SP:FF CYC:163 SL:25
C7AD  F0 F9     BEQ $C7A8                       A:00 X:FF Y:00 P:26 SP:FF CYC:169 SL:25
C7A8  AD 02 20  LDA $2002 = FF                  A:00 X:FF Y:00 P:26 SP:FF CYC:178 SL:25
C7AB  29 80     AND #$80                        A:10 X:FF Y:00 P:24 SP:FF CYC:190 SL:25
C7AD  F0 F9     BEQ $C7A8                       A:00 X:FF Y:00 P:26 SP:FF CYC:196 SL:25
C7A8  AD 02 20  LDA $2002 = FF                  A:00 X:FF Y:00 P:26 SP:FF CYC:205 SL:25
C7AB  29 80     AND #$80                        A:10 X:FF Y:00 P:24 SP:FF CYC:217 SL:25
C7AD  F0 F9     BEQ $C7A8                       A:00 X:FF Y:00 P:26 SP:FF CYC:223 SL:25
C7A8  AD 02 20  LDA $2002 = FF                  A:00 X:FF Y:00 P:26 SP:FF CYC:232 SL:25
C7AB  29 80     AND #$80                        A:10 X:FF Y:00 P:24 SP:FF CYC:244 SL:25
C7AD  F0 F9     BEQ $C7A8                       A:00 X:FF Y:00 P:26 SP:FF CYC:250 SL:25
C7A8  AD 02 20  LDA $2002 = FF                  A:00 X:FF Y:00 P:26 SP:FF CYC:259 SL:25
C7AB  29 80     AND #$80                        A:10 X:FF Y:00 P:24 SP:FF CYC:271 SL:25
C7AD  F0 F9     BEQ $C7A8                       A:00 X:FF Y:00 P:26 SP:FF CYC:277 SL:25
C7A8  AD 02 20  LDA $2002 = FF                  A:00 X:FF Y:00 P:26 SP:FF CYC:286 SL:25
C7AB  29 80     AND #$80                        A:10 X:FF Y:00 P:24 SP:FF CYC:298 SL:25
C7AD  F0 F9     BEQ $C7A8                       A:00 X:FF Y:00 P:26 SP:FF CYC:304 SL:25
C7A8  AD 02 20  LDA $2002 = FF                  A:00 X:FF Y:00 P:26 SP:FF CYC:313 SL:25
C7AB  29 80     AND #$80                        A:10 X:FF Y:00 P:24 SP:FF CYC:325 SL:25
C7AD  F0 F9     BEQ $C7A8                       A:00 X:FF Y:00 P:26 SP:FF CYC:331 SL:25
C7A8  AD 02 20  LDA $2002 = FF                  A:00 X:FF Y:00 P:26 SP:FF CYC:340 SL:25
C7AB  29 80     AND #$80                        A:10 X:FF Y:00 P:24 SP:FF CYC: 11 SL:26
C7AD  F0 F9     BEQ $C7A8                       A:00 X:FF Y:00 P:26 SP:FF CYC: 17 SL:26
C7A8  AD 02 20  LDA $2002 = FF                  A:00 X:FF Y:00 P:26 SP:FF CYC: 26 SL:26
C7AB  29 80     AND #$80                        A:10 X:FF Y:00 P:24 SP:FF CYC: 38 SL:26
C7AD  F0 F9     BEQ $C7A8                       A:00 X:FF Y:00 P:26 SP:FF CYC: 44 SL:26
C7A8  AD 02 20  LDA $2002 = FF                  A:00 X:FF Y:00 P:26 SP:FF CYC: 53 SL:26
C7AB  29 80     AND #$80                        A:10 X:FF Y:00 P:24 SP:FF CYC: 65 SL:26
C7AD  F0 F9     BEQ $C7A8                       A:00 X:FF Y:00 P:26 SP:FF CYC: 71 SL:26
C7A8  AD 02 20  LDA $2002 = FF                  A:00 X:FF Y:00 P:26 SP:FF CYC: 80 SL:26
C7AB  29 80     AND #$80                        A:10 X:FF Y:00 P:24 SP:FF CYC: 92 SL:26
C7AD  F0 F9     BEQ $C7A8                       A:00 X:FF Y:00 P:26 SP:FF CYC: 98 SL:26
C7A8  AD 02 20  LDA $2002 = FF                  A:00 X:FF Y:00 P:26 SP:FF CYC:107 SL:26
C7AB  29 80     AND #$80                        A:10 X:FF Y:00 P:24 SP:FF CYC:119 SL:26
C7AD  F0 F9     BEQ $C7A8                       A:00 X:FF Y:00 P:26 SP:FF CYC:125 SL:26
C7A8  AD 02 20  LDA $2002 = FF                  A:00 X:FF Y:00 P:26 SP:FF CYC:134 SL:26
C7AB  29 80     AND #$80                        A:10 X:FF Y:00 P:24 SP:FF CYC:146 SL:26
C7AD  F0 F9     BEQ $C7A8                       A:00 X:FF Y:00 P:26 SP:FF CYC:152 SL:26
C7A8  AD 02 20  LDA $2002 = FF                  A:00 X:FF Y:00 P:26 SP:FF CYC:161 SL:26
C7AB  29 80     AND #$80                        A:10 X:FF Y:00 P:24 SP:FF CYC:173 SL:26
C7AD  F0 F9     BEQ $C7A8                       A:00 X:FF Y:00 P:26 SP:FF CYC:179 SL:26
C7A8  AD 02 20  LDA $2002 = FF                  A:00 X:FF Y:00 P:26 SP:FF CYC:188 SL:26
C7AB  29 80     AND #$80                        A:10 X:FF Y:00 P:24 SP:FF CYC:200 SL:26
C7AD  F0 F9     BEQ $C7A8                       A:00 X:FF Y:00 P:26 SP:FF CYC:206 SL:26
C7A8  AD 02 20  LDA $2002 = FF                  A:00 X:FF Y:00 P:26 SP:FF CYC:215 SL:26
C7AB  29 80     AND #$80                        A:10 X:FF Y:00 P:24 SP:FF CYC:227 SL:26
C7AD  F0 F9     BEQ $C7A8                       A:00 X:FF Y:00 P:26 SP:FF CYC:233 SL:26
C7A8  AD 02 20  LDA $2002 = FF                  A:00 X:FF Y:00 P:26 SP:FF CYC:242 SL:26
C7AB  29 80     AND #$80                        A:10 X:FF Y:00 P:24 SP:FF CYC:254 SL:26
C7AD  F0 F9     BEQ $C7A8                       A:00 X:FF Y:00 P:26 SP:FF CYC:260 SL:26
C7A8  AD 02 20  LDA $2002 = FF                  A:00 X:FF Y:00 P:26 SP:FF CYC:269 SL:26
C7AB  29 80     AND #$80                        A:10 X:FF Y:00 P:24 SP:FF CYC:281 SL:26
C7AD  F0 F9     BEQ $C7A8                       A:00 X:FF Y:00 P:26 SP:FF CYC:287 SL:26
C7A8  AD 02 20  LDA $2002 = FF                  A:00 X:FF Y:00 P:26 SP:FF CYC:296 SL:26
C7AB  29 80     AND #$80                        A:10 X:FF Y:00 P:24 SP:FF CYC:308 SL:26
C7AD  F0 F9     BEQ $C7A8                       A:00 X:FF Y:00 P:26 SP:FF CYC:314 SL:26
C7A8  AD 02 20  LDA $2002 = FF                  A:00 X:FF Y:00 P:26 SP:FF CYC:323 SL:26
C7AB  29 80     AND #$80                        A:10 X:FF Y:00 P:24 SP:FF CYC:335 SL:26
C7AD  F0 F9     BEQ $C7A8                       A:00 X:FF Y:00 P:26 SP:FF CYC:  0 SL:27
C7A8  AD 02 20  LDA $2002 = FF                  A:00 X:FF Y:00 P:26 SP:FF CYC:  9 SL:27
C7AB  29 80     AND #$80                        A:10 X:FF Y:00 P:24 SP:FF CYC: 21 SL:27
C7AD  F0 F9     BEQ $C7A8                       A:00 X:FF Y:00 P:26 SP:FF CYC: 27 SL:27
C7A8  AD 02 20  LDA $2002 = FF                  A:00 X:FF Y:00 P:26 SP:FF CYC: 36 SL:27
C7AB  29 80     AND #$80                        A:10 X:FF Y:00 P:24 SP:FF CYC: 48 SL:27
C7AD  F0 F9     BEQ $C7A8                       A:00 X:FF Y:00 P:26 SP:FF CYC: 54 SL:27
C7A8  AD 02 20  LDA $2002 = FF                  A:00 X:FF Y:00 P:26 SP:FF CYC: 63 SL:27
C7AB  29 80     AND #$80                        A:10 X:FF Y:00 P:24 SP:FF CYC: 75 SL:27
C7AD  F0 F9     BEQ $C7A8                       A:00 X:FF Y:00 P:26 SP:FF CYC: 81 SL:27
C7A8  AD 02 20  LDA $2002 = FF                  A:00 X:FF Y:00 P:26 SP:FF CYC: 90 SL:27
C7AB  29 80     AND #$80                        A:10 X:FF Y:00 P:24 SP:FF CYC:102 SL:27
C7AD  F0 F9     BEQ $C7A8                       A:00 X:FF Y:00 P:26 SP:FF CYC:108 SL:27
C7A8  AD 02 20  LDA $2002 = FF                  A:00 X:FF Y:00 P:26 SP:FF CYC:117 SL:27
C7AB  29 80     AND #$80                        A:10 X:FF Y:00 P:24 SP:FF CYC:129 SL:27
C7AD  F0 F9     BEQ $C7A8                       A:00 X:FF Y:00 P:26 SP:FF CYC:135 SL:27
C7A8  AD 02 20  LDA $2002 = FF                  A:00 X:FF Y:00 P:26 SP:FF CYC:144 SL:27
C7AB  29 80     AND #$80                        A:10 X:FF Y:00 P:24 SP:FF CYC:156 SL:27
C7AD  F0 F9     BEQ $C7A8                       A:00 X:FF Y:00 P:26 SP:FF CYC:162 SL:27
C7A8  AD 02 20  LDA $2002 = FF                  A:00 X:FF Y:00 P:26 SP:FF CYC:171 SL:27
C7AB  29 80     AND #$80                        A:10 X:FF Y:00 P:24 SP:FF CYC:183 SL:27
C7AD  F0 F9     BEQ $C7A8                       A:00 X:FF Y:00 P:26 SP:FF CYC:189 SL:27
C7A8  AD 02 20  LDA $2002 = FF                  A:00 X:FF Y:00 P:26 SP:FF CYC:198 SL:27
C7AB  29 80     AND #$80                        A:10 X:FF Y:00 P:24 SP:FF CYC:210 SL:27
C7AD  F0 F9     BEQ $C7A8                       A:00 X:FF Y:00 P:26 SP:FF CYC:216 SL:27
C7A8  AD 02 20  LDA $2002 = FF                  A:00 X:FF Y:00 P:26 SP:FF CYC:225 SL:27
C7AB  29 80     AND #$80                        A:10 X:FF Y:00 P:24 SP:FF CYC:237 SL:27
C7AD  F0 F9     BEQ $C7A8                       A:00 X:FF Y:00 P:26 SP:FF CYC:243 SL:27
C7A8  AD 02 20  LDA $2002 = FF                  A:00 X:FF Y:00 P:26 SP:FF CYC:252 SL:27
C7AB  29 80     AND #$80                        A:10 X:FF Y:00 P:24 SP:FF CYC:264 SL:27
C7AD  F0 F9     BEQ $C7A8                       A:00 X:FF Y:00 P:26 SP:FF CYC:270 SL:27
C7A8  AD 02 20  LDA $2002 = FF                  A:00 X:FF Y:00 P:26 SP:FF CYC:279 SL:27
C7AB  29 80     AND #$80                        A:10 X:FF Y:00 P:24 SP:FF CYC:291 SL:27
C7AD  F0 F9     BEQ $C7A8                       A:00 X:FF Y:00 P:26 SP:FF CYC:297 SL:27
C7A8  AD 02 20  LDA $2002 = FF                  A:00 X:FF Y:00 P:26 SP:FF CYC:306 SL:27
C7AB  29 80     AND #$80                        A:10 X:FF Y:00 P:24 SP:FF CYC:318 SL:27
C7AD  F0 F9     BEQ $C7A8                       A:00 X:FF Y:00 P:26 SP:FF CYC:324 SL:27
C7A8  AD 02 20  LDA $2002 = FF                  A:00 X:FF Y:00 P:26 SP:FF CYC:333 SL:27
C7AB  29 80     AND #$80                        A:10 X:FF Y:00 P:24 SP:FF CYC:  4 SL:28
C7AD  F0 F9     BEQ $C7A8                       A:00 X:FF Y:00 P:26 SP:FF CYC: 10 SL:28
C7A8  AD 02 20  LDA $2002 = FF                  A:00 X:FF Y:00 P:26 SP:FF CYC: 19 SL:28
C7AB  29 80     AND #$80                        A:10 X:FF Y:00 P:24 SP:FF CYC: 31 SL:28
C7AD  F0 F9     BEQ $C7A8                       A:00 X:FF Y:00 P:26 SP:FF CYC: 37 SL:28
C7A8  AD 02 20  LDA $2002 = FF                  A:00 X:FF Y:00 P:26 SP:FF CYC: 46 SL:28
C7AB  29 80     AND #$80                        A:10 X:FF Y:00 P:24 SP:FF CYC: 58 SL:28
C7AD  F0 F9     BEQ $C7A8                       A:00 X:FF Y:00 P:26 SP:FF CYC: 64 SL:28
C7A8  AD 02 20  LDA $2002 = FF                  A:00 X:FF Y:00 P:26 SP:FF CYC: 73 SL:28
C7AB  29 80     AND #$80                        A:10 X:FF Y:00 P:24 SP:FF CYC: 85 SL:28
C7AD  F0 F9     BEQ $C7A8                       A:00 X:FF Y:00 P:26 SP:FF CYC: 91 SL:28
C7A8  AD 02 20  LDA $2002 = FF                  A:00 X:FF Y:00 P:26 SP:FF CYC:100 SL:28
C7AB  29 80     AND #$80                        A:10 X:FF Y:00 P:24 SP:FF CYC:112 SL:28
C7AD  F0 F9     BEQ $C7A8                       A:00 X:FF Y:00 P:26 SP:FF CYC:118 SL:28
C7A8  AD 02 20  LDA $2002 = FF                  A:00 X:FF Y:00 P:26 SP:FF CYC:127 SL:28
C7AB  29 80     AND #$80                        A:10 X:FF Y:00 P:24 SP:FF CYC:139 SL:28
C7AD  F0 F9     BEQ $C7A8                       A:00 X:FF Y:00 P:26 SP:FF CYC:145 SL:28
C7A8  AD 02 20  LDA $2002 = FF                  A:00 X:FF Y:00 P:26 SP:FF CYC:154 SL:28
C7AB  29 80     AND #$80                        A:10 X:FF Y:00 P:24 SP:FF CYC:166 SL:28
C7AD  F0 F9     BEQ $C7A8                       A:00 X:FF Y:00 P:26 SP:FF CYC:172 SL:28
C7A8  AD 02 20  LDA $2002 = FF                  A:00 X:FF Y:00 P:26 SP:FF CYC:181 SL:28
C7AB  29 80     AND #$80                        A:10 X:FF Y:00 P:24 SP:FF CYC:193 SL:28
C7AD  F0 F9     BEQ $C7A8                       A:00 X:FF Y:00 P:26 SP:FF CYC:199 SL:28
C7A8  AD 02 20  LDA $2002 = FF                  A:00 X:FF Y:00 P:26 SP:FF CYC:208 SL:28
C7AB  29 80     AND #$80                        A:10 X:FF Y:00 P:24 SP:FF CYC:220 SL:28
C7AD  F0 F9     BEQ $C7A8                       A:00 X:FF Y:00 P:26 SP:FF CYC:226 SL:28
C7A8  AD 02 20  LDA $2002 = FF                  A:00 X:FF Y:00 P:26 SP:FF CYC:235 SL:28
C7AB  29 80     AND #$80                        A:10 X:FF Y:00 P:24 SP:FF CYC:247 SL:28
C7AD  F0 F9     BEQ $C7A8                       A:00 X:FF Y:00 P:26 SP:FF CYC:253 SL:28
C7A8  AD 02 20  LDA $2002 = FF                  A:00 X:FF Y:00 P:26 SP:FF CYC:262 SL:28
C7AB  29 80     AND #$80                        A:10 X:FF Y:00 P:24 SP:FF CYC:274 SL:28
C7AD  F0 F9     BEQ $C7A8                       A:00 X:FF Y:00 P:26 SP:FF CYC:280 SL:28
C7A8  AD 02 20  LDA $2002 = FF                  A:00 X:FF Y:00 P:26 SP:FF CYC:289 SL:28
C7AB  29 80     AND #$80                        A:10 X:FF Y:00 P:24 SP:FF CYC:301 SL:28
C7AD  F0 F9     BEQ $C7A8                       A:00 X:FF Y:00 P:26 SP:FF CYC:307 SL:28
C7A8  AD 02 20  LDA $2002 = FF                  A:00 X:FF Y:00 P:26 SP:FF CYC:316 SL:28
C7AB  29 80     AND #$80                        A:10 X:FF Y:00 P:24 SP:FF CYC:328 SL:28
C7AD  F0 F9     BEQ $C7A8                       A:00 X:FF Y:00 P:26 SP:FF CYC:334 SL:28
C7A8  AD 02 20  LDA $2002 = FF                  A:00 X:FF Y:00 P:26 SP:FF CYC:  2 SL:29
C7AB  29 80     AND #$80                        A:10 X:FF Y:00 P:24 SP:FF CYC: 14 SL:29
C7AD  F0 F9     BEQ $C7A8                       A:00 X:FF Y:00 P:26 SP:FF CYC: 20 SL:29
C7A8  AD 02 20  LDA $2002 = FF                  A:00 X:FF Y:00 P:26 SP:FF CYC: 29 SL:29
C7AB  29 80     AND #$80                        A:10 X:FF Y:00 P:24 SP:FF CYC: 41 SL:29
C7AD  F0 F9     BEQ $C7A8                       A:00 X:FF Y:00 P:26 SP:FF CYC: 47 SL:29
C7A8  AD 02 20  LDA $2002 = FF                  A:00 X:FF Y:00 P:26 SP:FF CYC: 56 SL:29
C7AB  29 80     AND #$80                        A:10 X:FF Y:00 P:24 SP:FF CYC: 68 SL:29
C7AD  F0 F9     BEQ $C7A8                       A:00 X:FF Y:00 P:26 SP:FF CYC: 74 SL:29
C7A8  AD 02 20  LDA $2002 = FF                  A:00 X:FF Y:00 P:26 SP:FF CYC: 83 SL:29
C7AB  29 80     AND #$80                        A:10 X:FF Y:00 P:24 SP:FF CYC: 95 SL:29
C7AD  F0 F9     BEQ $C7A8                       A:00 X:FF Y:00 P:26 SP:FF CYC:101 SL:29
C7A8  AD 02 20  LDA $2002 = FF                  A:00 X:FF Y:00 P:26 SP:FF CYC:110 SL:29
C7AB  29 80     AND #$80                        A:10 X:FF Y:00 P:24 SP:FF CYC:122 SL:29
C7AD  F0 F9     BEQ $C7A8                       A:00 X:FF Y:00 P:26 SP:FF CYC:128 SL:29
C7A8  AD 02 20  LDA $2002 = FF                  A:00 X:FF Y:00 P:26 SP:FF CYC:137 SL:29
C7AB  29 80     AND #$80                        A:10 X:FF Y:00 P:24 SP:FF CYC:149 SL:29
C7AD  F0 F9     BEQ $C7A8                       A:00 X:FF Y:00 P:26 SP:FF CYC:155 SL:29
C7A8  AD 02 20  LDA $2002 = FF                  A:00 X:FF Y:00 P:26 SP:FF CYC:164 SL:29
C7AB  29 80     AND #$80                        A:10 X:FF Y:00 P:24 SP:FF CYC:176 SL:29
C7AD  F0 F9     BEQ $C7A8                       A:00 X:FF Y:00 P:26 SP:FF CYC:182 SL:29
C7A8  AD 02 20  LDA $2002 = FF                  A:00 X:FF Y:00 P:26 SP:FF CYC:191 SL:29
C7AB  29 80     AND #$80                        A:10 X:FF Y:00 P:24 SP:FF CYC:203 SL:29
C7AD  F0 F9     BEQ $C7A8                       A:00 X:FF Y:00 P:26 SP:FF CYC:209 SL:29
C7A8  AD 02 20  LDA $2002 = FF                  A:00 X:FF Y:00 P:26 SP:FF CYC:218 SL:29
C7AB  29 80     AND #$80                        A:10 X:FF Y:00 P:24 SP:FF CYC:230 SL:29
C7AD  F0 F9     BEQ $C7A8                       A:00 X:FF Y:00 P:26 SP:FF CYC:236 SL:29
C7A8  AD 02 20  LDA $2002 = FF                  A:00 X:FF Y:00 P:26 SP:FF CYC:245 SL:29
C7AB  29 80     AND #$80                        A:10 X:FF Y:00 P:24 SP:FF CYC:257 SL:29
C7AD  F0 F9     BEQ $C7A8                       A:00 X:FF Y:00 P:26 SP:FF CYC:263 SL:29
C7A8  AD 02 20  LDA $2002 = FF                  A:00 X:FF Y:00 P:26 SP:FF CYC:272 SL:29
C7AB  29 80     AND #$80                        A:10 X:FF Y:00 P:24 SP:FF CYC:284 SL:29
C7AD  F0 F9     BEQ $C7A8                       A:00 X:FF Y:00 P:26 SP:FF CYC:290 SL:29
C7A8  AD 02 20  LDA $2002 = FF                  A:00 X:FF Y:00 P:26 SP:FF CYC:299 SL:29
C7AB  29 80     AND #$80                        A:10 X:FF Y:00 P:24 SP:FF CYC:311 SL:29
C7AD  F0 F9     BEQ $C7A8                       A:00 X:FF Y:00 P:26 SP:FF CYC:317 SL:29
C7A8  AD 02 20  LDA $2002 = FF                  A:00 X:FF Y:00 P:26 SP:FF CYC:326 SL:29
C7AB  29 80     AND #$80                        A:10 X:FF Y:00 P:24 SP:FF CYC:338 SL:29
C7AD  F0 F9     BEQ $C7A8                       A:00 X:FF Y:00 P:26 SP:FF CYC:  3 SL:30
C7A8  AD 02 20  LDA $2002 = FF                  A:00 X:FF Y:00 P:26 SP:FF CYC: 12 SL:30
C7AB  29 80     AND #$80                        A:10 X:FF Y:00 P:24 SP:FF CYC: 24 SL:30
C7AD  F0 F9     BEQ $C7A8                       A:00 X:FF Y:00 P:26 SP:FF CYC: 30 SL:30
C7A8  AD 02 20  LDA $2002 = FF                  A:00 X:FF Y:00 P:26 SP:FF CYC: 39 SL:30
C7AB  29 80     AND #$80                        A:10 X:FF Y:00 P:24 SP:FF CYC: 51 SL:30
C7AD  F0 F9     BEQ $C7A8                       A:00 X:FF Y:00 P:26 SP:FF CYC: 57 SL:30
C7A8  AD 02 20  LDA $2002 = FF                  A:00 X:FF Y:00 P:26 SP:FF CYC: 66 SL:30
C7AB  29 80     AND #$80                        A:10 X:FF Y:00 P:24 SP:FF CYC: 78 SL:30
C7AD  F0 F9     BEQ $C7A8                       A:00 X:FF Y:00 P:26 SP:FF CYC: 84 SL:30
C7A8  AD 02 20  LDA $2002 = FF                  A:00 X:FF Y:00 P:26 SP:FF CYC: 93 SL:30
C7AB  29 80     AND #$80                        A:10 X:FF Y:00 P:24 SP:FF CYC:105 SL:30
C7AD  F0 F9     BEQ $C7A8                       A:00 X:FF Y:00 P:26 SP:FF CYC:111 SL:30
C7A8  AD 02 20  LDA $2002 = FF                  A:00 X:FF Y:00 P:26 SP:FF CYC:120 SL:30
C7AB  29 80     AND #$80                        A:10 X:FF Y:00 P:24 SP:FF CYC:132 SL:30
C7AD  F0 F9     BEQ $C7A8                       A:00 X:FF Y:00 P:26 SP:FF CYC:138 SL:30
C7A8  AD 02 20  LDA $2002 = FF                  A:00 X:FF Y:00 P:26 SP:FF CYC:147 SL:30
C7AB  29 80     AND #$80                        A:10 X:FF Y:00 P:24 SP:FF CYC:159 SL:30
C7AD  F0 F9     BEQ $C7A8                       A:00 X:FF Y:00 P:26 SP:FF CYC:165 SL:30
C7A8  AD 02 20  LDA $2002 = FF                  A:00 X:FF Y:00 P:26 SP:FF CYC:174 SL:30
C7AB  29 80     AND #$80                        A:10 X:FF Y:00 P:24 SP:FF CYC:186 SL:30
C7AD  F0 F9     BEQ $C7A8                       A:00 X:FF Y:00 P:26 SP:FF CYC:192 SL:30
C7A8  AD 02 20  LDA $2002 = FF                  A:00 X:FF Y:00 P:26 SP:FF CYC:201 SL:30
C7AB  29 80     AND #$80                        A:10 X:FF Y:00 P:24 SP:FF CYC:213 SL:30
C7AD  F0 F9     BEQ $C7A8                       A:00 X:FF Y:00 P:26 SP:FF CYC:219 SL:30
C7A8  AD 02 20  LDA $2002 = FF                  A:00 X:FF Y:00 P:26 SP:FF CYC:228 SL:30
C7AB  29 80     AND #$80                        A:10 X:FF Y:00 P:24 SP:FF CYC:240 SL:30
C7AD  F0 F9     BEQ $C7A8                       A:00 X:FF Y:00 P:26 SP:FF CYC:246 SL:30
C7A8  AD 02 20  LDA $2002 = FF                  A:00 X:FF Y:00 P:26 SP:FF CYC:255 SL:30
C7AB  29 80     AND #$80                        A:10 X:FF Y:00 P:24 SP:FF CYC:267 SL:30
C7AD  F0 F9     BEQ $C7A8                       A:00 X:FF Y:00 P:26 SP:FF CYC:273 SL:30
C7A8  AD 02 20  LDA $2002 = FF                  A:00 X:FF Y:00 P:26 SP:FF CYC:282 SL:30
C7AB  29 80     AND #$80                        A:10 X:FF Y:00 P:24 SP:FF CYC:294 SL:30
C7AD  F0 F9     BEQ $C7A8                       A:00 X:FF Y:00 P:26 SP:FF CYC:300 SL:30
C7A8  AD 02 20  LDA $2002 = FF                  A:00 X:FF Y:00 P:26 SP:FF CYC:309 SL:30
C7AB  29 80     AND #$80                        A:10 X:FF Y:00 P:24 SP:FF CYC:321 SL:30
C7AD  F0 F9     BEQ $C7A8                       A:00 X:FF Y:00 P:26 SP:FF CYC:327 SL:30
C7A8  AD 02 20  LDA $2002 = FF                  A:00 X:FF Y:00 P:26 SP:FF CYC:336 SL:30
C7AB  29 80     AND #$80                        A:10 X:FF Y:00 P:24 SP:FF CYC:  7 SL:31
C7AD  F0 F9     BEQ $C7A8                       A:00 X:FF Y:00 P:26 SP:FF CYC: 13 SL:31
C7A8  AD 02 20  LDA $2002 = FF                  A:00 X:FF Y:00 P:26 SP:FF CYC: 22 SL:31
C7AB  29 80     AND #$80                        A:10 X:FF Y:00 P:24 SP:FF CYC: 34 SL:31
C7AD  F0 F9     BEQ $C7A8                       A:00 X:FF Y:00 P:26 SP:FF CYC: 40 SL:31
C7A8  AD 02 20  LDA $2002 = FF                  A:00 X:FF Y:00 P:26 SP:FF CYC: 49 SL:31
C7AB  29 80     AND #$80                        A:10 X:FF Y:00 P:24 SP:FF CYC: 61 SL:31
C7AD  F0 F9     BEQ $C7A8                       A:00 X:FF Y:00 P:26 SP:FF CYC: 67 SL:31
C7A8  AD 02 20  LDA $2002 = FF                  A:00 X:FF Y:00 P:26 SP:FF CYC: 76 SL:31
C7AB  29 80     AND #$80                        A:10 X:FF Y:00 P:24 SP:FF CYC: 88 SL:31
C7AD  F0 F9     BEQ $C7A8                       A:00 X:FF Y:00 P:26 SP:FF CYC: 94 SL:31
C7A8  AD 02 20  LDA $2002 = FF                  A:00 X:FF Y:00 P:26 SP:FF CYC:103 SL:31
C7AB  29 80     AND #$80                        A:10 X:FF Y:00 P:24 SP:FF CYC:115 SL:31
C7AD  F0 F9     BEQ $C7A8                       A:00 X:FF Y:00 P:26 SP:FF CYC:121 SL:31
C7A8  AD 02 20  LDA $2002 = FF                  A:00 X:FF Y:00 P:26 SP:FF CYC:130 SL:31
C7AB  29 80     AND #$80                        A:10 X:FF Y:00 P:24 SP:FF CYC:142 SL:31
C7AD  F0 F9     BEQ $C7A8                       A:00 X:FF Y:00 P:26 SP:FF CYC:148 SL:31
C7A8  AD 02 20  LDA $2002 = FF                  A:00 X:FF Y:00 P:26 SP:FF CYC:157 SL:31
C7AB  29 80     AND #$80                        A:10 X:FF Y:00 P:24 SP:FF CYC:169 SL:31
C7AD  F0 F9     BEQ $C7A8                       A:00 X:FF Y:00 P:26 SP:FF CYC:175 SL:31
C7A8  AD 02 20  LDA $2002 = FF                  A:00 X:FF Y:00 P:26 SP:FF CYC:184 SL:31
C7AB  29 80     AND #$80                        A:10 X:FF Y:00 P:24 SP:FF CYC:196 SL:31
C7AD  F0 F9     BEQ $C7A8                       A:00 X:FF Y:00 P:26 SP:FF CYC:202 SL:31
C7A8  AD 02 20  LDA $2002 = FF                  A:00 X:FF Y:00 P:26 SP:FF CYC:211 SL:31
C7AB  29 80     AND #$80                        A:10 X:FF Y:00 P:24 SP:FF CYC:223 SL:31
C7AD  F0 F9     BEQ $C7A8                       A:00 X:FF Y:00 P:26 SP:FF CYC:229 SL:31
C7A8  AD 02 20  LDA $2002 = FF                  A:00 X:FF Y:00 P:26 SP:FF CYC:238 SL:31
C7AB  29 80     AND #$80                        A:10 X:FF Y:00 P:24 SP:FF CYC:250 SL:31
C7AD  F0 F9     BEQ $C7A8                       A:00 X:FF Y:00 P:26 SP:FF CYC:256 SL:31
C7A8  AD 02 20  LDA $2002 = FF                  A:00 X:FF Y:00 P:26 SP:FF CYC:265 SL:31
C7AB  29 80     AND #$80                        A:10 X:FF Y:00 P:24 SP:FF CYC:277 SL:31
C7AD  F0 F9     BEQ $C7A8                       A:00 X:FF Y:00 P:26 SP:FF CYC:283 SL:31
C7A8  AD 02 20  LDA $2002 = FF                  A:00 X:FF Y:00 P:26 SP:FF CYC:292 SL:31
C7AB  29 80     AND #$80                        A:10 X:FF Y:00 P:24 SP:FF CYC:304 SL:31
C7AD  F0 F9     BEQ $C7A8                       A:00 X:FF Y:00 P:26 SP:FF CYC:310 SL:31
C7A8  AD 02 20  LDA $2002 = FF                  A:00 X:FF Y:00 P:26 SP:FF CYC:319 SL:31
C7AB  29 80     AND #$80                        A:10 X:FF Y:00 P:24 SP:FF CYC:331 SL:31
C7AD  F0 F9     BEQ $C7A8                       A:00 X:FF Y:00 P:26 SP:FF CYC:337 SL:31
C7A8  AD 02 20  LDA $2002 = FF                  A:00 X:FF Y:00 P:26 SP:FF CYC:  5 SL:32
C7AB  29 80     AND #$80                        A:10 X:FF Y:00 P:24 SP:FF CYC: 17 SL:32
C7AD  F0 F9     BEQ $C7A8                       A:00 X:FF Y:00 P:26 SP:FF CYC: 23 SL:32
C7A8  AD 02 20  LDA $2002 = FF                  A:00 X:FF Y:00 P:26 SP:FF CYC: 32 SL:32
C7AB  29 80     AND #$80                        A:10 X:FF Y:00 P:24 SP:FF CYC: 44 SL:32
C7AD  F0 F9     BEQ $C7A8                       A:00 X:FF Y:00 P:26 SP:FF CYC: 50 SL:32
C7A8  AD 02 20  LDA $2002 = FF                  A:00 X:FF Y:00 P:26 SP:FF CYC: 59 SL:32
C7AB  29 80     AND #$80                        A:10 X:FF Y:00 P:24 SP:FF CYC: 71 SL:32
C7AD  F0 F9     BEQ $C7A8                       A:00 X:FF Y:00 P:26 SP:FF CYC: 77 SL:32
C7A8  AD 02 20  LDA $2002 = FF                  A:00 X:FF Y:00 P:26 SP:FF CYC: 86 SL:32
C7AB  29 80     AND #$80                        A:10 X:FF Y:00 P:24 SP:FF CYC: 98 SL:32
C7AD  F0 F9     BEQ $C7A8                       A:00 X:FF Y:00 P:26 SP:FF CYC:104 SL:32
C7A8  AD 02 20  LDA $2002 = FF                  A:00 X:FF Y:00 P:26 SP:FF CYC:113 SL:32
C7AB  29 80     AND #$80                        A:10 X:FF Y:00 P:24 SP:FF CYC:125 SL:32
C7AD  F0 F9     BEQ $C7A8                       A:00 X:FF Y:00 P:26 SP:FF CYC:131 SL:32
C7A8  AD 02 20  LDA $2002 = FF                  A:00 X:FF Y:00 P:26 SP:FF CYC:140 SL:32
C7AB  29 80     AND #$80                        A:10 X:FF Y:00 P:24 SP:FF CYC:152 SL:32
C7AD  F0 F9     BEQ $C7A8                       A:00 X:FF Y:00 P:26 SP:FF CYC:158 SL:32
C7A8  AD 02 20  LDA $2002 = FF                  A:00 X:FF Y:00 P:26 SP:FF CYC:167 SL:32
C7AB  29 80     AND #$80                        A:10 X:FF Y:00 P:24 SP:FF CYC:179 SL:32
C7AD  F0 F9     BEQ $C7A8                       A:00 X:FF Y:00 P:26 SP:FF CYC:185 SL:32
C7A8  AD 02 20  LDA $2002 = FF                  A:00 X:FF Y:00 P:26 SP:FF CYC:194 SL:32
C7AB  29 80     AND #$80                        A:10 X:FF Y:00 P:24 SP:FF CYC:206 SL:32
C7AD  F0 F9     BEQ $C7A8                       A:00 X:FF Y:00 P:26 SP:FF CYC:212 SL:32
C7A8  AD 02 20  LDA $2002 = FF                  A:00 X:FF Y:00 P:26 SP:FF CYC:221 SL:32
C7AB  29 80     AND #$80                        A:10 X:FF Y:00 P:24 SP:FF CYC:233 SL:32
C7AD  F0 F9     BEQ $C7A8                       A:00 X:FF Y:00 P:26 SP:FF CYC:239 SL:32
C7A8  AD 02 20  LDA $2002 = FF                  A:00 X:FF Y:00 P:26 SP:FF CYC:248 SL:32
C7AB  29 80     AND #$80                        A:10 X:FF Y:00 P:24 SP:FF CYC:260 SL:32
C7AD  F0 F9     BEQ $C7A8                       A:00 X:FF Y:00 P:26 SP:FF CYC:266 SL:32
C7A8  AD 02 20  LDA $2002 = FF                  A:00 X:FF Y:00 P:26 SP:FF CYC:275 SL:32
C7AB  29 80     AND #$80                        A:10 X:FF Y:00 P:24 SP:FF CYC:287 SL:32
C7AD  F0 F9     BEQ $C7A8                       A:00 X:FF Y:00 P:26 SP:FF CYC:293 SL:32
C7A8  AD 02 20  LDA $2002 = FF                  A:00 X:FF Y:00 P:26 SP:FF CYC:302 SL:32
C7AB  29 80     AND #$80                        A:10 X:FF Y:00 P:24 SP:FF CYC:314 SL:32
C7AD  F0 F9     BEQ $C7A8                       A:00 X:FF Y:00 P:26 SP:FF CYC:320 SL:32
C7A8  AD 02 20  LDA $2002 = FF                  A:00 X:FF Y:00 P:26 SP:FF CYC:329 SL:32
C7AB  29 80     AND #$80                        A:10 X:FF Y:00 P:24 SP:FF CYC:  0 SL:33
C7AD  F0 F9     BEQ $C7A8                       A:00 X:FF Y:00 P:26 SP:FF CYC:  6 SL:33
C7A8  AD 02 20  LDA $2002 = FF                  A:00 X:FF Y:00 P:26 SP:FF CYC: 15 SL:33
C7AB  29 80     AND #$80                        A:10 X:FF Y:00 P:24 SP:FF CYC: 27 SL:33
C7AD  F0 F9     BEQ $C7A8                       A:00 X:FF Y:00 P:26 SP:FF CYC: 33 SL:33
C7A8  AD 02 20  LDA $2002 = FF                  A:00 X:FF Y:00 P:26 SP:FF CYC: 42 SL:33
C7AB  29 80     AND #$80                        A:10 X:FF Y:00 P:24 SP:FF CYC: 54 SL:33
C7AD  F0 F9     BEQ $C7A8                       A:00 X:FF Y:00 P:26 SP:FF CYC: 60 SL:33
C7A8  AD 02 20  LDA $2002 = FF                  A:00 X:FF Y:00 P:26 SP:FF CYC: 69 SL:33
C7AB  29 80     AND #$80                        A:10 X:FF Y:00 P:24 SP:FF CYC: 81 SL:33
C7AD  F0 F9     BEQ $C7A8                       A:00 X:FF Y:00 P:26 SP:FF CYC: 87 SL:33
C7A8  AD 02 20  LDA $2002 = FF                  A:00 X:FF Y:00 P:26 SP:FF CYC: 96 SL:33
C7AB  29 80     AND #$80                        A:10 X:FF Y:00 P:24 SP:FF CYC:108 SL:33
C7AD  F0 F9     BEQ $C7A8                       A:00 X:FF Y:00 P:26 SP:FF CYC:114 SL:33
C7A8  AD 02 20  LDA $2002 = FF                  A:00 X:FF Y:00 P:26 SP:FF CYC:123 SL:33
C7AB  29 80     AND #$80                        A:10 X:FF Y:00 P:24 SP:FF CYC:135 SL:33
C7AD  F0 F9     BEQ $C7A8                       A:00 X:FF Y:00 P:26 SP:FF CYC:141 SL:33
C7A8  AD 02 20  LDA $2002 = FF                  A:00 X:FF Y:00 P:26 SP:FF CYC:150 SL:33
C7AB  29 80     AND #$80                        A:10 X:FF Y:00 P:24 SP:FF CYC:162 SL:33
C7AD  F0 F9     BEQ $C7A8                       A:00 X:FF Y:00 P:26 SP:FF CYC:168 SL:33
C7A8  AD 02 20  LDA $2002 = FF                  A:00 X:FF Y:00 P:26 SP:FF CYC:177 SL:33
C7AB  29 80     AND #$80                        A:10 X:FF Y:00 P:24 SP:FF CYC:189 SL:33
C7AD  F0 F9     BEQ $C7A8                       A:00 X:FF Y:00 P:26 SP:FF CYC:195 SL:33
C7A8  AD 02 20  LDA $2002 = FF                  A:00 X:FF Y:00 P:26 SP:FF CYC:204 SL:33
C7AB  29 80     AND #$80                        A:10 X:FF Y:00 P:24 SP:FF CYC:216 SL:33
C7AD  F0 F9     BEQ $C7A8                       A:00 X:FF Y:00 P:26 SP:FF CYC:222 SL:33
C7A8  AD 02 20  LDA $2002 = FF                  A:00 X:FF Y:00 P:26 SP:FF CYC:231 SL:33
C7AB  29 80     AND #$80                        A:10 X:FF Y:00 P:24 SP:FF CYC:243 SL:33
C7AD  F0 F9     BEQ $C7A8                       A:00 X:FF Y:00 P:26 SP:FF CYC:249 SL:33
C7A8  AD 02 20  LDA $2002 = FF                  A:00 X:FF Y:00 P:26 SP:FF CYC:258 SL:33
C7AB  29 80     AND #$80                        A:10 X:FF Y:00 P:24 SP:FF CYC:270 SL:33
C7AD  F0 F9     BEQ $C7A8                       A:00 X:FF Y:00 P:26 SP:FF CYC:276 SL:33
C7A8  AD 02 20  LDA $2002 = FF                  A:00 X:FF Y:00 P:26 SP:FF CYC:285 SL:33
C7AB  29 80     AND #$80                        A:10 X:FF Y:00 P:24 SP:FF CYC:297 SL:33
C7AD  F0 F9     BEQ $C7A8                       A:00 X:FF Y:00 P:26 SP:FF CYC:303 SL:33
C7A8  AD 02 20  LDA $2002 = FF                  A:00 X:FF Y:00 P:26 SP:FF CYC:312 SL:33
C7AB  29 80     AND #$80                        A:10 X:FF Y:00 P:24 SP:FF CYC:324 SL:33
C7AD  F0 F9     BEQ $C7A8                       A:00 X:FF Y:00 P:26 SP:FF CYC:330 SL:33
C7A8  AD 02 20  LDA $2002 = FF                  A:00 X:FF Y:00 P:26 SP:FF CYC:339 SL:33
C7AB  29 80     AND #$80                        A:10 X:FF Y:00 P:24 SP:FF CYC: 10 SL:34
C7AD  F0 F9     BEQ $C7A8                       A:00 X:FF Y:00 P:26 SP:FF CYC: 16 SL:34
C7A8  AD 02 20  LDA $2002 = FF                  A:00 X:FF Y:00 P:26 SP:FF CYC: 25 SL:34
C7AB  29 80     AND #$80                        A:10 X:FF Y:00 P:24 SP:FF CYC: 37 SL:34
C7AD  F0 F9     BEQ $C7A8                       A:00 X:FF Y:00 P:26 SP:FF CYC: 43 SL:34
C7A8  AD 02 20  LDA $2002 = FF                  A:00 X:FF Y:00 P:26 SP:FF CYC: 52 SL:34
C7AB  29 80     AND #$80                        A:10 X:FF Y:00 P:24 SP:FF CYC: 64 SL:34
C7AD  F0 F9     BEQ $C7A8                       A:00 X:FF Y:00 P:26 SP:FF CYC: 70 SL:34
C7A8  AD 02 20  LDA $2002 = FF                  A:00 X:FF Y:00 P:26 SP:FF CYC: 79 SL:34
C7AB  29 80     AND #$80                        A:10 X:FF Y:00 P:24 SP:FF CYC: 91 SL:34
C7AD  F0 F9     BEQ $C7A8                       A:00 X:FF Y:00 P:26 SP:FF CYC: 97 SL:34
C7A8  AD 02 20  LDA $2002 = FF                  A:00 X:FF Y:00 P:26 SP:FF CYC:106 SL:34
C7AB  29 80     AND #$80                        A:10 X:FF Y:00 P:24 SP:FF CYC:118 SL:34
C7AD  F0 F9     BEQ $C7A8                       A:00 X:FF Y:00 P:26 SP:FF CYC:124 SL:34
C7A8  AD 02 20  LDA $2002 = FF                  A:00 X:FF Y:00 P:26 SP:FF CYC:133 SL:34
C7AB  29 80     AND #$80                        A:10 X:FF Y:00 P:24 SP:FF CYC:145 SL:34
C7AD  F0 F9     BEQ $C7A8                       A:00 X:FF Y:00 P:26 SP:FF CYC:151 SL:34
C7A8  AD 02 20  LDA $2002 = FF                  A:00 X:FF Y:00 P:26 SP:FF CYC:160 SL:34
C7AB  29 80     AND #$80                        A:10 X:FF Y:00 P:24 SP:FF CYC:172 SL:34
C7AD  F0 F9     BEQ $C7A8                       A:00 X:FF Y:00 P:26 SP:FF CYC:178 SL:34
C7A8  AD 02 20  LDA $2002 = FF                  A:00 X:FF Y:00 P:26 SP:FF CYC:187 SL:34
C7AB  29 80     AND #$80                        A:10 X:FF Y:00 P:24 SP:FF CYC:199 SL:34
C7AD  F0 F9     BEQ $C7A8                       A:00 X:FF Y:00 P:26 SP:FF CYC:205 SL:34
C7A8  AD 02 20  LDA $2002 = FF                  A:00 X:FF Y:00 P:26 SP:FF CYC:214 SL:34
C7AB  29 80     AND #$80                        A:10 X:FF Y:00 P:24 SP:FF CYC:226 SL:34
C7AD  F0 F9     BEQ $C7A8                       A:00 X:FF Y:00 P:26 SP:FF CYC:232 SL:34
C7A8  AD 02 20  LDA $2002 = FF                  A:00 X:FF Y:00 P:26 SP:FF CYC:241 SL:34
C7AB  29 80     AND #$80                        A:10 X:FF Y:00 P:24 SP:FF CYC:253 SL:34
C7AD  F0 F9     BEQ $C7A8                       A:00 X:FF Y:00 P:26 SP:FF CYC:259 SL:34
C7A8  AD 02 20  LDA $2002 = FF                  A:00 X:FF Y:00 P:26 SP:FF CYC:268 SL:34
C7AB  29 80     AND #$80                        A:10 X:FF Y:00 P:24 SP:FF CYC:280 SL:34
C7AD  F0 F9     BEQ $C7A8                       A:00 X:FF Y:00 P:26 SP:FF CYC:286 SL:34
C7A8  AD 02 20  LDA $2002 = FF                  A:00 X:FF Y:00 P:26 SP:FF CYC:295 SL:34
C7AB  29 80     AND #$80                        A:10 X:FF Y:00 P:24 SP:FF CYC:307 SL:34
C7AD  F0 F9     BEQ $C7A8                       A:00 X:FF Y:00 P:26 SP:FF CYC:313 SL:34
C7A8  AD 02 20  LDA $2002 = FF                  A:00 X:FF Y:00 P:26 SP:FF CYC:322 SL:34
C7AB  29 80     AND #$80                        A:10 X:FF Y:00 P:24 SP:FF CYC:334 SL:34
C7AD  F0 F9     BEQ $C7A8                       A:00 X:FF Y:00 P:26 SP:FF CYC:340 SL:34
C7A8  AD 02 20  LDA $2002 = FF                  A:00 X:FF Y:00 P:26 SP:FF CYC:  8 SL:35
C7AB  29 80     AND #$80                        A:10 X:FF Y:00 P:24 SP:FF CYC: 20 SL:35
C7AD  F0 F9     BEQ $C7A8                       A:00 X:FF Y:00 P:26 SP:FF CYC: 26 SL:35
C7A8  AD 02 20  LDA $2002 = FF                  A:00 X:FF Y:00 P:26 SP:FF CYC: 35 SL:35
C7AB  29 80     AND #$80                        A:10 X:FF Y:00 P:24 SP:FF CYC: 47 SL:35
C7AD  F0 F9     BEQ $C7A8                       A:00 X:FF Y:00 P:26 SP:FF CYC: 53 SL:35
C7A8  AD 02 20  LDA $2002 = FF                  A:00 X:FF Y:00 P:26 SP:FF CYC: 62 SL:35
C7AB  29 80     AND #$80                        A:10 X:FF Y:00 P:24 SP:FF CYC: 74 SL:35
C7AD  F0 F9     BEQ $C7A8                       A:00 X:FF Y:00 P:26 SP:FF CYC: 80 SL:35
C7A8  AD 02 20  LDA $2002 = FF                  A:00 X:FF Y:00 P:26 SP:FF CYC: 89 SL:35
C7AB  29 80     AND #$80                        A:10 X:FF Y:00 P:24 SP:FF CYC:101 SL:35
C7AD  F0 F9     BEQ $C7A8                       A:00 X:FF Y:00 P:26 SP:FF CYC:107 SL:35
C7A8  AD 02 20  LDA $2002 = FF                  A:00 X:FF Y:00 P:26 SP:FF CYC:116 SL:35
C7AB  29 80     AND #$80                        A:10 X:FF Y:00 P:24 SP:FF CYC:128 SL:35
C7AD  F0 F9     BEQ $C7A8                       A:00 X:FF Y:00 P:26 SP:FF CYC:134 SL:35
C7A8  AD 02 20  LDA $2002 = FF                  A:00 X:FF Y:00 P:26 SP:FF CYC:143 SL:35
C7AB  29 80     AND #$80                        A:10 X:FF Y:00 P:24 SP:FF CYC:155 SL:35
C7AD  F0 F9     BEQ $C7A8                       A:00 X:FF Y:00 P:26 SP:FF CYC:161 SL:35
C7A8  AD 02 20  LDA $2002 = FF                  A:00 X:FF Y:00 P:26 SP:FF CYC:170 SL:35
C7AB  29 80     AND #$80                        A:10 X:FF Y:00 P:24 SP:FF CYC:182 SL:35
C7AD  F0 F9     BEQ $C7A8                       A:00 X:FF Y:00 P:26 SP:FF CYC:188 SL:35
C7A8  AD 02 20  LDA $2002 = FF                  A:00 X:FF Y:00 P:26 SP:FF CYC:197 SL:35
C7AB  29 80     AND #$80                        A:10 X:FF Y:00 P:24 SP:FF CYC:209 SL:35
C7AD  F0 F9     BEQ $C7A8                       A:00 X:FF Y:00 P:26 SP:FF CYC:215 SL:35
C7A8  AD 02 20  LDA $2002 = FF                  A:00 X:FF Y:00 P:26 SP:FF CYC:224 SL:35
C7AB  29 80     AND #$80                        A:10 X:FF Y:00 P:24 SP:FF CYC:236 SL:35
C7AD  F0 F9     BEQ $C7A8                       A:00 X:FF Y:00 P:26 SP:FF CYC:242 SL:35
C7A8  AD 02 20  LDA $2002 = FF                  A:00 X:FF Y:00 P:26 SP:FF CYC:251 SL:35
C7AB  29 80     AND #$80                        A:10 X:FF Y:00 P:24 SP:FF CYC:263 SL:35
C7AD  F0 F9     BEQ $C7A8                       A:00 X:FF Y:00 P:26 SP:FF CYC:269 SL:35
C7A8  AD 02 20  LDA $2002 = FF                  A:00 X:FF Y:00 P:26 SP:FF CYC:278 SL:35
C7AB  29 80     AND #$80                        A:10 X:FF Y:00 P:24 SP:FF CYC:290 SL:35
C7AD  F0 F9     BEQ $C7A8                       A:00 X:FF Y:00 P:26 SP:FF CYC:296 SL:35
C7A8  AD 02 20  LDA $2002 = FF                  A:00 X:FF Y:00 P:26 SP:FF CYC:305 SL:35
C7AB  29 80     AND #$80                        A:10 X:FF Y:00 P:24 SP:FF CYC:317 SL:35
C7AD  F0 F9     BEQ $C7A8                       A:00 X:FF Y:00 P:26 SP:FF CYC:323 SL:35
C7A8  AD 02 20  LDA $2002 = FF                  A:00 X:FF Y:00 P:26 SP:FF CYC:332 SL:35
C7AB  29 80     AND #$80                        A:10 X:FF Y:00 P:24 SP:FF CYC:  3 SL:36
C7AD  F0 F9     BEQ $C7A8                       A:00 X:FF Y:00 P:26 SP:FF CYC:  9 SL:36
C7A8  AD 02 20  LDA $2002 = FF                  A:00 X:FF Y:00 P:26 SP:FF CYC: 18 SL:36
C7AB  29 80     AND #$80                        A:10 X:FF Y:00 P:24 SP:FF CYC: 30 SL:36
C7AD  F0 F9     BEQ $C7A8                       A:00 X:FF Y:00 P:26 SP:FF CYC: 36 SL:36
C7A8  AD 02 20  LDA $2002 = FF                  A:00 X:FF Y:00 P:26 SP:FF CYC: 45 SL:36
C7AB  29 80     AND #$80                        A:10 X:FF Y:00 P:24 SP:FF CYC: 57 SL:36
C7AD  F0 F9     BEQ $C7A8                       A:00 X:FF Y:00 P:26 SP:FF CYC: 63 SL:36
C7A8  AD 02 20  LDA $2002 = FF                  A:00 X:FF Y:00 P:26 SP:FF CYC: 72 SL:36
C7AB  29 80     AND #$80                        A:10 X:FF Y:00 P:24 SP:FF CYC: 84 SL:36
C7AD  F0 F9     BEQ $C7A8                       A:00 X:FF Y:00 P:26 SP:FF CYC: 90 SL:36
C7A8  AD 02 20  LDA $2002 = FF                  A:00 X:FF Y:00 P:26 SP:FF CYC: 99 SL:36
C7AB  29 80     AND #$80                        A:10 X:FF Y:00 P:24 SP:FF CYC:111 SL:36
C7AD  F0 F9     BEQ $C7A8                       A:00 X:FF Y:00 P:26 SP:FF CYC:117 SL:36
C7A8  AD 02 20  LDA $2002 = FF                  A:00 X:FF Y:00 P:26 SP:FF CYC:126 SL:36
C7AB  29 80     AND #$80                        A:10 X:FF Y:00 P:24 SP:FF CYC:138 SL:36
C7AD  F0 F9     BEQ $C7A8                       A:00 X:FF Y:00 P:26 SP:FF CYC:144 SL:36
C7A8  AD 02 20  LDA $2002 = FF                  A:00 X:FF Y:00 P:26 SP:FF CYC:153 SL:36
C7AB  29 80     AND #$80                        A:10 X:FF Y:00 P:24 SP:FF CYC:165 SL:36
C7AD  F0 F9     BEQ $C7A8                       A:00 X:FF Y:00 P:26 SP:FF CYC:171 SL:36
C7A8  AD 02 20  LDA $2002 = FF                  A:00 X:FF Y:00 P:26 SP:FF CYC:180 SL:36
C7AB  29 80     AND #$80                        A:10 X:FF Y:00 P:24 SP:FF CYC:192 SL:36
C7AD  F0 F9     BEQ $C7A8                       A:00 X:FF Y:00 P:26 SP:FF CYC:198 SL:36
C7A8  AD 02 20  LDA $2002 = FF                  A:00 X:FF Y:00 P:26 SP:FF CYC:207 SL:36
C7AB  29 80     AND #$80                        A:10 X:FF Y:00 P:24 SP:FF CYC:219 SL:36
C7AD  F0 F9     BEQ $C7A8                       A:00 X:FF Y:00 P:26 SP:FF CYC:225 SL:36
C7A8  AD 02 20  LDA $2002 = FF                  A:00 X:FF Y:00 P:26 SP:FF CYC:234 SL:36
C7AB  29 80     AND #$80                        A:10 X:FF Y:00 P:24 SP:FF CYC:246 SL:36
C7AD  F0 F9     BEQ $C7A8                       A:00 X:FF Y:00 P:26 SP:FF CYC:252 SL:36
C7A8  AD 02 20  LDA $2002 = FF                  A:00 X:FF Y:00 P:26 SP:FF CYC:261 SL:36
C7AB  29 80     AND #$80                        A:10 X:FF Y:00 P:24 SP:FF CYC:273 SL:36
C7AD  F0 F9     BEQ $C7A8                       A:00 X:FF Y:00 P:26 SP:FF CYC:279 SL:36
C7A8  AD 02 20  LDA $2002 = FF                  A:00 X:FF Y:00 P:26 SP:FF CYC:288 SL:36
C7AB  29 80     AND #$80                        A:10 X:FF Y:00 P:24 SP:FF CYC:300 SL:36
C7AD  F0 F9     BEQ $C7A8                       A:00 X:FF Y:00 P:26 SP:FF CYC:306 SL:36
C7A8  AD 02 20  LDA $2002 = FF                  A:00 X:FF Y:00 P:26 SP:FF CYC:315 SL:36
C7AB  29 80     AND #$80                        A:10 X:FF Y:00 P:24 SP:FF CYC:327 SL:36
C7AD  F0 F9     BEQ $C7A8                       A:00 X:FF Y:00 P:26 SP:FF CYC:333 SL:36
C7A8  AD 02 20  LDA $2002 = FF                  A:00 X:FF Y:00 P:26 SP:FF CYC:  1 SL:37
C7AB  29 80     AND #$80                        A:10 X:FF Y:00 P:24 SP:FF CYC: 13 SL:37
C7AD  F0 F9     BEQ $C7A8                       A:00 X:FF Y:00 P:26 SP:FF CYC: 19 SL:37
C7A8  AD 02 20  LDA $2002 = FF                  A:00 X:FF Y:00 P:26 SP:FF CYC: 28 SL:37
C7AB  29 80     AND #$80                        A:10 X:FF Y:00 P:24 SP:FF CYC: 40 SL:37
C7AD  F0 F9     BEQ $C7A8                       A:00 X:FF Y:00 P:26 SP:FF CYC: 46 SL:37
C7A8  AD 02 20  LDA $2002 = FF                  A:00 X:FF Y:00 P:26 SP:FF CYC: 55 SL:37
C7AB  29 80     AND #$80                        A:10 X:FF Y:00 P:24 SP:FF CYC: 67 SL:37
C7AD  F0 F9     BEQ $C7A8                       A:00 X:FF Y:00 P:26 SP:FF CYC: 73 SL:37
C7A8  AD 02 20  LDA $2002 = FF                  A:00 X:FF Y:00 P:26 SP:FF CYC: 82 SL:37
C7AB  29 80     AND #$80                        A:10 X:FF Y:00 P:24 SP:FF CYC: 94 SL:37
C7AD  F0 F9     BEQ $C7A8                       A:00 X:FF Y:00 P:26 SP:FF CYC:100 SL:37
C7A8  AD 02 20  LDA $2002 = FF                  A:00 X:FF Y:00 P:26 SP:FF CYC:109 SL:37
C7AB  29 80     AND #$80                        A:10 X:FF Y:00 P:24 SP:FF CYC:121 SL:37
C7AD  F0 F9     BEQ $C7A8                       A:00 X:FF Y:00 P:26 SP:FF CYC:127 SL:37
C7A8  AD 02 20  LDA $2002 = FF                  A:00 X:FF Y:00 P:26 SP:FF CYC:136 SL:37
C7AB  29 80     AND #$80                        A:10 X:FF Y:00 P:24 SP:FF CYC:148 SL:37
C7AD  F0 F9     BEQ $C7A8                       A:00 X:FF Y:00 P:26 SP:FF CYC:154 SL:37
C7A8  AD 02 20  LDA $2002 = FF                  A:00 X:FF Y:00 P:26 SP:FF CYC:163 SL:37
C7AB  29 80     AND #$80                        A:10 X:FF Y:00 P:24 SP:FF CYC:175 SL:37
C7AD  F0 F9     BEQ $C7A8                       A:00 X:FF Y:00 P:26 SP:FF CYC:181 SL:37
C7A8  AD 02 20  LDA $2002 = FF                  A:00 X:FF Y:00 P:26 SP:FF CYC:190 SL:37
C7AB  29 80     AND #$80                        A:10 X:FF Y:00 P:24 SP:FF CYC:202 SL:37
C7AD  F0 F9     BEQ $C7A8                       A:00 X:FF Y:00 P:26 SP:FF CYC:208 SL:37
C7A8  AD 02 20  LDA $2002 = FF                  A:00 X:FF Y:00 P:26 SP:FF CYC:217 SL:37
C7AB  29 80     AND #$80                        A:10 X:FF Y:00 P:24 SP:FF CYC:229 SL:37
C7AD  F0 F9     BEQ $C7A8                       A:00 X:FF Y:00 P:26 SP:FF CYC:235 SL:37
C7A8  AD 02 20  LDA $2002 = FF                  A:00 X:FF Y:00 P:26 SP:FF CYC:244 SL:37
C7AB  29 80     AND #$80                        A:10 X:FF Y:00 P:24 SP:FF CYC:256 SL:37
C7AD  F0 F9     BEQ $C7A8                       A:00 X:FF Y:00 P:26 SP:FF CYC:262 SL:37
C7A8  AD 02 20  LDA $2002 = FF                  A:00 X:FF Y:00 P:26 SP:FF CYC:271 SL:37
C7AB  29 80     AND #$80                        A:10 X:FF Y:00 P:24 SP:FF CYC:283 SL:37
C7AD  F0 F9     BEQ $C7A8                       A:00 X:FF Y:00 P:26 SP:FF CYC:289 SL:37
C7A8  AD 02 20  LDA $2002 = FF                  A:00 X:FF Y:00 P:26 SP:FF CYC:298 SL:37
C7AB  29 80     AND #$80                        A:10 X:FF Y:00 P:24 SP:FF CYC:310 SL:37
C7AD  F0 F9     BEQ $C7A8                       A:00 X:FF Y:00 P:26 SP:FF CYC:316 SL:37
C7A8  AD 02 20  LDA $2002 = FF                  A:00 X:FF Y:00 P:26 SP:FF CYC:325 SL:37
C7AB  29 80     AND #$80                        A:10 X:FF Y:00 P:24 SP:FF CYC:337 SL:37
C7AD  F0 F9     BEQ $C7A8                       A:00 X:FF Y:00 P:26 SP:FF CYC:  2 SL:38
C7A8  AD 02 20  LDA $2002 = FF                  A:00 X:FF Y:00 P:26 SP:FF CYC: 11 SL:38
C7AB  29 80     AND #$80                        A:10 X:FF Y:00 P:24 SP:FF CYC: 23 SL:38
C7AD  F0 F9     BEQ $C7A8                       A:00 X:FF Y:00 P:26 SP:FF CYC: 29 SL:38
C7A8  AD 02 20  LDA $2002 = FF                  A:00 X:FF Y:00 P:26 SP:FF CYC: 38 SL:38
C7AB  29 80     AND #$80                        A:10 X:FF Y:00 P:24 SP:FF CYC: 50 SL:38
C7AD  F0 F9     BEQ $C7A8                       A:00 X:FF Y:00 P:26 SP:FF CYC: 56 SL:38
C7A8  AD 02 20  LDA $2002 = FF                  A:00 X:FF Y:00 P:26 SP:FF CYC: 65 SL:38
C7AB  29 80     AND #$80                        A:10 X:FF Y:00 P:24 SP:FF CYC: 77 SL:38
C7AD  F0 F9     BEQ $C7A8                       A:00 X:FF Y:00 P:26 SP:FF CYC: 83 SL:38
C7A8  AD 02 20  LDA $2002 = FF                  A:00 X:FF Y:00 P:26 SP:FF CYC: 92 SL:38
C7AB  29 80     AND #$80                        A:10 X:FF Y:00 P:24 SP:FF CYC:104 SL:38
C7AD  F0 F9     BEQ $C7A8                       A:00 X:FF Y:00 P:26 SP:FF CYC:110 SL:38
C7A8  AD 02 20  LDA $2002 = FF                  A:00 X:FF Y:00 P:26 SP:FF CYC:119 SL:38
C7AB  29 80     AND #$80                        A:10 X:FF Y:00 P:24 SP:FF CYC:131 SL:38
C7AD  F0 F9     BEQ $C7A8                       A:00 X:FF Y:00 P:26 SP:FF CYC:137 SL:38
C7A8  AD 02 20  LDA $2002 = FF                  A:00 X:FF Y:00 P:26 SP:FF CYC:146 SL:38
C7AB  29 80     AND #$80                        A:10 X:FF Y:00 P:24 SP:FF CYC:158 SL:38
C7AD  F0 F9     BEQ $C7A8                       A:00 X:FF Y:00 P:26 SP:FF CYC:164 SL:38
C7A8  AD 02 20  LDA $2002 = FF                  A:00 X:FF Y:00 P:26 SP:FF CYC:173 SL:38
C7AB  29 80     AND #$80                        A:10 X:FF Y:00 P:24 SP:FF CYC:185 SL:38
C7AD  F0 F9     BEQ $C7A8                       A:00 X:FF Y:00 P:26 SP:FF CYC:191 SL:38
C7A8  AD 02 20  LDA $2002 = FF                  A:00 X:FF Y:00 P:26 SP:FF CYC:200 SL:38
C7AB  29 80     AND #$80                        A:10 X:FF Y:00 P:24 SP:FF CYC:212 SL:38
C7AD  F0 F9     BEQ $C7A8                       A:00 X:FF Y:00 P:26 SP:FF CYC:218 SL:38
C7A8  AD 02 20  LDA $2002 = FF                  A:00 X:FF Y:00 P:26 SP:FF CYC:227 SL:38
C7AB  29 80     AND #$80                        A:10 X:FF Y:00 P:24 SP:FF CYC:239 SL:38
C7AD  F0 F9     BEQ $C7A8                       A:00 X:FF Y:00 P:26 SP:FF CYC:245 SL:38
C7A8  AD 02 20  LDA $2002 = FF                  A:00 X:FF Y:00 P:26 SP:FF CYC:254 SL:38
C7AB  29 80     AND #$80                        A:10 X:FF Y:00 P:24 SP:FF CYC:266 SL:38
C7AD  F0 F9     BEQ $C7A8                       A:00 X:FF Y:00 P:26 SP:FF CYC:272 SL:38
C7A8  AD 02 20  LDA $2002 = FF                  A:00 X:FF Y:00 P:26 SP:FF CYC:281 SL:38
C7AB  29 80     AND #$80                        A:10 X:FF Y:00 P:24 SP:FF CYC:293 SL:38
C7AD  F0 F9     BEQ $C7A8                       A:00 X:FF Y:00 P:26 SP:FF CYC:299 SL:38
C7A8  AD 02 20  LDA $2002 = FF                  A:00 X:FF Y:00 P:26 SP:FF CYC:308 SL:38
C7AB  29 80     AND #$80                        A:10 X:FF Y:00 P:24 SP:FF CYC:320 SL:38
C7AD  F0 F9     BEQ $C7A8                       A:00 X:FF Y:00 P:26 SP:FF CYC:326 SL:38
C7A8  AD 02 20  LDA $2002 = FF                  A:00 X:FF Y:00 P:26 SP:FF CYC:335 SL:38
C7AB  29 80     AND #$80                        A:10 X:FF Y:00 P:24 SP:FF CYC:  6 SL:39
C7AD  F0 F9     BEQ $C7A8                       A:00 X:FF Y:00 P:26 SP:FF CYC: 12 SL:39
C7A8  AD 02 20  LDA $2002 = FF                  A:00 X:FF Y:00 P:26 SP:FF CYC: 21 SL:39
C7AB  29 80     AND #$80                        A:10 X:FF Y:00 P:24 SP:FF CYC: 33 SL:39
C7AD  F0 F9     BEQ $C7A8                       A:00 X:FF Y:00 P:26 SP:FF CYC: 39 SL:39
C7A8  AD 02 20  LDA $2002 = FF                  A:00 X:FF Y:00 P:26 SP:FF CYC: 48 SL:39
C7AB  29 80     AND #$80                        A:10 X:FF Y:00 P:24 SP:FF CYC: 60 SL:39
C7AD  F0 F9     BEQ $C7A8                       A:00 X:FF Y:00 P:26 SP:FF CYC: 66 SL:39
C7A8  AD 02 20  LDA $2002 = FF                  A:00 X:FF Y:00 P:26 SP:FF CYC: 75 SL:39
C7AB  29 80     AND #$80                        A:10 X:FF Y:00 P:24 SP:FF CYC: 87 SL:39
C7AD  F0 F9     BEQ $C7A8                       A:00 X:FF Y:00 P:26 SP:FF CYC: 93 SL:39
C7A8  AD 02 20  LDA $2002 = FF                  A:00 X:FF Y:00 P:26 SP:FF CYC:102 SL:39
C7AB  29 80     AND #$80                        A:10 X:FF Y:00 P:24 SP:FF CYC:114 SL:39
C7AD  F0 F9     BEQ $C7A8                       A:00 X:FF Y:00 P:26 SP:FF CYC:120 SL:39
C7A8  AD 02 20  LDA $2002 = FF                  A:00 X:FF Y:00 P:26 SP:FF CYC:129 SL:39
C7AB  29 80     AND #$80                        A:10 X:FF Y:00 P:24 SP:FF CYC:141 SL:39
C7AD  F0 F9     BEQ $C7A8                       A:00 X:FF Y:00 P:26 SP:FF CYC:147 SL:39
C7A8  AD 02 20  LDA $2002 = FF                  A:00 X:FF Y:00 P:26 SP:FF CYC:156 SL:39
C7AB  29 80     AND #$80                        A:10 X:FF Y:00 P:24 SP:FF CYC:168 SL:39
C7AD  F0 F9     BEQ $C7A8                       A:00 X:FF Y:00 P:26 SP:FF CYC:174 SL:39
C7A8  AD 02 20  LDA $2002 = FF                  A:00 X:FF Y:00 P:26 SP:FF CYC:183 SL:39
C7AB  29 80     AND #$80                        A:10 X:FF Y:00 P:24 SP:FF CYC:195 SL:39
C7AD  F0 F9     BEQ $C7A8                       A:00 X:FF Y:00 P:26 SP:FF CYC:201 SL:39
C7A8  AD 02 20  LDA $2002 = FF                  A:00 X:FF Y:00 P:26 SP:FF CYC:210 SL:39
C7AB  29 80     AND #$80                        A:10 X:FF Y:00 P:24 SP:FF CYC:222 SL:39
C7AD  F0 F9     BEQ $C7A8                       A:00 X:FF Y:00 P:26 SP:FF CYC:228 SL:39
C7A8  AD 02 20  LDA $2002 = FF                  A:00 X:FF Y:00 P:26 SP:FF CYC:237 SL:39
C7AB  29 80     AND #$80                        A:10 X:FF Y:00 P:24 SP:FF CYC:249 SL:39
C7AD  F0 F9     BEQ $C7A8                       A:00 X:FF Y:00 P:26 SP:FF CYC:255 SL:39
C7A8  AD 02 20  LDA $2002 = FF                  A:00 X:FF Y:00 P:26 SP:FF CYC:264 SL:39
C7AB  29 80     AND #$80                        A:10 X:FF Y:00 P:24 SP:FF CYC:276 SL:39
C7AD  F0 F9     BEQ $C7A8                       A:00 X:FF Y:00 P:26 SP:FF CYC:282 SL:39
C7A8  AD 02 20  LDA $2002 = FF                  A:00 X:FF Y:00 P:26 SP:FF CYC:291 SL:39
C7AB  29 80     AND #$80                        A:10 X:FF Y:00 P:24 SP:FF CYC:303 SL:39
C7AD  F0 F9     BEQ $C7A8                       A:00 X:FF Y:00 P:26 SP:FF CYC:309 SL:39
C7A8  AD 02 20  LDA $2002 = FF                  A:00 X:FF Y:00 P:26 SP:FF CYC:318 SL:39
C7AB  29 80     AND #$80                        A:10 X:FF Y:00 P:24 SP:FF CYC:330 SL:39
C7AD  F0 F9     BEQ $C7A8                       A:00 X:FF Y:00 P:26 SP:FF CYC:336 SL:39
C7A8  AD 02 20  LDA $2002 = FF                  A:00 X:FF Y:00 P:26 SP:FF CYC:  4 SL:40
C7AB  29 80     AND #$80                        A:10 X:FF Y:00 P:24 SP:FF CYC: 16 SL:40
C7AD  F0 F9     BEQ $C7A8                       A:00 X:FF Y:00 P:26 SP:FF CYC: 22 SL:40
C7A8  AD 02 20  LDA $2002 = FF                  A:00 X:FF Y:00 P:26 SP:FF CYC: 31 SL:40
C7AB  29 80     AND #$80                        A:10 X:FF Y:00 P:24 SP:FF CYC: 43 SL:40
C7AD  F0 F9     BEQ $C7A8                       A:00 X:FF Y:00 P:26 SP:FF CYC: 49 SL:40
C7A8  AD 02 20  LDA $2002 = FF                  A:00 X:FF Y:00 P:26 SP:FF CYC: 58 SL:40
C7AB  29 80     AND #$80                        A:10 X:FF Y:00 P:24 SP:FF CYC: 70 SL:40
C7AD  F0 F9     BEQ $C7A8                       A:00 X:FF Y:00 P:26 SP:FF CYC: 76 SL:40
C7A8  AD 02 20  LDA $2002 = FF                  A:00 X:FF Y:00 P:26 SP:FF CYC: 85 SL:40
C7AB  29 80     AND #$80                        A:10 X:FF Y:00 P:24 SP:FF CYC: 97 SL:40
C7AD  F0 F9     BEQ $C7A8                       A:00 X:FF Y:00 P:26 SP:FF CYC:103 SL:40
C7A8  AD 02 20  LDA $2002 = FF                  A:00 X:FF Y:00 P:26 SP:FF CYC:112 SL:40
C7AB  29 80     AND #$80                        A:10 X:FF Y:00 P:24 SP:FF CYC:124 SL:40
C7AD  F0 F9     BEQ $C7A8                       A:00 X:FF Y:00 P:26 SP:FF CYC:130 SL:40
C7A8  AD 02 20  LDA $2002 = FF                  A:00 X:FF Y:00 P:26 SP:FF CYC:139 SL:40
C7AB  29 80     AND #$80                        A:10 X:FF Y:00 P:24 SP:FF CYC:151 SL:40
C7AD  F0 F9     BEQ $C7A8                       A:00 X:FF Y:00 P:26 SP:FF CYC:157 SL:40
C7A8  AD 02 20  LDA $2002 = FF                  A:00 X:FF Y:00 P:26 SP:FF CYC:166 SL:40
C7AB  29 80     AND #$80                        A:10 X:FF Y:00 P:24 SP:FF CYC:178 SL:40
C7AD  F0 F9     BEQ $C7A8                       A:00 X:FF Y:00 P:26 SP:FF CYC:184 SL:40
C7A8  AD 02 20  LDA $2002 = FF                  A:00 X:FF Y:00 P:26 SP:FF CYC:193 SL:40
C7AB  29 80     AND #$80                        A:10 X:FF Y:00 P:24 SP:FF CYC:205 SL:40
C7AD  F0 F9     BEQ $C7A8                       A:00 X:FF Y:00 P:26 SP:FF CYC:211 SL:40
C7A8  AD 02 20  LDA $2002 = FF                  A:00 X:FF Y:00 P:26 SP:FF CYC:220 SL:40
C7AB  29 80     AND #$80                        A:10 X:FF Y:00 P:24 SP:FF CYC:232 SL:40
C7AD  F0 F9     BEQ $C7A8                       A:00 X:FF Y:00 P:26 SP:FF CYC:238 SL:40
C7A8  AD 02 20  LDA $2002 = FF                  A:00 X:FF Y:00 P:26 SP:FF CYC:247 SL:40
C7AB  29 80     AND #$80                        A:10 X:FF Y:00 P:24 SP:FF CYC:259 SL:40
C7AD  F0 F9     BEQ $C7A8                       A:00 X:FF Y:00 P:26 SP:FF CYC:265 SL:40
C7A8  AD 02 20  LDA $2002 = FF                  A:00 X:FF Y:00 P:26 SP:FF CYC:274 SL:40
C7AB  29 80     AND #$80                        A:10 X:FF Y:00 P:24 SP:FF CYC:286 SL:40
C7AD  F0 F9     BEQ $C7A8                       A:00 X:FF Y:00 P:26 SP:FF CYC:292 SL:40
C7A8  AD 02 20  LDA $2002 = FF                  A:00 X:FF Y:00 P:26 SP:FF CYC:301 SL:40
C7AB  29 80     AND #$80                        A:10 X:FF Y:00 P:24 SP:FF CYC:313 SL:40
C7AD  F0 F9     BEQ $C7A8                       A:00 X:FF Y:00 P:26 SP:FF CYC:319 SL:40
C7A8  AD 02 20  LDA $2002 = FF                  A:00 X:FF Y:00 P:26 SP:FF CYC:328 SL:40
C7AB  29 80     AND #$80                        A:10 X:FF Y:00 P:24 SP:FF CYC:340 SL:40
C7AD  F0 F9     BEQ $C7A8                       A:00 X:FF Y:00 P:26 SP:FF CYC:  5 SL:41
C7A8  AD 02 20  LDA $2002 = FF                  A:00 X:FF Y:00 P:26 SP:FF CYC: 14 SL:41
C7AB  29 80     AND #$80                        A:10 X:FF Y:00 P:24 SP:FF CYC: 26 SL:41
C7AD  F0 F9     BEQ $C7A8                       A:00 X:FF Y:00 P:26 SP:FF CYC: 32 SL:41
C7A8  AD 02 20  LDA $2002 = FF                  A:00 X:FF Y:00 P:26 SP:FF CYC: 41 SL:41
C7AB  29 80     AND #$80                        A:10 X:FF Y:00 P:24 SP:FF CYC: 53 SL:41
C7AD  F0 F9     BEQ $C7A8                       A:00 X:FF Y:00 P:26 SP:FF CYC: 59 SL:41
C7A8  AD 02 20  LDA $2002 = FF                  A:00 X:FF Y:00 P:26 SP:FF CYC: 68 SL:41
C7AB  29 80     AND #$80                        A:10 X:FF Y:00 P:24 SP:FF CYC: 80 SL:41
C7AD  F0 F9     BEQ $C7A8                       A:00 X:FF Y:00 P:26 SP:FF CYC: 86 SL:41
C7A8  AD 02 20  LDA $2002 = FF                  A:00 X:FF Y:00 P:26 SP:FF CYC: 95 SL:41
C7AB  29 80     AND #$80                        A:10 X:FF Y:00 P:24 SP:FF CYC:107 SL:41
C7AD  F0 F9     BEQ $C7A8                       A:00 X:FF Y:00 P:26 SP:FF CYC:113 SL:41
C7A8  AD 02 20  LDA $2002 = FF                  A:00 X:FF Y:00 P:26 SP:FF CYC:122 SL:41
C7AB  29 80     AND #$80                        A:10 X:FF Y:00 P:24 SP:FF CYC:134 SL:41
C7AD  F0 F9     BEQ $C7A8                       A:00 X:FF Y:00 P:26 SP:FF CYC:140 SL:41
C7A8  AD 02 20  LDA $2002 = FF                  A:00 X:FF Y:00 P:26 SP:FF CYC:149 SL:41
C7AB  29 80     AND #$80                        A:10 X:FF Y:00 P:24 SP:FF CYC:161 SL:41
C7AD  F0 F9     BEQ $C7A8                       A:00 X:FF Y:00 P:26 SP:FF CYC:167 SL:41
C7A8  AD 02 20  LDA $2002 = FF                  A:00 X:FF Y:00 P:26 SP:FF CYC:176 SL:41
C7AB  29 80     AND #$80                        A:10 X:FF Y:00 P:24 SP:FF CYC:188 SL:41
C7AD  F0 F9     BEQ $C7A8                       A:00 X:FF Y:00 P:26 SP:FF CYC:194 SL:41
C7A8  AD 02 20  LDA $2002 = FF                  A:00 X:FF Y:00 P:26 SP:FF CYC:203 SL:41
C7AB  29 80     AND #$80                        A:10 X:FF Y:00 P:24 SP:FF CYC:215 SL:41
C7AD  F0 F9     BEQ $C7A8                       A:00 X:FF Y:00 P:26 SP:FF CYC:221 SL:41
C7A8  AD 02 20  LDA $2002 = FF                  A:00 X:FF Y:00 P:26 SP:FF CYC:230 SL:41
C7AB  29 80     AND #$80                        A:10 X:FF Y:00 P:24 SP:FF CYC:242 SL:41
C7AD  F0 F9     BEQ $C7A8                       A:00 X:FF Y:00 P:26 SP:FF CYC:248 SL:41
C7A8  AD 02 20  LDA $2002 = FF                  A:00 X:FF Y:00 P:26 SP:FF CYC:257 SL:41
C7AB  29 80     AND #$80                        A:10 X:FF Y:00 P:24 SP:FF CYC:269 SL:41
C7AD  F0 F9     BEQ $C7A8                       A:00 X:FF Y:00 P:26 SP:FF CYC:275 SL:41
C7A8  AD 02 20  LDA $2002 = FF                  A:00 X:FF Y:00 P:26 SP:FF CYC:284 SL:41
C7AB  29 80     AND #$80                        A:10 X:FF Y:00 P:24 SP:FF CYC:296 SL:41
C7AD  F0 F9     BEQ $C7A8                       A:00 X:FF Y:00 P:26 SP:FF CYC:302 SL:41
C7A8  AD 02 20  LDA $2002 = FF                  A:00 X:FF Y:00 P:26 SP:FF CYC:311 SL:41
C7AB  29 80     AND #$80                        A:10 X:FF Y:00 P:24 SP:FF CYC:323 SL:41
C7AD  F0 F9     BEQ $C7A8                       A:00 X:FF Y:00 P:26 SP:FF CYC:329 SL:41
C7A8  AD 02 20  LDA $2002 = FF                  A:00 X:FF Y:00 P:26 SP:FF CYC:338 SL:41
C7AB  29 80     AND #$80                        A:10 X:FF Y:00 P:24 SP:FF CYC:  9 SL:42
C7AD  F0 F9     BEQ $C7A8                       A:00 X:FF Y:00 P:26 SP:FF CYC: 15 SL:42
C7A8  AD 02 20  LDA $2002 = FF                  A:00 X:FF Y:00 P:26 SP:FF CYC: 24 SL:42
C7AB  29 80     AND #$80                        A:10 X:FF Y:00 P:24 SP:FF CYC: 36 SL:42
C7AD  F0 F9     BEQ $C7A8                       A:00 X:FF Y:00 P:26 SP:FF CYC: 42 SL:42
C7A8  AD 02 20  LDA $2002 = FF                  A:00 X:FF Y:00 P:26 SP:FF CYC: 51 SL:42
C7AB  29 80     AND #$80                        A:10 X:FF Y:00 P:24 SP:FF CYC: 63 SL:42
C7AD  F0 F9     BEQ $C7A8                       A:00 X:FF Y:00 P:26 SP:FF CYC: 69 SL:42
C7A8  AD 02 20  LDA $2002 = FF                  A:00 X:FF Y:00 P:26 SP:FF CYC: 78 SL:42
C7AB  29 80     AND #$80                        A:10 X:FF Y:00 P:24 SP:FF CYC: 90 SL:42
C7AD  F0 F9     BEQ $C7A8                       A:00 X:FF Y:00 P:26 SP:FF CYC: 96 SL:42
C7A8  AD 02 20  LDA $2002 = FF                  A:00 X:FF Y:00 P:26 SP:FF CYC:105 SL:42
C7AB  29 80     AND #$80                        A:10 X:FF Y:00 P:24 SP:FF CYC:117 SL:42
C7AD  F0 F9     BEQ $C7A8                       A:00 X:FF Y:00 P:26 SP:FF CYC:123 SL:42
C7A8  AD 02 20  LDA $2002 = FF                  A:00 X:FF Y:00 P:26 SP:FF CYC:132 SL:42
C7AB  29 80     AND #$80                        A:10 X:FF Y:00 P:24 SP:FF CYC:144 SL:42
C7AD  F0 F9     BEQ $C7A8                       A:00 X:FF Y:00 P:26 SP:FF CYC:150 SL:42
C7A8  AD 02 20  LDA $2002 = FF                  A:00 X:FF Y:00 P:26 SP:FF CYC:159 SL:42
C7AB  29 80     AND #$80                        A:10 X:FF Y:00 P:24 SP:FF CYC:171 SL:42
C7AD  F0 F9     BEQ $C7A8                       A:00 X:FF Y:00 P:26 SP:FF CYC:177 SL:42
C7A8  AD 02 20  LDA $2002 = FF                  A:00 X:FF Y:00 P:26 SP:FF CYC:186 SL:42
C7AB  29 80     AND #$80                        A:10 X:FF Y:00 P:24 SP:FF CYC:198 SL:42
C7AD  F0 F9     BEQ $C7A8                       A:00 X:FF Y:00 P:26 SP:FF CYC:204 SL:42
C7A8  AD 02 20  LDA $2002 = FF                  A:00 X:FF Y:00 P:26 SP:FF CYC:213 SL:42
C7AB  29 80     AND #$80                        A:10 X:FF Y:00 P:24 SP:FF CYC:225 SL:42
C7AD  F0 F9     BEQ $C7A8                       A:00 X:FF Y:00 P:26 SP:FF CYC:231 SL:42
C7A8  AD 02 20  LDA $2002 = FF                  A:00 X:FF Y:00 P:26 SP:FF CYC:240 SL:42
C7AB  29 80     AND #$80                        A:10 X:FF Y:00 P:24 SP:FF CYC:252 SL:42
C7AD  F0 F9     BEQ $C7A8                       A:00 X:FF Y:00 P:26 SP:FF CYC:258 SL:42
C7A8  AD 02 20  LDA $2002 = FF                  A:00 X:FF Y:00 P:26 SP:FF CYC:267 SL:42
C7AB  29 80     AND #$80                        A:10 X:FF Y:00 P:24 SP:FF CYC:279 SL:42
C7AD  F0 F9     BEQ $C7A8                       A:00 X:FF Y:00 P:26 SP:FF CYC:285 SL:42
C7A8  AD 02 20  LDA $2002 = FF                  A:00 X:FF Y:00 P:26 SP:FF CYC:294 SL:42
C7AB  29 80     AND #$80                        A:10 X:FF Y:00 P:24 SP:FF CYC:306 SL:42
C7AD  F0 F9     BEQ $C7A8                       A:00 X:FF Y:00 P:26 SP:FF CYC:312 SL:42
C7A8  AD 02 20  LDA $2002 = FF                  A:00 X:FF Y:00 P:26 SP:FF CYC:321 SL:42
C7AB  29 80     AND #$80                        A:10 X:FF Y:00 P:24 SP:FF CYC:333 SL:42
C7AD  F0 F9     BEQ $C7A8                       A:00 X:FF Y:00 P:26 SP:FF CYC:339 SL:42
C7A8  AD 02 20  LDA $2002 = FF                  A:00 X:FF Y:00 P:26 SP:FF CYC:  7 SL:43
C7AB  29 80     AND #$80                        A:10 X:FF Y:00 P:24 SP:FF CYC: 19 SL:43
C7AD  F0 F9     BEQ $C7A8                       A:00 X:FF Y:00 P:26 SP:FF CYC: 25 SL:43
C7A8  AD 02 20  LDA $2002 = FF                  A:00 X:FF Y:00 P:26 SP:FF CYC: 34 SL:43
C7AB  29 80     AND #$80                        A:10 X:FF Y:00 P:24 SP:FF CYC: 46 SL:43
C7AD  F0 F9     BEQ $C7A8                       A:00 X:FF Y:00 P:26 SP:FF CYC: 52 SL:43
C7A8  AD 02 20  LDA $2002 = FF                  A:00 X:FF Y:00 P:26 SP:FF CYC: 61 SL:43
C7AB  29 80     AND #$80                        A:10 X:FF Y:00 P:24 SP:FF CYC: 73 SL:43
C7AD  F0 F9     BEQ $C7A8                       A:00 X:FF Y:00 P:26 SP:FF CYC: 79 SL:43
C7A8  AD 02 20  LDA $2002 = FF                  A:00 X:FF Y:00 P:26 SP:FF CYC: 88 SL:43
C7AB  29 80     AND #$80                        A:10 X:FF Y:00 P:24 SP:FF CYC:100 SL:43
C7AD  F0 F9     BEQ $C7A8                       A:00 X:FF Y:00 P:26 SP:FF CYC:106 SL:43
C7A8  AD 02 20  LDA $2002 = FF                  A:00 X:FF Y:00 P:26 SP:FF CYC:115 SL:43
C7AB  29 80     AND #$80                        A:10 X:FF Y:00 P:24 SP:FF CYC:127 SL:43
C7AD  F0 F9     BEQ $C7A8                       A:00 X:FF Y:00 P:26 SP:FF CYC:133 SL:43
C7A8  AD 02 20  LDA $2002 = FF                  A:00 X:FF Y:00 P:26 SP:FF CYC:142 SL:43
C7AB  29 80     AND #$80                        A:10 X:FF Y:00 P:24 SP:FF CYC:154 SL:43
C7AD  F0 F9     BEQ $C7A8                       A:00 X:FF Y:00 P:26 SP:FF CYC:160 SL:43
C7A8  AD 02 20  LDA $2002 = FF                  A:00 X:FF Y:00 P:26 SP:FF CYC:169 SL:43
C7AB  29 80     AND #$80                        A:10 X:FF Y:00 P:24 SP:FF CYC:181 SL:43
C7AD  F0 F9     BEQ $C7A8                       A:00 X:FF Y:00 P:26 SP:FF CYC:187 SL:43
C7A8  AD 02 20  LDA $2002 = FF                  A:00 X:FF Y:00 P:26 SP:FF CYC:196 SL:43
C7AB  29 80     AND #$80                        A:10 X:FF Y:00 P:24 SP:FF CYC:208 SL:43
C7AD  F0 F9     BEQ $C7A8                       A:00 X:FF Y:00 P:26 SP:FF CYC:214 SL:43
C7A8  AD 02 20  LDA $2002 = FF                  A:00 X:FF Y:00 P:26 SP:FF CYC:223 SL:43
C7AB  29 80     AND #$80                        A:10 X:FF Y:00 P:24 SP:FF CYC:235 SL:43
C7AD  F0 F9     BEQ $C7A8                       A:00 X:FF Y:00 P:26 SP:FF CYC:241 SL:43
C7A8  AD 02 20  LDA $2002 = FF                  A:00 X:FF Y:00 P:26 SP:FF CYC:250 SL:43
C7AB  29 80     AND #$80                        A:10 X:FF Y:00 P:24 SP:FF CYC:262 SL:43
C7AD  F0 F9     BEQ $C7A8                       A:00 X:FF Y:00 P:26 SP:FF CYC:268 SL:43
C7A8  AD 02 20  LDA $2002 = FF                  A:00 X:FF Y:00 P:26 SP:FF CYC:277 SL:43
C7AB  29 80     AND #$80                        A:10 X:FF Y:00 P:24 SP:FF CYC:289 SL:43
C7AD  F0 F9     BEQ $C7A8                       A:00 X:FF Y:00 P:26 SP:FF CYC:295 SL:43
C7A8  AD 02 20  LDA $2002 = FF                  A:00 X:FF Y:00 P:26 SP:FF CYC:304 SL:43
C7AB  29 80     AND #$80                        A:10 X:FF Y:00 P:24 SP:FF CYC:316 SL:43
C7AD  F0 F9     BEQ $C7A8                       A:00 X:FF Y:00 P:26 SP:FF CYC:322 SL:43
C7A8  AD 02 20  LDA $2002 = FF                  A:00 X:FF Y:00 P:26 SP:FF CYC:331 SL:43
C7AB  29 80     AND #$80                        A:10 X:FF Y:00 P:24 SP:FF CYC:  2 SL:44
C7AD  F0 F9     BEQ $C7A8                       A:00 X:FF Y:00 P:26 SP:FF CYC:  8 SL:44
C7A8  AD 02 20  LDA $2002 = FF                  A:00 X:FF Y:00 P:26 SP:FF CYC: 17 SL:44
C7AB  29 80     AND #$80                        A:10 X:FF Y:00 P:24 SP:FF CYC: 29 SL:44
C7AD  F0 F9     BEQ $C7A8                       A:00 X:FF Y:00 P:26 SP:FF CYC: 35 SL:44
C7A8  AD 02 20  LDA $2002 = FF                  A:00 X:FF Y:00 P:26 SP:FF CYC: 44 SL:44
C7AB  29 80     AND #$80                        A:10 X:FF Y:00 P:24 SP:FF CYC: 56 SL:44
C7AD  F0 F9     BEQ $C7A8                       A:00 X:FF Y:00 P:26 SP:FF CYC: 62 SL:44
C7A8  AD 02 20  LDA $2002 = FF                  A:00 X:FF Y:00 P:26 SP:FF CYC: 71 SL:44
C7AB  29 80     AND #$80                        A:10 X:FF Y:00 P:24 SP:FF CYC: 83 SL:44
C7AD  F0 F9     BEQ $C7A8                       A:00 X:FF Y:00 P:26 SP:FF CYC: 89 SL:44
C7A8  AD 02 20  LDA $2002 = FF                  A:00 X:FF Y:00 P:26 SP:FF CYC: 98 SL:44
C7AB  29 80     AND #$80                        A:10 X:FF Y:00 P:24 SP:FF CYC:110 SL:44
C7AD  F0 F9     BEQ $C7A8                       A:00 X:FF Y:00 P:26 SP:FF CYC:116 SL:44
C7A8  AD 02 20  LDA $2002 = FF                  A:00 X:FF Y:00 P:26 SP:FF CYC:125 SL:44
C7AB  29 80     AND #$80                        A:10 X:FF Y:00 P:24 SP:FF CYC:137 SL:44
C7AD  F0 F9     BEQ $C7A8                       A:00 X:FF Y:00 P:26 SP:FF CYC:143 SL:44
C7A8  AD 02 20  LDA $2002 = FF                  A:00 X:FF Y:00 P:26 SP:FF CYC:152 SL:44
C7AB  29 80     AND #$80                        A:10 X:FF Y:00 P:24 SP:FF CYC:164 SL:44
C7AD  F0 F9     BEQ $C7A8                       A:00 X:FF Y:00 P:26 SP:FF CYC:170 SL:44
C7A8  AD 02 20  LDA $2002 = FF                  A:00 X:FF Y:00 P:26 SP:FF CYC:179 SL:44
C7AB  29 80     AND #$80                        A:10 X:FF Y:00 P:24 SP:FF CYC:191 SL:44
C7AD  F0 F9     BEQ $C7A8                       A:00 X:FF Y:00 P:26 SP:FF CYC:197 SL:44
C7A8  AD 02 20  LDA $2002 = FF                  A:00 X:FF Y:00 P:26 SP:FF CYC:206 SL:44
C7AB  29 80     AND #$80                        A:10 X:FF Y:00 P:24 SP:FF CYC:218 SL:44
C7AD  F0 F9     BEQ $C7A8                       A:00 X:FF Y:00 P:26 SP:FF CYC:224 SL:44
C7A8  AD 02 20  LDA $2002 = FF                  A:00 X:FF Y:00 P:26 SP:FF CYC:233 SL:44
C7AB  29 80     AND #$80                        A:10 X:FF Y:00 P:24 SP:FF CYC:245 SL:44
C7AD  F0 F9     BEQ $C7A8                       A:00 X:FF Y:00 P:26 SP:FF CYC:251 SL:44
C7A8  AD 02 20  LDA $2002 = FF                  A:00 X:FF Y:00 P:26 SP:FF CYC:260 SL:44
C7AB  29 80     AND #$80                        A:10 X:FF Y:00 P:24 SP:FF CYC:272 SL:44
C7AD  F0 F9     BEQ $C7A8                       A:00 X:FF Y:00 P:26 SP:FF CYC:278 SL:44
C7A8  AD 02 20  LDA $2002 = FF                  A:00 X:FF Y:00 P:26 SP:FF CYC:287 SL:44
C7AB  29 80     AND #$80                        A:10 X:FF Y:00 P:24 SP:FF CYC:299 SL:44
C7AD  F0 F9     BEQ $C7A8                       A:00 X:FF Y:00 P:26 SP:FF CYC:305 SL:44
C7A8  AD 02 20  LDA $2002 = FF                  A:00 X:FF Y:00 P:26 SP:FF CYC:314 SL:44
C7AB  29 80     AND #$80                        A:10 X:FF Y:00 P:24 SP:FF CYC:326 SL:44
C7AD  F0 F9     BEQ $C7A8                       A:00 X:FF Y:00 P:26 SP:FF CYC:332 SL:44
C7A8  AD 02 20  LDA $2002 = FF                  A:00 X:FF Y:00 P:26 SP:FF CYC:  0 SL:45
C7AB  29 80     AND #$80                        A:10 X:FF Y:00 P:24 SP:FF CYC: 12 SL:45
C7AD  F0 F9     BEQ $C7A8                       A:00 X:FF Y:00 P:26 SP:FF CYC: 18 SL:45
C7A8  AD 02 20  LDA $2002 = FF                  A:00 X:FF Y:00 P:26 SP:FF CYC: 27 SL:45
C7AB  29 80     AND #$80                        A:10 X:FF Y:00 P:24 SP:FF CYC: 39 SL:45
C7AD  F0 F9     BEQ $C7A8                       A:00 X:FF Y:00 P:26 SP:FF CYC: 45 SL:45
C7A8  AD 02 20  LDA $2002 = FF                  A:00 X:FF Y:00 P:26 SP:FF CYC: 54 SL:45
C7AB  29 80     AND #$80                        A:10 X:FF Y:00 P:24 SP:FF CYC: 66 SL:45
C7AD  F0 F9     BEQ $C7A8                       A:00 X:FF Y:00 P:26 SP:FF CYC: 72 SL:45
C7A8  AD 02 20  LDA $2002 = FF                  A:00 X:FF Y:00 P:26 SP:FF CYC: 81 SL:45
C7AB  29 80     AND #$80                        A:10 X:FF Y:00 P:24 SP:FF CYC: 93 SL:45
C7AD  F0 F9     BEQ $C7A8                       A:00 X:FF Y:00 P:26 SP:FF CYC: 99 SL:45
C7A8  AD 02 20  LDA $2002 = FF                  A:00 X:FF Y:00 P:26 SP:FF CYC:108 SL:45
C7AB  29 80     AND #$80                        A:10 X:FF Y:00 P:24 SP:FF CYC:120 SL:45
C7AD  F0 F9     BEQ $C7A8                       A:00 X:FF Y:00 P:26 SP:FF CYC:126 SL:45
C7A8  AD 02 20  LDA $2002 = FF                  A:00 X:FF Y:00 P:26 SP:FF CYC:135 SL:45
C7AB  29 80     AND #$80                        A:10 X:FF Y:00 P:24 SP:FF CYC:147 SL:45
C7AD  F0 F9     BEQ $C7A8                       A:00 X:FF Y:00 P:26 SP:FF CYC:153 SL:45
C7A8  AD 02 20  LDA $2002 = FF                  A:00 X:FF Y:00 P:26 SP:FF CYC:162 SL:45
C7AB  29 80     AND #$80                        A:10 X:FF Y:00 P:24 SP:FF CYC:174 SL:45
C7AD  F0 F9     BEQ $C7A8                       A:00 X:FF Y:00 P:26 SP:FF CYC:180 SL:45
C7A8  AD 02 20  LDA $2002 = FF                  A:00 X:FF Y:00 P:26 SP:FF CYC:189 SL:45
C7AB  29 80     AND #$80                        A:10 X:FF Y:00 P:24 SP:FF CYC:201 SL:45
C7AD  F0 F9     BEQ $C7A8                       A:00 X:FF Y:00 P:26 SP:FF CYC:207 SL:45
C7A8  AD 02 20  LDA $2002 = FF                  A:00 X:FF Y:00 P:26 SP:FF CYC:216 SL:45
C7AB  29 80     AND #$80                        A:10 X:FF Y:00 P:24 SP:FF CYC:228 SL:45
C7AD  F0 F9     BEQ $C7A8                       A:00 X:FF Y:00 P:26 SP:FF CYC:234 SL:45
C7A8  AD 02 20  LDA $2002 = FF                  A:00 X:FF Y:00 P:26 SP:FF CYC:243 SL:45
C7AB  29 80     AND #$80                        A:10 X:FF Y:00 P:24 SP:FF CYC:255 SL:45
C7AD  F0 F9     BEQ $C7A8                       A:00 X:FF Y:00 P:26 SP:FF CYC:261 SL:45
C7A8  AD 02 20  LDA $2002 = FF                  A:00 X:FF Y:00 P:26 SP:FF CYC:270 SL:45
C7AB  29 80     AND #$80                        A:10 X:FF Y:00 P:24 SP:FF CYC:282 SL:45
C7AD  F0 F9     BEQ $C7A8                       A:00 X:FF Y:00 P:26 SP:FF CYC:288 SL:45
C7A8  AD 02 20  LDA $2002 = FF                  A:00 X:FF Y:00 P:26 SP:FF CYC:297 SL:45
C7AB  29 80     AND #$80                        A:10 X:FF Y:00 P:24 SP:FF CYC:309 SL:45
C7AD  F0 F9     BEQ $C7A8                       A:00 X:FF Y:00 P:26 SP:FF CYC:315 SL:45
C7A8  AD 02 20  LDA $2002 = FF                  A:00 X:FF Y:00 P:26 SP:FF CYC:324 SL:45
C7AB  29 80     AND #$80                        A:10 X:FF Y:00 P:24 SP:FF CYC:336 SL:45
C7AD  F0 F9     BEQ $C7A8                       A:00 X:FF Y:00 P:26 SP:FF CYC:  1 SL:46
C7A8  AD 02 20  LDA $2002 = FF                  A:00 X:FF Y:00 P:26 SP:FF CYC: 10 SL:46
C7AB  29 80     AND #$80                        A:10 X:FF Y:00 P:24 SP:FF CYC: 22 SL:46
C7AD  F0 F9     BEQ $C7A8                       A:00 X:FF Y:00 P:26 SP:FF CYC: 28 SL:46
C7A8  AD 02 20  LDA $2002 = FF                  A:00 X:FF Y:00 P:26 SP:FF CYC: 37 SL:46
C7AB  29 80     AND #$80                        A:10 X:FF Y:00 P:24 SP:FF CYC: 49 SL:46
C7AD  F0 F9     BEQ $C7A8                       A:00 X:FF Y:00 P:26 SP:FF CYC: 55 SL:46
C7A8  AD 02 20  LDA $2002 = FF                  A:00 X:FF Y:00 P:26 SP:FF CYC: 64 SL:46
C7AB  29 80     AND #$80                        A:10 X:FF Y:00 P:24 SP:FF CYC: 76 SL:46
C7AD  F0 F9     BEQ $C7A8                       A:00 X:FF Y:00 P:26 SP:FF CYC: 82 SL:46
C7A8  AD 02 20  LDA $2002 = FF                  A:00 X:FF Y:00 P:26 SP:FF CYC: 91 SL:46
C7AB  29 80     AND #$80                        A:10 X:FF Y:00 P:24 SP:FF CYC:103 SL:46
C7AD  F0 F9     BEQ $C7A8                       A:00 X:FF Y:00 P:26 SP:FF CYC:109 SL:46
C7A8  AD 02 20  LDA $2002 = FF                  A:00 X:FF Y:00 P:26 SP:FF CYC:118 SL:46
C7AB  29 80     AND #$80                        A:10 X:FF Y:00 P:24 SP:FF CYC:130 SL:46
C7AD  F0 F9     BEQ $C7A8                       A:00 X:FF Y:00 P:26 SP:FF CYC:136 SL:46
C7A8  AD 02 20  LDA $2002 = FF                  A:00 X:FF Y:00 P:26 SP:FF CYC:145 SL:46
C7AB  29 80     AND #$80                        A:10 X:FF Y:00 P:24 SP:FF CYC:157 SL:46
C7AD  F0 F9     BEQ $C7A8                       A:00 X:FF Y:00 P:26 SP:FF CYC:163 SL:46
C7A8  AD 02 20  LDA $2002 = FF                  A:00 X:FF Y:00 P:26 SP:FF CYC:172 SL:46
C7AB  29 80     AND #$80                        A:10 X:FF Y:00 P:24 SP:FF CYC:184 SL:46
C7AD  F0 F9     BEQ $C7A8                       A:00 X:FF Y:00 P:26 SP:FF CYC:190 SL:46
C7A8  AD 02 20  LDA $2002 = FF                  A:00 X:FF Y:00 P:26 SP:FF CYC:199 SL:46
C7AB  29 80     AND #$80                        A:10 X:FF Y:00 P:24 SP:FF CYC:211 SL:46
C7AD  F0 F9     BEQ $C7A8                       A:00 X:FF Y:00 P:26 SP:FF CYC:217 SL:46
C7A8  AD 02 20  LDA $2002 = FF                  A:00 X:FF Y:00 P:26 SP:FF CYC:226 SL:46
C7AB  29 80     AND #$80                        A:10 X:FF Y:00 P:24 SP:FF CYC:238 SL:46
C7AD  F0 F9     BEQ $C7A8                       A:00 X:FF Y:00 P:26 SP:FF CYC:244 SL:46
C7A8  AD 02 20  LDA $2002 = FF                  A:00 X:FF Y:00 P:26 SP:FF CYC:253 SL:46
C7AB  29 80     AND #$80                        A:10 X:FF Y:00 P:24 SP:FF CYC:265 SL:46
C7AD  F0 F9     BEQ $C7A8                       A:00 X:FF Y:00 P:26 SP:FF CYC:271 SL:46
C7A8  AD 02 20  LDA $2002 = FF                  A:00 X:FF Y:00 P:26 SP:FF CYC:280 SL:46
C7AB  29 80     AND #$80                        A:10 X:FF Y:00 P:24 SP:FF CYC:292 SL:46
C7AD  F0 F9     BEQ $C7A8                       A:00 X:FF Y:00 P:26 SP:FF CYC:298 SL:46
C7A8  AD 02 20  LDA $2002 = FF                  A:00 X:FF Y:00 P:26 SP:FF CYC:307 SL:46
C7AB  29 80     AND #$80                        A:10 X:FF Y:00 P:24 SP:FF CYC:319 SL:46
C7AD  F0 F9     BEQ $C7A8                       A:00 X:FF Y:00 P:26 SP:FF CYC:325 SL:46
C7A8  AD 02 20  LDA $2002 = FF                  A:00 X:FF Y:00 P:26 SP:FF CYC:334 SL:46
C7AB  29 80     AND #$80                        A:10 X:FF Y:00 P:24 SP:FF CYC:  5 SL:47
C7AD  F0 F9     BEQ $C7A8                       A:00 X:FF Y:00 P:26 SP:FF CYC: 11 SL:47
C7A8  AD 02 20  LDA $2002 = FF                  A:00 X:FF Y:00 P:26 SP:FF CYC: 20 SL:47
C7AB  29 80     AND #$80                        A:10 X:FF Y:00 P:24 SP:FF CYC: 32 SL:47
C7AD  F0 F9     BEQ $C7A8                       A:00 X:FF Y:00 P:26 SP:FF CYC: 38 SL:47
C7A8  AD 02 20  LDA $2002 = FF                  A:00 X:FF Y:00 P:26 SP:FF CYC: 47 SL:47
C7AB  29 80     AND #$80                        A:10 X:FF Y:00 P:24 SP:FF CYC: 59 SL:47
C7AD  F0 F9     BEQ $C7A8                       A:00 X:FF Y:00 P:26 SP:FF CYC: 65 SL:47
C7A8  AD 02 20  LDA $2002 = FF                  A:00 X:FF Y:00 P:26 SP:FF CYC: 74 SL:47
C7AB  29 80     AND #$80                        A:10 X:FF Y:00 P:24 SP:FF CYC: 86 SL:47
C7AD  F0 F9     BEQ $C7A8                       A:00 X:FF Y:00 P:26 SP:FF CYC: 92 SL:47
C7A8  AD 02 20  LDA $2002 = FF                  A:00 X:FF Y:00 P:26 SP:FF CYC:101 SL:47
C7AB  29 80     AND #$80                        A:10 X:FF Y:00 P:24 SP:FF CYC:113 SL:47
C7AD  F0 F9     BEQ $C7A8                       A:00 X:FF Y:00 P:26 SP:FF CYC:119 SL:47
C7A8  AD 02 20  LDA $2002 = FF                  A:00 X:FF Y:00 P:26 SP:FF CYC:128 SL:47
C7AB  29 80     AND #$80                        A:10 X:FF Y:00 P:24 SP:FF CYC:140 SL:47
C7AD  F0 F9     BEQ $C7A8                       A:00 X:FF Y:00 P:26 SP:FF CYC:146 SL:47
C7A8  AD 02 20  LDA $2002 = FF                  A:00 X:FF Y:00 P:26 SP:FF CYC:155 SL:47
C7AB  29 80     AND #$80                        A:10 X:FF Y:00 P:24 SP:FF CYC:167 SL:47
C7AD  F0 F9     BEQ $C7A8                       A:00 X:FF Y:00 P:26 SP:FF CYC:173 SL:47
C7A8  AD 02 20  LDA $2002 = FF                  A:00 X:FF Y:00 P:26 SP:FF CYC:182 SL:47
C7AB  29 80     AND #$80                        A:10 X:FF Y:00 P:24 SP:FF CYC:194 SL:47
C7AD  F0 F9     BEQ $C7A8                       A:00 X:FF Y:00 P:26 SP:FF CYC:200 SL:47
C7A8  AD 02 20  LDA $2002 = FF                  A:00 X:FF Y:00 P:26 SP:FF CYC:209 SL:47
C7AB  29 80     AND #$80                        A:10 X:FF Y:00 P:24 SP:FF CYC:221 SL:47
C7AD  F0 F9     BEQ $C7A8                       A:00 X:FF Y:00 P:26 SP:FF CYC:227 SL:47
C7A8  AD 02 20  LDA $2002 = FF                  A:00 X:FF Y:00 P:26 SP:FF CYC:236 SL:47
C7AB  29 80     AND #$80                        A:10 X:FF Y:00 P:24 SP:FF CYC:248 SL:47
C7AD  F0 F9     BEQ $C7A8                       A:00 X:FF Y:00 P:26 SP:FF CYC:254 SL:47
C7A8  AD 02 20  LDA $2002 = FF                  A:00 X:FF Y:00 P:26 SP:FF CYC:263 SL:47
C7AB  29 80     AND #$80                        A:10 X:FF Y:00 P:24 SP:FF CYC:275 SL:47
C7AD  F0 F9     BEQ $C7A8                       A:00 X:FF Y:00 P:26 SP:FF CYC:281 SL:47
C7A8  AD 02 20  LDA $2002 = FF                  A:00 X:FF Y:00 P:26 SP:FF CYC:290 SL:47
C7AB  29 80     AND #$80                        A:10 X:FF Y:00 P:24 SP:FF CYC:302 SL:47
C7AD  F0 F9     BEQ $C7A8                       A:00 X:FF Y:00 P:26 SP:FF CYC:308 SL:47
C7A8  AD 02 20  LDA $2002 = FF                  A:00 X:FF Y:00 P:26 SP:FF CYC:317 SL:47
C7AB  29 80     AND #$80                        A:10 X:FF Y:00 P:24 SP:FF CYC:329 SL:47
C7AD  F0 F9     BEQ $C7A8                       A:00 X:FF Y:00 P:26 SP:FF CYC:335 SL:47
C7A8  AD 02 20  LDA $2002 = FF                  A:00 X:FF Y:00 P:26 SP:FF CYC:  3 SL:48
C7AB  29 80     AND #$80                        A:10 X:FF Y:00 P:24 SP:FF CYC: 15 SL:48
C7AD  F0 F9     BEQ $C7A8                       A:00 X:FF Y:00 P:26 SP:FF CYC: 21 SL:48
C7A8  AD 02 20  LDA $2002 = FF                  A:00 X:FF Y:00 P:26 SP:FF CYC: 30 SL:48
C7AB  29 80     AND #$80                        A:10 X:FF Y:00 P:24 SP:FF CYC: 42 SL:48
C7AD  F0 F9     BEQ $C7A8                       A:00 X:FF Y:00 P:26 SP:FF CYC: 48 SL:48
C7A8  AD 02 20  LDA $2002 = FF                  A:00 X:FF Y:00 P:26 SP:FF CYC: 57 SL:48
C7AB  29 80     AND #$80                        A:10 X:FF Y:00 P:24 SP:FF CYC: 69 SL:48
C7AD  F0 F9     BEQ $C7A8                       A:00 X:FF Y:00 P:26 SP:FF CYC: 75 SL:48
C7A8  AD 02 20  LDA $2002 = FF                  A:00 X:FF Y:00 P:26 SP:FF CYC: 84 SL:48
C7AB  29 80     AND #$80                        A:10 X:FF Y:00 P:24 SP:FF CYC: 96 SL:48
C7AD  F0 F9     BEQ $C7A8                       A:00 X:FF Y:00 P:26 SP:FF CYC:102 SL:48
C7A8  AD 02 20  LDA $2002 = FF                  A:00 X:FF Y:00 P:26 SP:FF CYC:111 SL:48
C7AB  29 80     AND #$80                        A:10 X:FF Y:00 P:24 SP:FF CYC:123 SL:48
C7AD  F0 F9     BEQ $C7A8                       A:00 X:FF Y:00 P:26 SP:FF CYC:129 SL:48
C7A8  AD 02 20  LDA $2002 = FF                  A:00 X:FF Y:00 P:26 SP:FF CYC:138 SL:48
C7AB  29 80     AND #$80                        A:10 X:FF Y:00 P:24 SP:FF CYC:150 SL:48
C7AD  F0 F9     BEQ $C7A8                       A:00 X:FF Y:00 P:26 SP:FF CYC:156 SL:48
C7A8  AD 02 20  LDA $2002 = FF                  A:00 X:FF Y:00 P:26 SP:FF CYC:165 SL:48
C7AB  29 80     AND #$80                        A:10 X:FF Y:00 P:24 SP:FF CYC:177 SL:48
C7AD  F0 F9     BEQ $C7A8                       A:00 X:FF Y:00 P:26 SP:FF CYC:183 SL:48
C7A8  AD 02 20  LDA $2002 = FF                  A:00 X:FF Y:00 P:26 SP:FF CYC:192 SL:48
C7AB  29 80     AND #$80                        A:10 X:FF Y:00 P:24 SP:FF CYC:204 SL:48
C7AD  F0 F9     BEQ $C7A8                       A:00 X:FF Y:00 P:26 SP:FF CYC:210 SL:48
C7A8  AD 02 20  LDA $2002 = FF                  A:00 X:FF Y:00 P:26 SP:FF CYC:219 SL:48
C7AB  29 80     AND #$80                        A:10 X:FF Y:00 P:24 SP:FF CYC:231 SL:48
C7AD  F0 F9     BEQ $C7A8                       A:00 X:FF Y:00 P:26 SP:FF CYC:237 SL:48
C7A8  AD 02 20  LDA $2002 = FF                  A:00 X:FF Y:00 P:26 SP:FF CYC:246 SL:48
C7AB  29 80     AND #$80                        A:10 X:FF Y:00 P:24 SP:FF CYC:258 SL:48
C7AD  F0 F9     BEQ $C7A8                       A:00 X:FF Y:00 P:26 SP:FF CYC:264 SL:48
C7A8  AD 02 20  LDA $2002 = FF                  A:00 X:FF Y:00 P:26 SP:FF CYC:273 SL:48
C7AB  29 80     AND #$80                        A:10 X:FF Y:00 P:24 SP:FF CYC:285 SL:48
C7AD  F0 F9     BEQ $C7A8                       A:00 X:FF Y:00 P:26 SP:FF CYC:291 SL:48
C7A8  AD 02 20  LDA $2002 = FF                  A:00 X:FF Y:00 P:26 SP:FF CYC:300 SL:48
C7AB  29 80     AND #$80                        A:10 X:FF Y:00 P:24 SP:FF CYC:312 SL:48
C7AD  F0 F9     BEQ $C7A8                       A:00 X:FF Y:00 P:26 SP:FF CYC:318 SL:48
C7A8  AD 02 20  LDA $2002 = FF                  A:00 X:FF Y:00 P:26 SP:FF CYC:327 SL:48
C7AB  29 80     AND #$80                        A:10 X:FF Y:00 P:24 SP:FF CYC:339 SL:48
C7AD  F0 F9     BEQ $C7A8                       A:00 X:FF Y:00 P:26 SP:FF CYC:  4 SL:49
C7A8  AD 02 20  LDA $2002 = FF                  A:00 X:FF Y:00 P:26 SP:FF CYC: 13 SL:49
C7AB  29 80     AND #$80                        A:10 X:FF Y:00 P:24 SP:FF CYC: 25 SL:49
C7AD  F0 F9     BEQ $C7A8                       A:00 X:FF Y:00 P:26 SP:FF CYC: 31 SL:49
C7A8  AD 02 20  LDA $2002 = FF                  A:00 X:FF Y:00 P:26 SP:FF CYC: 40 SL:49
C7AB  29 80     AND #$80                        A:10 X:FF Y:00 P:24 SP:FF CYC: 52 SL:49
C7AD  F0 F9     BEQ $C7A8                       A:00 X:FF Y:00 P:26 SP:FF CYC: 58 SL:49
C7A8  AD 02 20  LDA $2002 = FF                  A:00 X:FF Y:00 P:26 SP:FF CYC: 67 SL:49
C7AB  29 80     AND #$80                        A:10 X:FF Y:00 P:24 SP:FF CYC: 79 SL:49
C7AD  F0 F9     BEQ $C7A8                       A:00 X:FF Y:00 P:26 SP:FF CYC: 85 SL:49
C7A8  AD 02 20  LDA $2002 = FF                  A:00 X:FF Y:00 P:26 SP:FF CYC: 94 SL:49
C7AB  29 80     AND #$80                        A:10 X:FF Y:00 P:24 SP:FF CYC:106 SL:49
C7AD  F0 F9     BEQ $C7A8                       A:00 X:FF Y:00 P:26 SP:FF CYC:112 SL:49
C7A8  AD 02 20  LDA $2002 = FF                  A:00 X:FF Y:00 P:26 SP:FF CYC:121 SL:49
C7AB  29 80     AND #$80                        A:10 X:FF Y:00 P:24 SP:FF CYC:133 SL:49
C7AD  F0 F9     BEQ $C7A8                       A:00 X:FF Y:00 P:26 SP:FF CYC:139 SL:49
C7A8  AD 02 20  LDA $2002 = FF                  A:00 X:FF Y:00 P:26 SP:FF CYC:148 SL:49
C7AB  29 80     AND #$80                        A:10 X:FF Y:00 P:24 SP:FF CYC:160 SL:49
C7AD  F0 F9     BEQ $C7A8                       A:00 X:FF Y:00 P:26 SP:FF CYC:166 SL:49
C7A8  AD 02 20  LDA $2002 = FF                  A:00 X:FF Y:00 P:26 SP:FF CYC:175 SL:49
C7AB  29 80     AND #$80                        A:10 X:FF Y:00 P:24 SP:FF CYC:187 SL:49
C7AD  F0 F9     BEQ $C7A8                       A:00 X:FF Y:00 P:26 SP:FF CYC:193 SL:49
C7A8  AD 02 20  LDA $2002 = FF                  A:00 X:FF Y:00 P:26 SP:FF CYC:202 SL:49
C7AB  29 80     AND #$80                        A:10 X:FF Y:00 P:24 SP:FF CYC:214 SL:49
C7AD  F0 F9     BEQ $C7A8                       A:00 X:FF Y:00 P:26 SP:FF CYC:220 SL:49
C7A8  AD 02 20  LDA $2002 = FF                  A:00 X:FF Y:00 P:26 SP:FF CYC:229 SL:49
C7AB  29 80     AND #$80                        A:10 X:FF Y:00 P:24 SP:FF CYC:241 SL:49
C7AD  F0 F9     BEQ $C7A8                       A:00 X:FF Y:00 P:26 SP:FF CYC:247 SL:49
C7A8  AD 02 20  LDA $2002 = FF                  A:00 X:FF Y:00 P:26 SP:FF CYC:256 SL:49
C7AB  29 80     AND #$80                        A:10 X:FF Y:00 P:24 SP:FF CYC:268 SL:49
C7AD  F0 F9     BEQ $C7A8                       A:00 X:FF Y:00 P:26 SP:FF CYC:274 SL:49
C7A8  AD 02 20  LDA $2002 = FF                  A:00 X:FF Y:00 P:26 SP:FF CYC:283 SL:49
C7AB  29 80     AND #$80                        A:10 X:FF Y:00 P:24 SP:FF CYC:295 SL:49
C7AD  F0 F9     BEQ $C7A8                       A:00 X:FF Y:00 P:26 SP:FF CYC:301 SL:49
C7A8  AD 02 20  LDA $2002 = FF                  A:00 X:FF Y:00 P:26 SP:FF CYC:310 SL:49
C7AB  29 80     AND #$80                        A:10 X:FF Y:00 P:24 SP:FF CYC:322 SL:49
C7AD  F0 F9     BEQ $C7A8                       A:00 X:FF Y:00 P:26 SP:FF CYC:328 SL:49
C7A8  AD 02 20  LDA $2002 = FF                  A:00 X:FF Y:00 P:26 SP:FF CYC:337 SL:49
C7AB  29 80     AND #$80                        A:10 X:FF Y:00 P:24 SP:FF CYC:  8 SL:50
C7AD  F0 F9     BEQ $C7A8                       A:00 X:FF Y:00 P:26 SP:FF CYC: 14 SL:50
C7A8  AD 02 20  LDA $2002 = FF                  A:00 X:FF Y:00 P:26 SP:FF CYC: 23 SL:50
C7AB  29 80     AND #$80                        A:10 X:FF Y:00 P:24 SP:FF CYC: 35 SL:50
C7AD  F0 F9     BEQ $C7A8                       A:00 X:FF Y:00 P:26 SP:FF CYC: 41 SL:50
C7A8  AD 02 20  LDA $2002 = FF                  A:00 X:FF Y:00 P:26 SP:FF CYC: 50 SL:50
C7AB  29 80     AND #$80                        A:10 X:FF Y:00 P:24 SP:FF CYC: 62 SL:50
C7AD  F0 F9     BEQ $C7A8                       A:00 X:FF Y:00 P:26 SP:FF CYC: 68 SL:50
C7A8  AD 02 20  LDA $2002 = FF                  A:00 X:FF Y:00 P:26 SP:FF CYC: 77 SL:50
C7AB  29 80     AND #$80                        A:10 X:FF Y:00 P:24 SP:FF CYC: 89 SL:50
C7AD  F0 F9     BEQ $C7A8                       A:00 X:FF Y:00 P:26 SP:FF CYC: 95 SL:50
C7A8  AD 02 20  LDA $2002 = FF                  A:00 X:FF Y:00 P:26 SP:FF CYC:104 SL:50
C7AB  29 80     AND #$80                        A:10 X:FF Y:00 P:24 SP:FF CYC:116 SL:50
C7AD  F0 F9     BEQ $C7A8                       A:00 X:FF Y:00 P:26 SP:FF CYC:122 SL:50
C7A8  AD 02 20  LDA $2002 = FF                  A:00 X:FF Y:00 P:26 SP:FF CYC:131 SL:50
C7AB  29 80     AND #$80                        A:10 X:FF Y:00 P:24 SP:FF CYC:143 SL:50
C7AD  F0 F9     BEQ $C7A8                       A:00 X:FF Y:00 P:26 SP:FF CYC:149 SL:50
C7A8  AD 02 20  LDA $2002 = FF                  A:00 X:FF Y:00 P:26 SP:FF CYC:158 SL:50
C7AB  29 80     AND #$80                        A:10 X:FF Y:00 P:24 SP:FF CYC:170 SL:50
C7AD  F0 F9     BEQ $C7A8                       A:00 X:FF Y:00 P:26 SP:FF CYC:176 SL:50
C7A8  AD 02 20  LDA $2002 = FF                  A:00 X:FF Y:00 P:26 SP:FF CYC:185 SL:50
C7AB  29 80     AND #$80                        A:10 X:FF Y:00 P:24 SP:FF CYC:197 SL:50
C7AD  F0 F9     BEQ $C7A8                       A:00 X:FF Y:00 P:26 SP:FF CYC:203 SL:50
C7A8  AD 02 20  LDA $2002 = FF                  A:00 X:FF Y:00 P:26 SP:FF CYC:212 SL:50
C7AB  29 80     AND #$80                        A:10 X:FF Y:00 P:24 SP:FF CYC:224 SL:50
C7AD  F0 F9     BEQ $C7A8                       A:00 X:FF Y:00 P:26 SP:FF CYC:230 SL:50
C7A8  AD 02 20  LDA $2002 = FF                  A:00 X:FF Y:00 P:26 SP:FF CYC:239 SL:50
C7AB  29 80     AND #$80                        A:10 X:FF Y:00 P:24 SP:FF CYC:251 SL:50
C7AD  F0 F9     BEQ $C7A8                       A:00 X:FF Y:00 P:26 SP:FF CYC:257 SL:50
C7A8  AD 02 20  LDA $2002 = FF                  A:00 X:FF Y:00 P:26 SP:FF CYC:266 SL:50
C7AB  29 80     AND #$80                        A:10 X:FF Y:00 P:24 SP:FF CYC:278 SL:50
C7AD  F0 F9     BEQ $C7A8                       A:00 X:FF Y:00 P:26 SP:FF CYC:284 SL:50
C7A8  AD 02 20  LDA $2002 = FF                  A:00 X:FF Y:00 P:26 SP:FF CYC:293 SL:50
C7AB  29 80     AND #$80                        A:10 X:FF Y:00 P:24 SP:FF CYC:305 SL:50
C7AD  F0 F9     BEQ $C7A8                       A:00 X:FF Y:00 P:26 SP:FF CYC:311 SL:50
C7A8  AD 02 20  LDA $2002 = FF                  A:00 X:FF Y:00 P:26 SP:FF CYC:320 SL:50
C7AB  29 80     AND #$80                        A:10 X:FF Y:00 P:24 SP:FF CYC:332 SL:50
C7AD  F0 F9     BEQ $C7A8                       A:00 X:FF Y:00 P:26 SP:FF CYC:338 SL:50
C7A8  AD 02 20  LDA $2002 = FF                  A:00 X:FF Y:00 P:26 SP:FF CYC:  6 SL:51
C7AB  29 80     AND #$80                        A:10 X:FF Y:00 P:24 SP:FF CYC: 18 SL:51
C7AD  F0 F9     BEQ $C7A8                       A:00 X:FF Y:00 P:26 SP:FF CYC: 24 SL:51
C7A8  AD 02 20  LDA $2002 = FF                  A:00 X:FF Y:00 P:26 SP:FF CYC: 33 SL:51
C7AB  29 80     AND #$80                        A:10 X:FF Y:00 P:24 SP:FF CYC: 45 SL:51
C7AD  F0 F9     BEQ $C7A8                       A:00 X:FF Y:00 P:26 SP:FF CYC: 51 SL:51
C7A8  AD 02 20  LDA $2002 = FF                  A:00 X:FF Y:00 P:26 SP:FF CYC: 60 SL:51
C7AB  29 80     AND #$80                        A:10 X:FF Y:00 P:24 SP:FF CYC: 72 SL:51
C7AD  F0 F9     BEQ $C7A8                       A:00 X:FF Y:00 P:26 SP:FF CYC: 78 SL:51
C7A8  AD 02 20  LDA $2002 = FF                  A:00 X:FF Y:00 P:26 SP:FF CYC: 87 SL:51
C7AB  29 80     AND #$80                        A:10 X:FF Y:00 P:24 SP:FF CYC: 99 SL:51
C7AD  F0 F9     BEQ $C7A8                       A:00 X:FF Y:00 P:26 SP:FF CYC:105 SL:51
C7A8  AD 02 20  LDA $2002 = FF                  A:00 X:FF Y:00 P:26 SP:FF CYC:114 SL:51
C7AB  29 80     AND #$80                        A:10 X:FF Y:00 P:24 SP:FF CYC:126 SL:51
C7AD  F0 F9     BEQ $C7A8                       A:00 X:FF Y:00 P:26 SP:FF CYC:132 SL:51
C7A8  AD 02 20  LDA $2002 = FF                  A:00 X:FF Y:00 P:26 SP:FF CYC:141 SL:51
C7AB  29 80     AND #$80                        A:10 X:FF Y:00 P:24 SP:FF CYC:153 SL:51
C7AD  F0 F9     BEQ $C7A8                       A:00 X:FF Y:00 P:26 SP:FF CYC:159 SL:51
C7A8  AD 02 20  LDA $2002 = FF                  A:00 X:FF Y:00 P:26 SP:FF CYC:168 SL:51
C7AB  29 80     AND #$80                        A:10 X:FF Y:00 P:24 SP:FF CYC:180 SL:51
C7AD  F0 F9     BEQ $C7A8                       A:00 X:FF Y:00 P:26 SP:FF CYC:186 SL:51
C7A8  AD 02 20  LDA $2002 = FF                  A:00 X:FF Y:00 P:26 SP:FF CYC:195 SL:51
C7AB  29 80     AND #$80                        A:10 X:FF Y:00 P:24 SP:FF CYC:207 SL:51
C7AD  F0 F9     BEQ $C7A8                       A:00 X:FF Y:00 P:26 SP:FF CYC:213 SL:51
C7A8  AD 02 20  LDA $2002 = FF                  A:00 X:FF Y:00 P:26 SP:FF CYC:222 SL:51
C7AB  29 80     AND #$80                        A:10 X:FF Y:00 P:24 SP:FF CYC:234 SL:51
C7AD  F0 F9     BEQ $C7A8                       A:00 X:FF Y:00 P:26 SP:FF CYC:240 SL:51
C7A8  AD 02 20  LDA $2002 = FF                  A:00 X:FF Y:00 P:26 SP:FF CYC:249 SL:51
C7AB  29 80     AND #$80                        A:10 X:FF Y:00 P:24 SP:FF CYC:261 SL:51
C7AD  F0 F9     BEQ $C7A8                       A:00 X:FF Y:00 P:26 SP:FF CYC:267 SL:51
C7A8  AD 02 20  LDA $2002 = FF                  A:00 X:FF Y:00 P:26 SP:FF CYC:276 SL:51
C7AB  29 80     AND #$80                        A:10 X:FF Y:00 P:24 SP:FF CYC:288 SL:51
C7AD  F0 F9     BEQ $C7A8                       A:00 X:FF Y:00 P:26 SP:FF CYC:294 SL:51
C7A8  AD 02 20  LDA $2002 = FF                  A:00 X:FF Y:00 P:26 SP:FF CYC:303 SL:51
C7AB  29 80     AND #$80                        A:10 X:FF Y:00 P:24 SP:FF CYC:315 SL:51
C7AD  F0 F9     BEQ $C7A8                       A:00 X:FF Y:00 P:26 SP:FF CYC:321 SL:51
C7A8  AD 02 20  LDA $2002 = FF                  A:00 X:FF Y:00 P:26 SP:FF CYC:330 SL:51
C7AB  29 80     AND #$80                        A:10 X:FF Y:00 P:24 SP:FF CYC:  1 SL:52
C7AD  F0 F9     BEQ $C7A8                       A:00 X:FF Y:00 P:26 SP:FF CYC:  7 SL:52
C7A8  AD 02 20  LDA $2002 = FF                  A:00 X:FF Y:00 P:26 SP:FF CYC: 16 SL:52
C7AB  29 80     AND #$80                        A:10 X:FF Y:00 P:24 SP:FF CYC: 28 SL:52
C7AD  F0 F9     BEQ $C7A8                       A:00 X:FF Y:00 P:26 SP:FF CYC: 34 SL:52
C7A8  AD 02 20  LDA $2002 = FF                  A:00 X:FF Y:00 P:26 SP:FF CYC: 43 SL:52
C7AB  29 80     AND #$80                        A:10 X:FF Y:00 P:24 SP:FF CYC: 55 SL:52
C7AD  F0 F9     BEQ $C7A8                       A:00 X:FF Y:00 P:26 SP:FF CYC: 61 SL:52
C7A8  AD 02 20  LDA $2002 = FF                  A:00 X:FF Y:00 P:26 SP:FF CYC: 70 SL:52
C7AB  29 80     AND #$80                        A:10 X:FF Y:00 P:24 SP:FF CYC: 82 SL:52
C7AD  F0 F9     BEQ $C7A8                       A:00 X:FF Y:00 P:26 SP:FF CYC: 88 SL:52
C7A8  AD 02 20  LDA $2002 = FF                  A:00 X:FF Y:00 P:26 SP:FF CYC: 97 SL:52
C7AB  29 80     AND #$80                        A:10 X:FF Y:00 P:24 SP:FF CYC:109 SL:52
C7AD  F0 F9     BEQ $C7A8                       A:00 X:FF Y:00 P:26 SP:FF CYC:115 SL:52
C7A8  AD 02 20  LDA $2002 = FF                  A:00 X:FF Y:00 P:26 SP:FF CYC:124 SL:52
C7AB  29 80     AND #$80                        A:10 X:FF Y:00 P:24 SP:FF CYC:136 SL:52
C7AD  F0 F9     BEQ $C7A8                       A:00 X:FF Y:00 P:26 SP:FF CYC:142 SL:52
C7A8  AD 02 20  LDA $2002 = FF                  A:00 X:FF Y:00 P:26 SP:FF CYC:151 SL:52
C7AB  29 80     AND #$80                        A:10 X:FF Y:00 P:24 SP:FF CYC:163 SL:52
C7AD  F0 F9     BEQ $C7A8                       A:00 X:FF Y:00 P:26 SP:FF CYC:169 SL:52
C7A8  AD 02 20  LDA $2002 = FF                  A:00 X:FF Y:00 P:26 SP:FF CYC:178 SL:52
C7AB  29 80     AND #$80                        A:10 X:FF Y:00 P:24 SP:FF CYC:190 SL:52
C7AD  F0 F9     BEQ $C7A8                       A:00 X:FF Y:00 P:26 SP:FF CYC:196 SL:52
C7A8  AD 02 20  LDA $2002 = FF                  A:00 X:FF Y:00 P:26 SP:FF CYC:205 SL:52
C7AB  29 80     AND #$80                        A:10 X:FF Y:00 P:24 SP:FF CYC:217 SL:52
C7AD  F0 F9     BEQ $C7A8                       A:00 X:FF Y:00 P:26 SP:FF CYC:223 SL:52
C7A8  AD 02 20  LDA $2002 = FF                  A:00 X:FF Y:00 P:26 SP:FF CYC:232 SL:52
C7AB  29 80     AND #$80                        A:10 X:FF Y:00 P:24 SP:FF CYC:244 SL:52
C7AD  F0 F9     BEQ $C7A8                       A:00 X:FF Y:00 P:26 SP:FF CYC:250 SL:52
C7A8  AD 02 20  LDA $2002 = FF                  A:00 X:FF Y:00 P:26 SP:FF CYC:259 SL:52
C7AB  29 80     AND #$80                        A:10 X:FF Y:00 P:24 SP:FF CYC:271 SL:52
C7AD  F0 F9     BEQ $C7A8                       A:00 X:FF Y:00 P:26 SP:FF CYC:277 SL:52
C7A8  AD 02 20  LDA $2002 = FF                  A:00 X:FF Y:00 P:26 SP:FF CYC:286 SL:52
C7AB  29 80     AND #$80                        A:10 X:FF Y:00 P:24 SP:FF CYC:298 SL:52
C7AD  F0 F9     BEQ $C7A8                       A:00 X:FF Y:00 P:26 SP:FF CYC:304 SL:52
C7A8  AD 02 20  LDA $2002 = FF                  A:00 X:FF Y:00 P:26 SP:FF CYC:313 SL:52
C7AB  29 80     AND #$80                        A:10 X:FF Y:00 P:24 SP:FF CYC:325 SL:52
C7AD  F0 F9     BEQ $C7A8                       A:00 X:FF Y:00 P:26 SP:FF CYC:331 SL:52
C7A8  AD 02 20  LDA $2002 = FF                  A:00 X:FF Y:00 P:26 SP:FF CYC:340 SL:52
C7AB  29 80     AND #$80                        A:10 X:FF Y:00 P:24 SP:FF CYC: 11 SL:53
C7AD  F0 F9     BEQ $C7A8                       A:00 X:FF Y:00 P:26 SP:FF CYC: 17 SL:53
C7A8  AD 02 20  LDA $2002 = FF                  A:00 X:FF Y:00 P:26 SP:FF CYC: 26 SL:53
C7AB  29 80     AND #$80                        A:10 X:FF Y:00 P:24 SP:FF CYC: 38 SL:53
C7AD  F0 F9     BEQ $C7A8                       A:00 X:FF Y:00 P:26 SP:FF CYC: 44 SL:53
C7A8  AD 02 20  LDA $2002 = FF                  A:00 X:FF Y:00 P:26 SP:FF CYC: 53 SL:53
C7AB  29 80     AND #$80                        A:10 X:FF Y:00 P:24 SP:FF CYC: 65 SL:53
C7AD  F0 F9     BEQ $C7A8                       A:00 X:FF Y:00 P:26 SP:FF CYC: 71 SL:53
C7A8  AD 02 20  LDA $2002 = FF                  A:00 X:FF Y:00 P:26 SP:FF CYC: 80 SL:53
C7AB  29 80     AND #$80                        A:10 X:FF Y:00 P:24 SP:FF CYC: 92 SL:53
C7AD  F0 F9     BEQ $C7A8                       A:00 X:FF Y:00 P:26 SP:FF CYC: 98 SL:53
C7A8  AD 02 20  LDA $2002 = FF                  A:00 X:FF Y:00 P:26 SP:FF CYC:107 SL:53
C7AB  29 80     AND #$80                        A:10 X:FF Y:00 P:24 SP:FF CYC:119 SL:53
C7AD  F0 F9     BEQ $C7A8                       A:00 X:FF Y:00 P:26 SP:FF CYC:125 SL:53
C7A8  AD 02 20  LDA $2002 = FF                  A:00 X:FF Y:00 P:26 SP:FF CYC:134 SL:53
C7AB  29 80     AND #$80                        A:10 X:FF Y:00 P:24 SP:FF CYC:146 SL:53
C7AD  F0 F9     BEQ $C7A8                       A:00 X:FF Y:00 P:26 SP:FF CYC:152 SL:53
C7A8  AD 02 20  LDA $2002 = FF                  A:00 X:FF Y:00 P:26 SP:FF CYC:161 SL:53
C7AB  29 80     AND #$80                        A:10 X:FF Y:00 P:24 SP:FF CYC:173 SL:53
C7AD  F0 F9     BEQ $C7A8                       A:00 X:FF Y:00 P:26 SP:FF CYC:179 SL:53
C7A8  AD 02 20  LDA $2002 = FF                  A:00 X:FF Y:00 P:26 SP:FF CYC:188 SL:53
C7AB  29 80     AND #$80                        A:10 X:FF Y:00 P:24 SP:FF CYC:200 SL:53
C7AD  F0 F9     BEQ $C7A8                       A:00 X:FF Y:00 P:26 SP:FF CYC:206 SL:53
C7A8  AD 02 20  LDA $2002 = FF                  A:00 X:FF Y:00 P:26 SP:FF CYC:215 SL:53
C7AB  29 80     AND #$80                        A:10 X:FF Y:00 P:24 SP:FF CYC:227 SL:53
C7AD  F0 F9     BEQ $C7A8                       A:00 X:FF Y:00 P:26 SP:FF CYC:233 SL:53
C7A8  AD 02 20  LDA $2002 = FF                  A:00 X:FF Y:00 P:26 SP:FF CYC:242 SL:53
C7AB  29 80     AND #$80                        A:10 X:FF Y:00 P:24 SP:FF CYC:254 SL:53
C7AD  F0 F9     BEQ $C7A8                       A:00 X:FF Y:00 P:26 SP:FF CYC:260 SL:53
C7A8  AD 02 20  LDA $2002 = FF                  A:00 X:FF Y:00 P:26 SP:FF CYC:269 SL:53
C7AB  29 80     AND #$80                        A:10 X:FF Y:00 P:24 SP:FF CYC:281 SL:53
C7AD  F0 F9     BEQ $C7A8                       A:00 X:FF Y:00 P:26 SP:FF CYC:287 SL:53
C7A8  AD 02 20  LDA $2002 = FF                  A:00 X:FF Y:00 P:26 SP:FF CYC:296 SL:53
C7AB  29 80     AND #$80                        A:10 X:FF Y:00 P:24 SP:FF CYC:308 SL:53
C7AD  F0 F9     BEQ $C7A8                       A:00 X:FF Y:00 P:26 SP:FF CYC:314 SL:53
C7A8  AD 02 20  LDA $2002 = FF                  A:00 X:FF Y:00 P:26 SP:FF CYC:323 SL:53
C7AB  29 80     AND #$80                        A:10 X:FF Y:00 P:24 SP:FF CYC:335 SL:53
C7AD  F0 F9     BEQ $C7A8                       A:00 X:FF Y:00 P:26 SP:FF CYC:  0 SL:54
C7A8  AD 02 20  LDA $2002 = FF                  A:00 X:FF Y:00 P:26 SP:FF CYC:  9 SL:54
C7AB  29 80     AND #$80                        A:10 X:FF Y:00 P:24 SP:FF CYC: 21 SL:54
C7AD  F0 F9     BEQ $C7A8                       A:00 X:FF Y:00 P:26 SP:FF CYC: 27 SL:54
C7A8  AD 02 20  LDA $2002 = FF                  A:00 X:FF Y:00 P:26 SP:FF CYC: 36 SL:54
C7AB  29 80     AND #$80                        A:10 X:FF Y:00 P:24 SP:FF CYC: 48 SL:54
C7AD  F0 F9     BEQ $C7A8                       A:00 X:FF Y:00 P:26 SP:FF CYC: 54 SL:54
C7A8  AD 02 20  LDA $2002 = FF                  A:00 X:FF Y:00 P:26 SP:FF CYC: 63 SL:54
C7AB  29 80     AND #$80                        A:10 X:FF Y:00 P:24 SP:FF CYC: 75 SL:54
C7AD  F0 F9     BEQ $C7A8                       A:00 X:FF Y:00 P:26 SP:FF CYC: 81 SL:54
C7A8  AD 02 20  LDA $2002 = FF                  A:00 X:FF Y:00 P:26 SP:FF CYC: 90 SL:54
C7AB  29 80     AND #$80                        A:10 X:FF Y:00 P:24 SP:FF CYC:102 SL:54
C7AD  F0 F9     BEQ $C7A8                       A:00 X:FF Y:00 P:26 SP:FF CYC:108 SL:54
C7A8  AD 02 20  LDA $2002 = FF                  A:00 X:FF Y:00 P:26 SP:FF CYC:117 SL:54
C7AB  29 80     AND #$80                        A:10 X:FF Y:00 P:24 SP:FF CYC:129 SL:54
C7AD  F0 F9     BEQ $C7A8                       A:00 X:FF Y:00 P:26 SP:FF CYC:135 SL:54
C7A8  AD 02 20  LDA $2002 = FF                  A:00 X:FF Y:00 P:26 SP:FF CYC:144 SL:54
C7AB  29 80     AND #$80                        A:10 X:FF Y:00 P:24 SP:FF CYC:156 SL:54
C7AD  F0 F9     BEQ $C7A8                       A:00 X:FF Y:00 P:26 SP:FF CYC:162 SL:54
C7A8  AD 02 20  LDA $2002 = FF                  A:00 X:FF Y:00 P:26 SP:FF CYC:171 SL:54
C7AB  29 80     AND #$80                        A:10 X:FF Y:00 P:24 SP:FF CYC:183 SL:54
C7AD  F0 F9     BEQ $C7A8                       A:00 X:FF Y:00 P:26 SP:FF CYC:189 SL:54
C7A8  AD 02 20  LDA $2002 = FF                  A:00 X:FF Y:00 P:26 SP:FF CYC:198 SL:54
C7AB  29 80     AND #$80                        A:10 X:FF Y:00 P:24 SP:FF CYC:210 SL:54
C7AD  F0 F9     BEQ $C7A8                       A:00 X:FF Y:00 P:26 SP:FF CYC:216 SL:54
C7A8  AD 02 20  LDA $2002 = FF                  A:00 X:FF Y:00 P:26 SP:FF CYC:225 SL:54
C7AB  29 80     AND #$80                        A:10 X:FF Y:00 P:24 SP:FF CYC:237 SL:54
C7AD  F0 F9     BEQ $C7A8                       A:00 X:FF Y:00 P:26 SP:FF CYC:243 SL:54
C7A8  AD 02 20  LDA $2002 = FF                  A:00 X:FF Y:00 P:26 SP:FF CYC:252 SL:54
C7AB  29 80     AND #$80                        A:10 X:FF Y:00 P:24 SP:FF CYC:264 SL:54
C7AD  F0 F9     BEQ $C7A8                       A:00 X:FF Y:00 P:26 SP:FF CYC:270 SL:54
C7A8  AD 02 20  LDA $2002 = FF                  A:00 X:FF Y:00 P:26 SP:FF CYC:279 SL:54
C7AB  29 80     AND #$80                        A:10 X:FF Y:00 P:24 SP:FF CYC:291 SL:54
C7AD  F0 F9     BEQ $C7A8                       A:00 X:FF Y:00 P:26 SP:FF CYC:297 SL:54
C7A8  AD 02 20  LDA $2002 = FF                  A:00 X:FF Y:00 P:26 SP:FF CYC:306 SL:54
C7AB  29 80     AND #$80                        A:10 X:FF Y:00 P:24 SP:FF CYC:318 SL:54
C7AD  F0 F9     BEQ $C7A8                       A:00 X:FF Y:00 P:26 SP:FF CYC:324 SL:54
C7A8  AD 02 20  LDA $2002 = FF                  A:00 X:FF Y:00 P:26 SP:FF CYC:333 SL:54
C7AB  29 80     AND #$80                        A:10 X:FF Y:00 P:24 SP:FF CYC:  4 SL:55
C7AD  F0 F9     BEQ $C7A8                       A:00 X:FF Y:00 P:26 SP:FF CYC: 10 SL:55
C7A8  AD 02 20  LDA $2002 = FF                  A:00 X:FF Y:00 P:26 SP:FF CYC: 19 SL:55
C7AB  29 80     AND #$80                        A:10 X:FF Y:00 P:24 SP:FF CYC: 31 SL:55
C7AD  F0 F9     BEQ $C7A8                       A:00 X:FF Y:00 P:26 SP:FF CYC: 37 SL:55
C7A8  AD 02 20  LDA $2002 = FF                  A:00 X:FF Y:00 P:26 SP:FF CYC: 46 SL:55
C7AB  29 80     AND #$80                        A:10 X:FF Y:00 P:24 SP:FF CYC: 58 SL:55
C7AD  F0 F9     BEQ $C7A8                       A:00 X:FF Y:00 P:26 SP:FF CYC: 64 SL:55
C7A8  AD 02 20  LDA $2002 = FF                  A:00 X:FF Y:00 P:26 SP:FF CYC: 73 SL:55
C7AB  29 80     AND #$80                        A:10 X:FF Y:00 P:24 SP:FF CYC: 85 SL:55
C7AD  F0 F9     BEQ $C7A8                       A:00 X:FF Y:00 P:26 SP:FF CYC: 91 SL:55
C7A8  AD 02 20  LDA $2002 = FF                  A:00 X:FF Y:00 P:26 SP:FF CYC:100 SL:55
C7AB  29 80     AND #$80                        A:10 X:FF Y:00 P:24 SP:FF CYC:112 SL:55
C7AD  F0 F9     BEQ $C7A8                       A:00 X:FF Y:00 P:26 SP:FF CYC:118 SL:55
C7A8  AD 02 20  LDA $2002 = FF                  A:00 X:FF Y:00 P:26 SP:FF CYC:127 SL:55
C7AB  29 80     AND #$80                        A:10 X:FF Y:00 P:24 SP:FF CYC:139 SL:55
C7AD  F0 F9     BEQ $C7A8                       A:00 X:FF Y:00 P:26 SP:FF CYC:145 SL:55
C7A8  AD 02 20  LDA $2002 = FF                  A:00 X:FF Y:00 P:26 SP:FF CYC:154 SL:55
C7AB  29 80     AND #$80                        A:10 X:FF Y:00 P:24 SP:FF CYC:166 SL:55
C7AD  F0 F9     BEQ $C7A8                       A:00 X:FF Y:00 P:26 SP:FF CYC:172 SL:55
C7A8  AD 02 20  LDA $2002 = FF                  A:00 X:FF Y:00 P:26 SP:FF CYC:181 SL:55
C7AB  29 80     AND #$80                        A:10 X:FF Y:00 P:24 SP:FF CYC:193 SL:55
C7AD  F0 F9     BEQ $C7A8                       A:00 X:FF Y:00 P:26 SP:FF CYC:199 SL:55
C7A8  AD 02 20  LDA $2002 = FF                  A:00 X:FF Y:00 P:26 SP:FF CYC:208 SL:55
C7AB  29 80     AND #$80                        A:10 X:FF Y:00 P:24 SP:FF CYC:220 SL:55
C7AD  F0 F9     BEQ $C7A8                       A:00 X:FF Y:00 P:26 SP:FF CYC:226 SL:55
C7A8  AD 02 20  LDA $2002 = FF                  A:00 X:FF Y:00 P:26 SP:FF CYC:235 SL:55
C7AB  29 80     AND #$80                        A:10 X:FF Y:00 P:24 SP:FF CYC:247 SL:55
C7AD  F0 F9     BEQ $C7A8                       A:00 X:FF Y:00 P:26 SP:FF CYC:253 SL:55
C7A8  AD 02 20  LDA $2002 = FF                  A:00 X:FF Y:00 P:26 SP:FF CYC:262 SL:55
C7AB  29 80     AND #$80                        A:10 X:FF Y:00 P:24 SP:FF CYC:274 SL:55
C7AD  F0 F9     BEQ $C7A8                       A:00 X:FF Y:00 P:26 SP:FF CYC:280 SL:55
C7A8  AD 02 20  LDA $2002 = FF                  A:00 X:FF Y:00 P:26 SP:FF CYC:289 SL:55
C7AB  29 80     AND #$80                        A:10 X:FF Y:00 P:24 SP:FF CYC:301 SL:55
C7AD  F0 F9     BEQ $C7A8                       A:00 X:FF Y:00 P:26 SP:FF CYC:307 SL:55
C7A8  AD 02 20  LDA $2002 = FF                  A:00 X:FF Y:00 P:26 SP:FF CYC:316 SL:55
C7AB  29 80     AND #$80                        A:10 X:FF Y:00 P:24 SP:FF CYC:328 SL:55
C7AD  F0 F9     BEQ $C7A8                       A:00 X:FF Y:00 P:26 SP:FF CYC:334 SL:55
C7A8  AD 02 20  LDA $2002 = FF                  A:00 X:FF Y:00 P:26 SP:FF CYC:  2 SL:56
C7AB  29 80     AND #$80                        A:10 X:FF Y:00 P:24 SP:FF CYC: 14 SL:56
C7AD  F0 F9     BEQ $C7A8                       A:00 X:FF Y:00 P:26 SP:FF CYC: 20 SL:56
C7A8  AD 02 20  LDA $2002 = FF                  A:00 X:FF Y:00 P:26 SP:FF CYC: 29 SL:56
C7AB  29 80     AND #$80                        A:10 X:FF Y:00 P:24 SP:FF CYC: 41 SL:56
C7AD  F0 F9     BEQ $C7A8                       A:00 X:FF Y:00 P:26 SP:FF CYC: 47 SL:56
C7A8  AD 02 20  LDA $2002 = FF                  A:00 X:FF Y:00 P:26 SP:FF CYC: 56 SL:56
C7AB  29 80     AND #$80                        A:10 X:FF Y:00 P:24 SP:FF CYC: 68 SL:56
C7AD  F0 F9     BEQ $C7A8                       A:00 X:FF Y:00 P:26 SP:FF CYC: 74 SL:56
C7A8  AD 02 20  LDA $2002 = FF                  A:00 X:FF Y:00 P:26 SP:FF CYC: 83 SL:56
C7AB  29 80     AND #$80                        A:10 X:FF Y:00 P:24 SP:FF CYC: 95 SL:56
C7AD  F0 F9     BEQ $C7A8                       A:00 X:FF Y:00 P:26 SP:FF CYC:101 SL:56
C7A8  AD 02 20  LDA $2002 = FF                  A:00 X:FF Y:00 P:26 SP:FF CYC:110 SL:56
C7AB  29 80     AND #$80                        A:10 X:FF Y:00 P:24 SP:FF CYC:122 SL:56
C7AD  F0 F9     BEQ $C7A8                       A:00 X:FF Y:00 P:26 SP:FF CYC:128 SL:56
C7A8  AD 02 20  LDA $2002 = FF                  A:00 X:FF Y:00 P:26 SP:FF CYC:137 SL:56
C7AB  29 80     AND #$80                        A:10 X:FF Y:00 P:24 SP:FF CYC:149 SL:56
C7AD  F0 F9     BEQ $C7A8                       A:00 X:FF Y:00 P:26 SP:FF CYC:155 SL:56
C7A8  AD 02 20  LDA $2002 = FF                  A:00 X:FF Y:00 P:26 SP:FF CYC:164 SL:56
C7AB  29 80     AND #$80                        A:10 X:FF Y:00 P:24 SP:FF CYC:176 SL:56
C7AD  F0 F9     BEQ $C7A8                       A:00 X:FF Y:00 P:26 SP:FF CYC:182 SL:56
C7A8  AD 02 20  LDA $2002 = FF                  A:00 X:FF Y:00 P:26 SP:FF CYC:191 SL:56
C7AB  29 80     AND #$80                        A:10 X:FF Y:00 P:24 SP:FF CYC:203 SL:56
C7AD  F0 F9     BEQ $C7A8                       A:00 X:FF Y:00 P:26 SP:FF CYC:209 SL:56
C7A8  AD 02 20  LDA $2002 = FF                  A:00 X:FF Y:00 P:26 SP:FF CYC:218 SL:56
C7AB  29 80     AND #$80                        A:10 X:FF Y:00 P:24 SP:FF CYC:230 SL:56
C7AD  F0 F9     BEQ $C7A8                       A:00 X:FF Y:00 P:26 SP:FF CYC:236 SL:56
C7A8  AD 02 20  LDA $2002 = FF                  A:00 X:FF Y:00 P:26 SP:FF CYC:245 SL:56
C7AB  29 80     AND #$80                        A:10 X:FF Y:00 P:24 SP:FF CYC:257 SL:56
C7AD  F0 F9     BEQ $C7A8                       A:00 X:FF Y:00 P:26 SP:FF CYC:263 SL:56
C7A8  AD 02 20  LDA $2002 = FF                  A:00 X:FF Y:00 P:26 SP:FF CYC:272 SL:56
C7AB  29 80     AND #$80                        A:10 X:FF Y:00 P:24 SP:FF CYC:284 SL:56
C7AD  F0 F9     BEQ $C7A8                       A:00 X:FF Y:00 P:26 SP:FF CYC:290 SL:56
C7A8  AD 02 20  LDA $2002 = FF                  A:00 X:FF Y:00 P:26 SP:FF CYC:299 SL:56
C7AB  29 80     AND #$80                        A:10 X:FF Y:00 P:24 SP:FF CYC:311 SL:56
C7AD  F0 F9     BEQ $C7A8                       A:00 X:FF Y:00 P:26 SP:FF CYC:317 SL:56
C7A8  AD 02 20  LDA $2002 = FF                  A:00 X:FF Y:00 P:26 SP:FF CYC:326 SL:56
C7AB  29 80     AND #$80                        A:10 X:FF Y:00 P:24 SP:FF CYC:338 SL:56
C7AD  F0 F9     BEQ $C7A8                       A:00 X:FF Y:00 P:26 SP:FF CYC:  3 SL:57
C7A8  AD 02 20  LDA $2002 = FF                  A:00 X:FF Y:00 P:26 SP:FF CYC: 12 SL:57
C7AB  29 80     AND #$80                        A:10 X:FF Y:00 P:24 SP:FF CYC: 24 SL:57
C7AD  F0 F9     BEQ $C7A8                       A:00 X:FF Y:00 P:26 SP:FF CYC: 30 SL:57
C7A8  AD 02 20  LDA $2002 = FF                  A:00 X:FF Y:00 P:26 SP:FF CYC: 39 SL:57
C7AB  29 80     AND #$80                        A:10 X:FF Y:00 P:24 SP:FF CYC: 51 SL:57
C7AD  F0 F9     BEQ $C7A8                       A:00 X:FF Y:00 P:26 SP:FF CYC: 57 SL:57
C7A8  AD 02 20  LDA $2002 = FF                  A:00 X:FF Y:00 P:26 SP:FF CYC: 66 SL:57
C7AB  29 80     AND #$80                        A:10 X:FF Y:00 P:24 SP:FF CYC: 78 SL:57
C7AD  F0 F9     BEQ $C7A8                       A:00 X:FF Y:00 P:26 SP:FF CYC: 84 SL:57
C7A8  AD 02 20  LDA $2002 = FF                  A:00 X:FF Y:00 P:26 SP:FF CYC: 93 SL:57
C7AB  29 80     AND #$80                        A:10 X:FF Y:00 P:24 SP:FF CYC:105 SL:57
C7AD  F0 F9     BEQ $C7A8                       A:00 X:FF Y:00 P:26 SP:FF CYC:111 SL:57
C7A8  AD 02 20  LDA $2002 = FF                  A:00 X:FF Y:00 P:26 SP:FF CYC:120 SL:57
C7AB  29 80     AND #$80                        A:10 X:FF Y:00 P:24 SP:FF CYC:132 SL:57
C7AD  F0 F9     BEQ $C7A8                       A:00 X:FF Y:00 P:26 SP:FF CYC:138 SL:57
C7A8  AD 02 20  LDA $2002 = FF                  A:00 X:FF Y:00 P:26 SP:FF CYC:147 SL:57
C7AB  29 80     AND #$80                        A:10 X:FF Y:00 P:24 SP:FF CYC:159 SL:57
C7AD  F0 F9     BEQ $C7A8                       A:00 X:FF Y:00 P:26 SP:FF CYC:165 SL:57
C7A8  AD 02 20  LDA $2002 = FF                  A:00 X:FF Y:00 P:26 SP:FF CYC:174 SL:57
C7AB  29 80     AND #$80                        A:10 X:FF Y:00 P:24 SP:FF CYC:186 SL:57
C7AD  F0 F9     BEQ $C7A8                       A:00 X:FF Y:00 P:26 SP:FF CYC:192 SL:57
C7A8  AD 02 20  LDA $2002 = FF                  A:00 X:FF Y:00 P:26 SP:FF CYC:201 SL:57
C7AB  29 80     AND #$80                        A:10 X:FF Y:00 P:24 SP:FF CYC:213 SL:57
C7AD  F0 F9     BEQ $C7A8                       A:00 X:FF Y:00 P:26 SP:FF CYC:219 SL:57
C7A8  AD 02 20  LDA $2002 = FF                  A:00 X:FF Y:00 P:26 SP:FF CYC:228 SL:57
C7AB  29 80     AND #$80                        A:10 X:FF Y:00 P:24 SP:FF CYC:240 SL:57
C7AD  F0 F9     BEQ $C7A8                       A:00 X:FF Y:00 P:26 SP:FF CYC:246 SL:57
C7A8  AD 02 20  LDA $2002 = FF                  A:00 X:FF Y:00 P:26 SP:FF CYC:255 SL:57
C7AB  29 80     AND #$80                        A:10 X:FF Y:00 P:24 SP:FF CYC:267 SL:57
C7AD  F0 F9     BEQ $C7A8                       A:00 X:FF Y:00 P:26 SP:FF CYC:273 SL:57
C7A8  AD 02 20  LDA $2002 = FF                  A:00 X:FF Y:00 P:26 SP:FF CYC:282 SL:57
C7AB  29 80     AND #$80                        A:10 X:FF Y:00 P:24 SP:FF CYC:294 SL:57
C7AD  F0 F9     BEQ $C7A8                       A:00 X:FF Y:00 P:26 SP:FF CYC:300 SL:57
C7A8  AD 02 20  LDA $2002 = FF                  A:00 X:FF Y:00 P:26 SP:FF CYC:309 SL:57
C7AB  29 80     AND #$80                        A:10 X:FF Y:00 P:24 SP:FF CYC:321 SL:57
C7AD  F0 F9     BEQ $C7A8                       A:00 X:FF Y:00 P:26 SP:FF CYC:327 SL:57
C7A8  AD 02 20  LDA $2002 = FF                  A:00 X:FF Y:00 P:26 SP:FF CYC:336 SL:57
C7AB  29 80     AND #$80                        A:10 X:FF Y:00 P:24 SP:FF CYC:  7 SL:58
C7AD  F0 F9     BEQ $C7A8                       A:00 X:FF Y:00 P:26 SP:FF CYC: 13 SL:58
C7A8  AD 02 20  LDA $2002 = FF                  A:00 X:FF Y:00 P:26 SP:FF CYC: 22 SL:58
C7AB  29 80     AND #$80                        A:10 X:FF Y:00 P:24 SP:FF CYC: 34 SL:58
C7AD  F0 F9     BEQ $C7A8                       A:00 X:FF Y:00 P:26 SP:FF CYC: 40 SL:58
C7A8  AD 02 20  LDA $2002 = FF                  A:00 X:FF Y:00 P:26 SP:FF CYC: 49 SL:58
C7AB  29 80     AND #$80                        A:10 X:FF Y:00 P:24 SP:FF CYC: 61 SL:58
C7AD  F0 F9     BEQ $C7A8                       A:00 X:FF Y:00 P:26 SP:FF CYC: 67 SL:58
C7A8  AD 02 20  LDA $2002 = FF                  A:00 X:FF Y:00 P:26 SP:FF CYC: 76 SL:58
C7AB  29 80     AND #$80                        A:10 X:FF Y:00 P:24 SP:FF CYC: 88 SL:58
C7AD  F0 F9     BEQ $C7A8                       A:00 X:FF Y:00 P:26 SP:FF CYC: 94 SL:58
C7A8  AD 02 20  LDA $2002 = FF                  A:00 X:FF Y:00 P:26 SP:FF CYC:103 SL:58
C7AB  29 80     AND #$80                        A:10 X:FF Y:00 P:24 SP:FF CYC:115 SL:58
C7AD  F0 F9     BEQ $C7A8                       A:00 X:FF Y:00 P:26 SP:FF CYC:121 SL:58
C7A8  AD 02 20  LDA $2002 = FF                  A:00 X:FF Y:00 P:26 SP:FF CYC:130 SL:58
C7AB  29 80     AND #$80                        A:10 X:FF Y:00 P:24 SP:FF CYC:142 SL:58
C7AD  F0 F9     BEQ $C7A8                       A:00 X:FF Y:00 P:26 SP:FF CYC:148 SL:58
C7A8  AD 02 20  LDA $2002 = FF                  A:00 X:FF Y:00 P:26 SP:FF CYC:157 SL:58
C7AB  29 80     AND #$80                        A:10 X:FF Y:00 P:24 SP:FF CYC:169 SL:58
C7AD  F0 F9     BEQ $C7A8                       A:00 X:FF Y:00 P:26 SP:FF CYC:175 SL:58
C7A8  AD 02 20  LDA $2002 = FF                  A:00 X:FF Y:00 P:26 SP:FF CYC:184 SL:58
C7AB  29 80     AND #$80                        A:10 X:FF Y:00 P:24 SP:FF CYC:196 SL:58
C7AD  F0 F9     BEQ $C7A8                       A:00 X:FF Y:00 P:26 SP:FF CYC:202 SL:58
C7A8  AD 02 20  LDA $2002 = FF                  A:00 X:FF Y:00 P:26 SP:FF CYC:211 SL:58
C7AB  29 80     AND #$80                        A:10 X:FF Y:00 P:24 SP:FF CYC:223 SL:58
C7AD  F0 F9     BEQ $C7A8                       A:00 X:FF Y:00 P:26 SP:FF CYC:229 SL:58
C7A8  AD 02 20  LDA $2002 = FF                  A:00 X:FF Y:00 P:26 SP:FF CYC:238 SL:58
C7AB  29 80     AND #$80                        A:10 X:FF Y:00 P:24 SP:FF CYC:250 SL:58
C7AD  F0 F9     BEQ $C7A8                       A:00 X:FF Y:00 P:26 SP:FF CYC:256 SL:58
C7A8  AD 02 20  LDA $2002 = FF                  A:00 X:FF Y:00 P:26 SP:FF CYC:265 SL:58
C7AB  29 80     AND #$80                        A:10 X:FF Y:00 P:24 SP:FF CYC:277 SL:58
C7AD  F0 F9     BEQ $C7A8                       A:00 X:FF Y:00 P:26 SP:FF CYC:283 SL:58
C7A8  AD 02 20  LDA $2002 = FF                  A:00 X:FF Y:00 P:26 SP:FF CYC:292 SL:58
C7AB  29 80     AND #$80                        A:10 X:FF Y:00 P:24 SP:FF CYC:304 SL:58
C7AD  F0 F9     BEQ $C7A8                       A:00 X:FF Y:00 P:26 SP:FF CYC:310 SL:58
C7A8  AD 02 20  LDA $2002 = FF                  A:00 X:FF Y:00 P:26 SP:FF CYC:319 SL:58
C7AB  29 80     AND #$80                        A:10 X:FF Y:00 P:24 SP:FF CYC:331 SL:58
C7AD  F0 F9     BEQ $C7A8                       A:00 X:FF Y:00 P:26 SP:FF CYC:337 SL:58
C7A8  AD 02 20  LDA $2002 = FF                  A:00 X:FF Y:00 P:26 SP:FF CYC:  5 SL:59
C7AB  29 80     AND #$80                        A:10 X:FF Y:00 P:24 SP:FF CYC: 17 SL:59
C7AD  F0 F9     BEQ $C7A8                       A:00 X:FF Y:00 P:26 SP:FF CYC: 23 SL:59
C7A8  AD 02 20  LDA $2002 = FF                  A:00 X:FF Y:00 P:26 SP:FF CYC: 32 SL:59
C7AB  29 80     AND #$80                        A:10 X:FF Y:00 P:24 SP:FF CYC: 44 SL:59
C7AD  F0 F9     BEQ $C7A8                       A:00 X:FF Y:00 P:26 SP:FF CYC: 50 SL:59
C7A8  AD 02 20  LDA $2002 = FF                  A:00 X:FF Y:00 P:26 SP:FF CYC: 59 SL:59
C7AB  29 80     AND #$80                        A:10 X:FF Y:00 P:24 SP:FF CYC: 71 SL:59
C7AD  F0 F9     BEQ $C7A8                       A:00 X:FF Y:00 P:26 SP:FF CYC: 77 SL:59
C7A8  AD 02 20  LDA $2002 = FF                  A:00 X:FF Y:00 P:26 SP:FF CYC: 86 SL:59
C7AB  29 80     AND #$80                        A:10 X:FF Y:00 P:24 SP:FF CYC: 98 SL:59
C7AD  F0 F9     BEQ $C7A8                       A:00 X:FF Y:00 P:26 SP:FF CYC:104 SL:59
C7A8  AD 02 20  LDA $2002 = FF                  A:00 X:FF Y:00 P:26 SP:FF CYC:113 SL:59
C7AB  29 80     AND #$80                        A:10 X:FF Y:00 P:24 SP:FF CYC:125 SL:59
C7AD  F0 F9     BEQ $C7A8                       A:00 X:FF Y:00 P:26 SP:FF CYC:131 SL:59
C7A8  AD 02 20  LDA $2002 = FF                  A:00 X:FF Y:00 P:26 SP:FF CYC:140 SL:59
C7AB  29 80     AND #$80                        A:10 X:FF Y:00 P:24 SP:FF CYC:152 SL:59
C7AD  F0 F9     BEQ $C7A8                       A:00 X:FF Y:00 P:26 SP:FF CYC:158 SL:59
C7A8  AD 02 20  LDA $2002 = FF                  A:00 X:FF Y:00 P:26 SP:FF CYC:167 SL:59
C7AB  29 80     AND #$80                        A:10 X:FF Y:00 P:24 SP:FF CYC:179 SL:59
C7AD  F0 F9     BEQ $C7A8                       A:00 X:FF Y:00 P:26 SP:FF CYC:185 SL:59
C7A8  AD 02 20  LDA $2002 = FF                  A:00 X:FF Y:00 P:26 SP:FF CYC:194 SL:59
C7AB  29 80     AND #$80                        A:10 X:FF Y:00 P:24 SP:FF CYC:206 SL:59
C7AD  F0 F9     BEQ $C7A8                       A:00 X:FF Y:00 P:26 SP:FF CYC:212 SL:59
C7A8  AD 02 20  LDA $2002 = FF                  A:00 X:FF Y:00 P:26 SP:FF CYC:221 SL:59
C7AB  29 80     AND #$80                        A:10 X:FF Y:00 P:24 SP:FF CYC:233 SL:59
C7AD  F0 F9     BEQ $C7A8                       A:00 X:FF Y:00 P:26 SP:FF CYC:239 SL:59
C7A8  AD 02 20  LDA $2002 = FF                  A:00 X:FF Y:00 P:26 SP:FF CYC:248 SL:59
C7AB  29 80     AND #$80                        A:10 X:FF Y:00 P:24 SP:FF CYC:260 SL:59
C7AD  F0 F9     BEQ $C7A8                       A:00 X:FF Y:00 P:26 SP:FF CYC:266 SL:59
C7A8  AD 02 20  LDA $2002 = FF                  A:00 X:FF Y:00 P:26 SP:FF CYC:275 SL:59
C7AB  29 80     AND #$80                        A:10 X:FF Y:00 P:24 SP:FF CYC:287 SL:59
C7AD  F0 F9     BEQ $C7A8                       A:00 X:FF Y:00 P:26 SP:FF CYC:293 SL:59
C7A8  AD 02 20  LDA $2002 = FF                  A:00 X:FF Y:00 P:26 SP:FF CYC:302 SL:59
C7AB  29 80     AND #$80                        A:10 X:FF Y:00 P:24 SP:FF CYC:314 SL:59
C7AD  F0 F9     BEQ $C7A8                       A:00 X:FF Y:00 P:26 SP:FF CYC:320 SL:59
C7A8  AD 02 20  LDA $2002 = FF                  A:00 X:FF Y:00 P:26 SP:FF CYC:329 SL:59
C7AB  29 80     AND #$80                        A:10 X:FF Y:00 P:24 SP:FF CYC:  0 SL:60
C7AD  F0 F9     BEQ $C7A8                       A:00 X:FF Y:00 P:26 SP:FF CYC:  6 SL:60
C7A8  AD 02 20  LDA $2002 = FF                  A:00 X:FF Y:00 P:26 SP:FF CYC: 15 SL:60
C7AB  29 80     AND #$80                        A:10 X:FF Y:00 P:24 SP:FF CYC: 27 SL:60
C7AD  F0 F9     BEQ $C7A8                       A:00 X:FF Y:00 P:26 SP:FF CYC: 33 SL:60
C7A8  AD 02 20  LDA $2002 = FF                  A:00 X:FF Y:00 P:26 SP:FF CYC: 42 SL:60
C7AB  29 80     AND #$80                        A:10 X:FF Y:00 P:24 SP:FF CYC: 54 SL:60
C7AD  F0 F9     BEQ $C7A8                       A:00 X:FF Y:00 P:26 SP:FF CYC: 60 SL:60
C7A8  AD 02 20  LDA $2002 = FF                  A:00 X:FF Y:00 P:26 SP:FF CYC: 69 SL:60
C7AB  29 80     AND #$80                        A:10 X:FF Y:00 P:24 SP:FF CYC: 81 SL:60
C7AD  F0 F9     BEQ $C7A8                       A:00 X:FF Y:00 P:26 SP:FF CYC: 87 SL:60
C7A8  AD 02 20  LDA $2002 = FF                  A:00 X:FF Y:00 P:26 SP:FF CYC: 96 SL:60
C7AB  29 80     AND #$80                        A:10 X:FF Y:00 P:24 SP:FF CYC:108 SL:60
C7AD  F0 F9     BEQ $C7A8                       A:00 X:FF Y:00 P:26 SP:FF CYC:114 SL:60
C7A8  AD 02 20  LDA $2002 = FF                  A:00 X:FF Y:00 P:26 SP:FF CYC:123 SL:60
C7AB  29 80     AND #$80                        A:10 X:FF Y:00 P:24 SP:FF CYC:135 SL:60
C7AD  F0 F9     BEQ $C7A8                       A:00 X:FF Y:00 P:26 SP:FF CYC:141 SL:60
C7A8  AD 02 20  LDA $2002 = FF                  A:00 X:FF Y:00 P:26 SP:FF CYC:150 SL:60
C7AB  29 80     AND #$80                        A:10 X:FF Y:00 P:24 SP:FF CYC:162 SL:60
C7AD  F0 F9     BEQ $C7A8                       A:00 X:FF Y:00 P:26 SP:FF CYC:168 SL:60
C7A8  AD 02 20  LDA $2002 = FF                  A:00 X:FF Y:00 P:26 SP:FF CYC:177 SL:60
C7AB  29 80     AND #$80                        A:10 X:FF Y:00 P:24 SP:FF CYC:189 SL:60
C7AD  F0 F9     BEQ $C7A8                       A:00 X:FF Y:00 P:26 SP:FF CYC:195 SL:60
C7A8  AD 02 20  LDA $2002 = FF                  A:00 X:FF Y:00 P:26 SP:FF CYC:204 SL:60
C7AB  29 80     AND #$80                        A:10 X:FF Y:00 P:24 SP:FF CYC:216 SL:60
C7AD  F0 F9     BEQ $C7A8                       A:00 X:FF Y:00 P:26 SP:FF CYC:222 SL:60
C7A8  AD 02 20  LDA $2002 = FF                  A:00 X:FF Y:00 P:26 SP:FF CYC:231 SL:60
C7AB  29 80     AND #$80                        A:10 X:FF Y:00 P:24 SP:FF CYC:243 SL:60
C7AD  F0 F9     BEQ $C7A8                       A:00 X:FF Y:00 P:26 SP:FF CYC:249 SL:60
C7A8  AD 02 20  LDA $2002 = FF                  A:00 X:FF Y:00 P:26 SP:FF CYC:258 SL:60
C7AB  29 80     AND #$80                        A:10 X:FF Y:00 P:24 SP:FF CYC:270 SL:60
C7AD  F0 F9     BEQ $C7A8                       A:00 X:FF Y:00 P:26 SP:FF CYC:276 SL:60
C7A8  AD 02 20  LDA $2002 = FF                  A:00 X:FF Y:00 P:26 SP:FF CYC:285 SL:60
C7AB  29 80     AND #$80                        A:10 X:FF Y:00 P:24 SP:FF CYC:297 SL:60
C7AD  F0 F9     BEQ $C7A8                       A:00 X:FF Y:00 P:26 SP:FF CYC:303 SL:60
C7A8  AD 02 20  LDA $2002 = FF                  A:00 X:FF Y:00 P:26 SP:FF CYC:312 SL:60
C7AB  29 80     AND #$80                        A:10 X:FF Y:00 P:24 SP:FF CYC:324 SL:60
C7AD  F0 F9     BEQ $C7A8                       A:00 X:FF Y:00 P:26 SP:FF CYC:330 SL:60
C7A8  AD 02 20  LDA $2002 = FF                  A:00 X:FF Y:00 P:26 SP:FF CYC:339 SL:60
C7AB  29 80     AND #$80                        A:10 X:FF Y:00 P:24 SP:FF CYC: 10 SL:61
C7AD  F0 F9     BEQ $C7A8                       A:00 X:FF Y:00 P:26 SP:FF CYC: 16 SL:61
C7A8  AD 02 20  LDA $2002 = FF                  A:00 X:FF Y:00 P:26 SP:FF CYC: 25 SL:61
C7AB  29 80     AND #$80                        A:10 X:FF Y:00 P:24 SP:FF CYC: 37 SL:61
C7AD  F0 F9     BEQ $C7A8                       A:00 X:FF Y:00 P:26 SP:FF CYC: 43 SL:61
C7A8  AD 02 20  LDA $2002 = FF                  A:00 X:FF Y:00 P:26 SP:FF CYC: 52 SL:61
C7AB  29 80     AND #$80                        A:10 X:FF Y:00 P:24 SP:FF CYC: 64 SL:61
C7AD  F0 F9     BEQ $C7A8                       A:00 X:FF Y:00 P:26 SP:FF CYC: 70 SL:61
C7A8  AD 02 20  LDA $2002 = FF                  A:00 X:FF Y:00 P:26 SP:FF CYC: 79 SL:61
C7AB  29 80     AND #$80                        A:10 X:FF Y:00 P:24 SP:FF CYC: 91 SL:61
C7AD  F0 F9     BEQ $C7A8                       A:00 X:FF Y:00 P:26 SP:FF CYC: 97 SL:61
C7A8  AD 02 20  LDA $2002 = FF                  A:00 X:FF Y:00 P:26 SP:FF CYC:106 SL:61
C7AB  29 80     AND #$80                        A:10 X:FF Y:00 P:24 SP:FF CYC:118 SL:61
C7AD  F0 F9     BEQ $C7A8                       A:00 X:FF Y:00 P:26 SP:FF CYC:124 SL:61
C7A8  AD 02 20  LDA $2002 = FF                  A:00 X:FF Y:00 P:26 SP:FF CYC:133 SL:61
C7AB  29 80     AND #$80                        A:10 X:FF Y:00 P:24 SP:FF CYC:145 SL:61
C7AD  F0 F9     BEQ $C7A8                       A:00 X:FF Y:00 P:26 SP:FF CYC:151 SL:61
C7A8  AD 02 20  LDA $2002 = FF                  A:00 X:FF Y:00 P:26 SP:FF CYC:160 SL:61
C7AB  29 80     AND #$80                        A:10 X:FF Y:00 P:24 SP:FF CYC:172 SL:61
C7AD  F0 F9     BEQ $C7A8                       A:00 X:FF Y:00 P:26 SP:FF CYC:178 SL:61
C7A8  AD 02 20  LDA $2002 = FF                  A:00 X:FF Y:00 P:26 SP:FF CYC:187 SL:61
C7AB  29 80     AND #$80                        A:10 X:FF Y:00 P:24 SP:FF CYC:199 SL:61
C7AD  F0 F9     BEQ $C7A8                       A:00 X:FF Y:00 P:26 SP:FF CYC:205 SL:61
C7A8  AD 02 20  LDA $2002 = FF                  A:00 X:FF Y:00 P:26 SP:FF CYC:214 SL:61
C7AB  29 80     AND #$80                        A:10 X:FF Y:00 P:24 SP:FF CYC:226 SL:61
C7AD  F0 F9     BEQ $C7A8                       A:00 X:FF Y:00 P:26 SP:FF CYC:232 SL:61
C7A8  AD 02 20  LDA $2002 = FF                  A:00 X:FF Y:00 P:26 SP:FF CYC:241 SL:61
C7AB  29 80     AND #$80                        A:10 X:FF Y:00 P:24 SP:FF CYC:253 SL:61
C7AD  F0 F9     BEQ $C7A8                       A:00 X:FF Y:00 P:26 SP:FF CYC:259 SL:61
C7A8  AD 02 20  LDA $2002 = FF                  A:00 X:FF Y:00 P:26 SP:FF CYC:268 SL:61
C7AB  29 80     AND #$80                        A:10 X:FF Y:00 P:24 SP:FF CYC:280 SL:61
C7AD  F0 F9     BEQ $C7A8                       A:00 X:FF Y:00 P:26 SP:FF CYC:286 SL:61
C7A8  AD 02 20  LDA $2002 = FF                  A:00 X:FF Y:00 P:26 SP:FF CYC:295 SL:61
C7AB  29 80     AND #$80                        A:10 X:FF Y:00 P:24 SP:FF CYC:307 SL:61
C7AD  F0 F9     BEQ $C7A8                       A:00 X:FF Y:00 P:26 SP:FF CYC:313 SL:61
C7A8  AD 02 20  LDA $2002 = FF                  A:00 X:FF Y:00 P:26 SP:FF CYC:322 SL:61
C7AB  29 80     AND #$80                        A:10 X:FF Y:00 P:24 SP:FF CYC:334 SL:61
C7AD  F0 F9     BEQ $C7A8                       A:00 X:FF Y:00 P:26 SP:FF CYC:340 SL:61
C7A8  AD 02 20  LDA $2002 = FF                  A:00 X:FF Y:00 P:26 SP:FF CYC:  8 SL:62
C7AB  29 80     AND #$80                        A:10 X:FF Y:00 P:24 SP:FF CYC: 20 SL:62
C7AD  F0 F9     BEQ $C7A8                       A:00 X:FF Y:00 P:26 SP:FF CYC: 26 SL:62
C7A8  AD 02 20  LDA $2002 = FF                  A:00 X:FF Y:00 P:26 SP:FF CYC: 35 SL:62
C7AB  29 80     AND #$80                        A:10 X:FF Y:00 P:24 SP:FF CYC: 47 SL:62
C7AD  F0 F9     BEQ $C7A8                       A:00 X:FF Y:00 P:26 SP:FF CYC: 53 SL:62
C7A8  AD 02 20  LDA $2002 = FF                  A:00 X:FF Y:00 P:26 SP:FF CYC: 62 SL:62
C7AB  29 80     AND #$80                        A:10 X:FF Y:00 P:24 SP:FF CYC: 74 SL:62
C7AD  F0 F9     BEQ $C7A8                       A:00 X:FF Y:00 P:26 SP:FF CYC: 80 SL:62
C7A8  AD 02 20  LDA $2002 = FF                  A:00 X:FF Y:00 P:26 SP:FF CYC: 89 SL:62
C7AB  29 80     AND #$80                        A:10 X:FF Y:00 P:24 SP:FF CYC:101 SL:62
C7AD  F0 F9     BEQ $C7A8                       A:00 X:FF Y:00 P:26 SP:FF CYC:107 SL:62
C7A8  AD 02 20  LDA $2002 = FF                  A:00 X:FF Y:00 P:26 SP:FF CYC:116 SL:62
C7AB  29 80     AND #$80                        A:10 X:FF Y:00 P:24 SP:FF CYC:128 SL:62
C7AD  F0 F9     BEQ $C7A8                       A:00 X:FF Y:00 P:26 SP:FF CYC:134 SL:62
C7A8  AD 02 20  LDA $2002 = FF                  A:00 X:FF Y:00 P:26 SP:FF CYC:143 SL:62
C7AB  29 80     AND #$80                        A:10 X:FF Y:00 P:24 SP:FF CYC:155 SL:62
C7AD  F0 F9     BEQ $C7A8                       A:00 X:FF Y:00 P:26 SP:FF CYC:161 SL:62
C7A8  AD 02 20  LDA $2002 = FF                  A:00 X:FF Y:00 P:26 SP:FF CYC:170 SL:62
C7AB  29 80     AND #$80                        A:10 X:FF Y:00 P:24 SP:FF CYC:182 SL:62
C7AD  F0 F9     BEQ $C7A8                       A:00 X:FF Y:00 P:26 SP:FF CYC:188 SL:62
C7A8  AD 02 20  LDA $2002 = FF                  A:00 X:FF Y:00 P:26 SP:FF CYC:197 SL:62
C7AB  29 80     AND #$80                        A:10 X:FF Y:00 P:24 SP:FF CYC:209 SL:62
C7AD  F0 F9     BEQ $C7A8                       A:00 X:FF Y:00 P:26 SP:FF CYC:215 SL:62
C7A8  AD 02 20  LDA $2002 = FF                  A:00 X:FF Y:00 P:26 SP:FF CYC:224 SL:62
C7AB  29 80     AND #$80                        A:10 X:FF Y:00 P:24 SP:FF CYC:236 SL:62
C7AD  F0 F9     BEQ $C7A8                       A:00 X:FF Y:00 P:26 SP:FF CYC:242 SL:62
C7A8  AD 02 20  LDA $2002 = FF                  A:00 X:FF Y:00 P:26 SP:FF CYC:251 SL:62
C7AB  29 80     AND #$80                        A:10 X:FF Y:00 P:24 SP:FF CYC:263 SL:62
C7AD  F0 F9     BEQ $C7A8                       A:00 X:FF Y:00 P:26 SP:FF CYC:269 SL:62
C7A8  AD 02 20  LDA $2002 = FF                  A:00 X:FF Y:00 P:26 SP:FF CYC:278 SL:62
C7AB  29 80     AND #$80                        A:10 X:FF Y:00 P:24 SP:FF CYC:290 SL:62
C7AD  F0 F9     BEQ $C7A8                       A:00 X:FF Y:00 P:26 SP:FF CYC:296 SL:62
C7A8  AD 02 20  LDA $2002 = FF                  A:00 X:FF Y:00 P:26 SP:FF CYC:305 SL:62
C7AB  29 80     AND #$80                        A:10 X:FF Y:00 P:24 SP:FF CYC:317 SL:62
C7AD  F0 F9     BEQ $C7A8                       A:00 X:FF Y:00 P:26 SP:FF CYC:323 SL:62
C7A8  AD 02 20  LDA $2002 = FF                  A:00 X:FF Y:00 P:26 SP:FF CYC:332 SL:62
C7AB  29 80     AND #$80                        A:10 X:FF Y:00 P:24 SP:FF CYC:  3 SL:63
C7AD  F0 F9     BEQ $C7A8                       A:00 X:FF Y:00 P:26 SP:FF CYC:  9 SL:63
C7A8  AD 02 20  LDA $2002 = FF                  A:00 X:FF Y:00 P:26 SP:FF CYC: 18 SL:63
C7AB  29 80     AND #$80                        A:10 X:FF Y:00 P:24 SP:FF CYC: 30 SL:63
C7AD  F0 F9     BEQ $C7A8                       A:00 X:FF Y:00 P:26 SP:FF CYC: 36 SL:63
C7A8  AD 02 20  LDA $2002 = FF                  A:00 X:FF Y:00 P:26 SP:FF CYC: 45 SL:63
C7AB  29 80     AND #$80                        A:10 X:FF Y:00 P:24 SP:FF CYC: 57 SL:63
C7AD  F0 F9     BEQ $C7A8                       A:00 X:FF Y:00 P:26 SP:FF CYC: 63 SL:63
C7A8  AD 02 20  LDA $2002 = FF                  A:00 X:FF Y:00 P:26 SP:FF CYC: 72 SL:63
C7AB  29 80     AND #$80                        A:10 X:FF Y:00 P:24 SP:FF CYC: 84 SL:63
C7AD  F0 F9     BEQ $C7A8                       A:00 X:FF Y:00 P:26 SP:FF CYC: 90 SL:63
C7A8  AD 02 20  LDA $2002 = FF                  A:00 X:FF Y:00 P:26 SP:FF CYC: 99 SL:63
C7AB  29 80     AND #$80                        A:10 X:FF Y:00 P:24 SP:FF CYC:111 SL:63
C7AD  F0 F9     BEQ $C7A8                       A:00 X:FF Y:00 P:26 SP:FF CYC:117 SL:63
C7A8  AD 02 20  LDA $2002 = FF                  A:00 X:FF Y:00 P:26 SP:FF CYC:126 SL:63
C7AB  29 80     AND #$80                        A:10 X:FF Y:00 P:24 SP:FF CYC:138 SL:63
C7AD  F0 F9     BEQ $C7A8                       A:00 X:FF Y:00 P:26 SP:FF CYC:144 SL:63
C7A8  AD 02 20  LDA $2002 = FF                  A:00 X:FF Y:00 P:26 SP:FF CYC:153 SL:63
C7AB  29 80     AND #$80                        A:10 X:FF Y:00 P:24 SP:FF CYC:165 SL:63
C7AD  F0 F9     BEQ $C7A8                       A:00 X:FF Y:00 P:26 SP:FF CYC:171 SL:63
C7A8  AD 02 20  LDA $2002 = FF                  A:00 X:FF Y:00 P:26 SP:FF CYC:180 SL:63
C7AB  29 80     AND #$80                        A:10 X:FF Y:00 P:24 SP:FF CYC:192 SL:63
C7AD  F0 F9     BEQ $C7A8                       A:00 X:FF Y:00 P:26 SP:FF CYC:198 SL:63
C7A8  AD 02 20  LDA $2002 = FF                  A:00 X:FF Y:00 P:26 SP:FF CYC:207 SL:63
C7AB  29 80     AND #$80                        A:10 X:FF Y:00 P:24 SP:FF CYC:219 SL:63
C7AD  F0 F9     BEQ $C7A8                       A:00 X:FF Y:00 P:26 SP:FF CYC:225 SL:63
C7A8  AD 02 20  LDA $2002 = FF                  A:00 X:FF Y:00 P:26 SP:FF CYC:234 SL:63
C7AB  29 80     AND #$80                        A:10 X:FF Y:00 P:24 SP:FF CYC:246 SL:63
C7AD  F0 F9     BEQ $C7A8                       A:00 X:FF Y:00 P:26 SP:FF CYC:252 SL:63
C7A8  AD 02 20  LDA $2002 = FF                  A:00 X:FF Y:00 P:26 SP:FF CYC:261 SL:63
C7AB  29 80     AND #$80                        A:10 X:FF Y:00 P:24 SP:FF CYC:273 SL:63
C7AD  F0 F9     BEQ $C7A8                       A:00 X:FF Y:00 P:26 SP:FF CYC:279 SL:63
C7A8  AD 02 20  LDA $2002 = FF                  A:00 X:FF Y:00 P:26 SP:FF CYC:288 SL:63
C7AB  29 80     AND #$80                        A:10 X:FF Y:00 P:24 SP:FF CYC:300 SL:63
C7AD  F0 F9     BEQ $C7A8                       A:00 X:FF Y:00 P:26 SP:FF CYC:306 SL:63
C7A8  AD 02 20  LDA $2002 = FF                  A:00 X:FF Y:00 P:26 SP:FF CYC:315 SL:63
C7AB  29 80     AND #$80                        A:10 X:FF Y:00 P:24 SP:FF CYC:327 SL:63
C7AD  F0 F9     BEQ $C7A8                       A:00 X:FF Y:00 P:26 SP:FF CYC:333 SL:63
C7A8  AD 02 20  LDA $2002 = FF                  A:00 X:FF Y:00 P:26 SP:FF CYC:  1 SL:64
C7AB  29 80     AND #$80                        A:10 X:FF Y:00 P:24 SP:FF CYC: 13 SL:64
C7AD  F0 F9     BEQ $C7A8                       A:00 X:FF Y:00 P:26 SP:FF CYC: 19 SL:64
C7A8  AD 02 20  LDA $2002 = FF                  A:00 X:FF Y:00 P:26 SP:FF CYC: 28 SL:64
C7AB  29 80     AND #$80                        A:10 X:FF Y:00 P:24 SP:FF CYC: 40 SL:64
C7AD  F0 F9     BEQ $C7A8                       A:00 X:FF Y:00 P:26 SP:FF CYC: 46 SL:64
C7A8  AD 02 20  LDA $2002 = FF                  A:00 X:FF Y:00 P:26 SP:FF CYC: 55 SL:64
C7AB  29 80     AND #$80                        A:10 X:FF Y:00 P:24 SP:FF CYC: 67 SL:64
C7AD  F0 F9     BEQ $C7A8                       A:00 X:FF Y:00 P:26 SP:FF CYC: 73 SL:64
C7A8  AD 02 20  LDA $2002 = FF                  A:00 X:FF Y:00 P:26 SP:FF CYC: 82 SL:64
C7AB  29 80     AND #$80                        A:10 X:FF Y:00 P:24 SP:FF CYC: 94 SL:64
C7AD  F0 F9     BEQ $C7A8                       A:00 X:FF Y:00 P:26 SP:FF CYC:100 SL:64
C7A8  AD 02 20  LDA $2002 = FF                  A:00 X:FF Y:00 P:26 SP:FF CYC:109 SL:64
C7AB  29 80     AND #$80                        A:10 X:FF Y:00 P:24 SP:FF CYC:121 SL:64
C7AD  F0 F9     BEQ $C7A8                       A:00 X:FF Y:00 P:26 SP:FF CYC:127 SL:64
C7A8  AD 02 20  LDA $2002 = FF                  A:00 X:FF Y:00 P:26 SP:FF CYC:136 SL:64
C7AB  29 80     AND #$80                        A:10 X:FF Y:00 P:24 SP:FF CYC:148 SL:64
C7AD  F0 F9     BEQ $C7A8                       A:00 X:FF Y:00 P:26 SP:FF CYC:154 SL:64
C7A8  AD 02 20  LDA $2002 = FF                  A:00 X:FF Y:00 P:26 SP:FF CYC:163 SL:64
C7AB  29 80     AND #$80                        A:10 X:FF Y:00 P:24 SP:FF CYC:175 SL:64
C7AD  F0 F9     BEQ $C7A8                       A:00 X:FF Y:00 P:26 SP:FF CYC:181 SL:64
C7A8  AD 02 20  LDA $2002 = FF                  A:00 X:FF Y:00 P:26 SP:FF CYC:190 SL:64
C7AB  29 80     AND #$80                        A:10 X:FF Y:00 P:24 SP:FF CYC:202 SL:64
C7AD  F0 F9     BEQ $C7A8                       A:00 X:FF Y:00 P:26 SP:FF CYC:208 SL:64
C7A8  AD 02 20  LDA $2002 = FF                  A:00 X:FF Y:00 P:26 SP:FF CYC:217 SL:64
C7AB  29 80     AND #$80                        A:10 X:FF Y:00 P:24 SP:FF CYC:229 SL:64
C7AD  F0 F9     BEQ $C7A8                       A:00 X:FF Y:00 P:26 SP:FF CYC:235 SL:64
C7A8  AD 02 20  LDA $2002 = FF                  A:00 X:FF Y:00 P:26 SP:FF CYC:244 SL:64
C7AB  29 80     AND #$80                        A:10 X:FF Y:00 P:24 SP:FF CYC:256 SL:64
C7AD  F0 F9     BEQ $C7A8                       A:00 X:FF Y:00 P:26 SP:FF CYC:262 SL:64
C7A8  AD 02 20  LDA $2002 = FF                  A:00 X:FF Y:00 P:26 SP:FF CYC:271 SL:64
C7AB  29 80     AND #$80                        A:10 X:FF Y:00 P:24 SP:FF CYC:283 SL:64
C7AD  F0 F9     BEQ $C7A8                       A:00 X:FF Y:00 P:26 SP:FF CYC:289 SL:64
C7A8  AD 02 20  LDA $2002 = FF                  A:00 X:FF Y:00 P:26 SP:FF CYC:298 SL:64
C7AB  29 80     AND #$80                        A:10 X:FF Y:00 P:24 SP:FF CYC:310 SL:64
C7AD  F0 F9     BEQ $C7A8                       A:00 X:FF Y:00 P:26 SP:FF CYC:316 SL:64
C7A8  AD 02 20  LDA $2002 = FF                  A:00 X:FF Y:00 P:26 SP:FF CYC:325 SL:64
C7AB  29 80     AND #$80                        A:10 X:FF Y:00 P:24 SP:FF CYC:337 SL:64
C7AD  F0 F9     BEQ $C7A8                       A:00 X:FF Y:00 P:26 SP:FF CYC:  2 SL:65
C7A8  AD 02 20  LDA $2002 = FF                  A:00 X:FF Y:00 P:26 SP:FF CYC: 11 SL:65
C7AB  29 80     AND #$80                        A:10 X:FF Y:00 P:24 SP:FF CYC: 23 SL:65
C7AD  F0 F9     BEQ $C7A8                       A:00 X:FF Y:00 P:26 SP:FF CYC: 29 SL:65
C7A8  AD 02 20  LDA $2002 = FF                  A:00 X:FF Y:00 P:26 SP:FF CYC: 38 SL:65
C7AB  29 80     AND #$80                        A:10 X:FF Y:00 P:24 SP:FF CYC: 50 SL:65
C7AD  F0 F9     BEQ $C7A8                       A:00 X:FF Y:00 P:26 SP:FF CYC: 56 SL:65
C7A8  AD 02 20  LDA $2002 = FF                  A:00 X:FF Y:00 P:26 SP:FF CYC: 65 SL:65
C7AB  29 80     AND #$80                        A:10 X:FF Y:00 P:24 SP:FF CYC: 77 SL:65
C7AD  F0 F9     BEQ $C7A8                       A:00 X:FF Y:00 P:26 SP:FF CYC: 83 SL:65
C7A8  AD 02 20  LDA $2002 = FF                  A:00 X:FF Y:00 P:26 SP:FF CYC: 92 SL:65
C7AB  29 80     AND #$80                        A:10 X:FF Y:00 P:24 SP:FF CYC:104 SL:65
C7AD  F0 F9     BEQ $C7A8                       A:00 X:FF Y:00 P:26 SP:FF CYC:110 SL:65
C7A8  AD 02 20  LDA $2002 = FF                  A:00 X:FF Y:00 P:26 SP:FF CYC:119 SL:65
C7AB  29 80     AND #$80                        A:10 X:FF Y:00 P:24 SP:FF CYC:131 SL:65
C7AD  F0 F9     BEQ $C7A8                       A:00 X:FF Y:00 P:26 SP:FF CYC:137 SL:65
C7A8  AD 02 20  LDA $2002 = FF                  A:00 X:FF Y:00 P:26 SP:FF CYC:146 SL:65
C7AB  29 80     AND #$80                        A:10 X:FF Y:00 P:24 SP:FF CYC:158 SL:65
C7AD  F0 F9     BEQ $C7A8                       A:00 X:FF Y:00 P:26 SP:FF CYC:164 SL:65
C7A8  AD 02 20  LDA $2002 = FF                  A:00 X:FF Y:00 P:26 SP:FF CYC:173 SL:65
C7AB  29 80     AND #$80                        A:10 X:FF Y:00 P:24 SP:FF CYC:185 SL:65
C7AD  F0 F9     BEQ $C7A8                       A:00 X:FF Y:00 P:26 SP:FF CYC:191 SL:65
C7A8  AD 02 20  LDA $2002 = FF                  A:00 X:FF Y:00 P:26 SP:FF CYC:200 SL:65
C7AB  29 80     AND #$80                        A:10 X:FF Y:00 P:24 SP:FF CYC:212 SL:65
C7AD  F0 F9     BEQ $C7A8                       A:00 X:FF Y:00 P:26 SP:FF CYC:218 SL:65
C7A8  AD 02 20  LDA $2002 = FF                  A:00 X:FF Y:00 P:26 SP:FF CYC:227 SL:65
C7AB  29 80     AND #$80                        A:10 X:FF Y:00 P:24 SP:FF CYC:239 SL:65
C7AD  F0 F9     BEQ $C7A8                       A:00 X:FF Y:00 P:26 SP:FF CYC:245 SL:65
C7A8  AD 02 20  LDA $2002 = FF                  A:00 X:FF Y:00 P:26 SP:FF CYC:254 SL:65
C7AB  29 80     AND #$80                        A:10 X:FF Y:00 P:24 SP:FF CYC:266 SL:65
C7AD  F0 F9     BEQ $C7A8                       A:00 X:FF Y:00 P:26 SP:FF CYC:272 SL:65
C7A8  AD 02 20  LDA $2002 = FF                  A:00 X:FF Y:00 P:26 SP:FF CYC:281 SL:65
C7AB  29 80     AND #$80                        A:10 X:FF Y:00 P:24 SP:FF CYC:293 SL:65
C7AD  F0 F9     BEQ $C7A8                       A:00 X:FF Y:00 P:26 SP:FF CYC:299 SL:65
C7A8  AD 02 20  LDA $2002 = FF                  A:00 X:FF Y:00 P:26 SP:FF CYC:308 SL:65
C7AB  29 80     AND #$80                        A:10 X:FF Y:00 P:24 SP:FF CYC:320 SL:65
C7AD  F0 F9     BEQ $C7A8                       A:00 X:FF Y:00 P:26 SP:FF CYC:326 SL:65
C7A8  AD 02 20  LDA $2002 = FF                  A:00 X:FF Y:00 P:26 SP:FF CYC:335 SL:65
C7AB  29 80     AND #$80                        A:10 X:FF Y:00 P:24 SP:FF CYC:  6 SL:66
C7AD  F0 F9     BEQ $C7A8                       A:00 X:FF Y:00 P:26 SP:FF CYC: 12 SL:66
C7A8  AD 02 20  LDA $2002 = FF                  A:00 X:FF Y:00 P:26 SP:FF CYC: 21 SL:66
C7AB  29 80     AND #$80                        A:10 X:FF Y:00 P:24 SP:FF CYC: 33 SL:66
C7AD  F0 F9     BEQ $C7A8                       A:00 X:FF Y:00 P:26 SP:FF CYC: 39 SL:66
C7A8  AD 02 20  LDA $2002 = FF                  A:00 X:FF Y:00 P:26 SP:FF CYC: 48 SL:66
C7AB  29 80     AND #$80                        A:10 X:FF Y:00 P:24 SP:FF CYC: 60 SL:66
C7AD  F0 F9     BEQ $C7A8                       A:00 X:FF Y:00 P:26 SP:FF CYC: 66 SL:66
C7A8  AD 02 20  LDA $2002 = FF                  A:00 X:FF Y:00 P:26 SP:FF CYC: 75 SL:66
C7AB  29 80     AND #$80                        A:10 X:FF Y:00 P:24 SP:FF CYC: 87 SL:66
C7AD  F0 F9     BEQ $C7A8                       A:00 X:FF Y:00 P:26 SP:FF CYC: 93 SL:66
C7A8  AD 02 20  LDA $2002 = FF                  A:00 X:FF Y:00 P:26 SP:FF CYC:102 SL:66
C7AB  29 80     AND #$80                        A:10 X:FF Y:00 P:24 SP:FF CYC:114 SL:66
C7AD  F0 F9     BEQ $C7A8                       A:00 X:FF Y:00 P:26 SP:FF CYC:120 SL:66
C7A8  AD 02 20  LDA $2002 = FF                  A:00 X:FF Y:00 P:26 SP:FF CYC:129 SL:66
C7AB  29 80     AND #$80                        A:10 X:FF Y:00 P:24 SP:FF CYC:141 SL:66
C7AD  F0 F9     BEQ $C7A8                       A:00 X:FF Y:00 P:26 SP:FF CYC:147 SL:66
C7A8  AD 02 20  LDA $2002 = FF                  A:00 X:FF Y:00 P:26 SP:FF CYC:156 SL:66
C7AB  29 80     AND #$80                        A:10 X:FF Y:00 P:24 SP:FF CYC:168 SL:66
C7AD  F0 F9     BEQ $C7A8                       A:00 X:FF Y:00 P:26 SP:FF CYC:174 SL:66
C7A8  AD 02 20  LDA $2002 = FF                  A:00 X:FF Y:00 P:26 SP:FF CYC:183 SL:66
C7AB  29 80     AND #$80                        A:10 X:FF Y:00 P:24 SP:FF CYC:195 SL:66
C7AD  F0 F9     BEQ $C7A8                       A:00 X:FF Y:00 P:26 SP:FF CYC:201 SL:66
C7A8  AD 02 20  LDA $2002 = FF                  A:00 X:FF Y:00 P:26 SP:FF CYC:210 SL:66
C7AB  29 80     AND #$80                        A:10 X:FF Y:00 P:24 SP:FF CYC:222 SL:66
C7AD  F0 F9     BEQ $C7A8                       A:00 X:FF Y:00 P:26 SP:FF CYC:228 SL:66
C7A8  AD 02 20  LDA $2002 = FF                  A:00 X:FF Y:00 P:26 SP:FF CYC:237 SL:66
C7AB  29 80     AND #$80                        A:10 X:FF Y:00 P:24 SP:FF CYC:249 SL:66
C7AD  F0 F9     BEQ $C7A8                       A:00 X:FF Y:00 P:26 SP:FF CYC:255 SL:66
C7A8  AD 02 20  LDA $2002 = FF                  A:00 X:FF Y:00 P:26 SP:FF CYC:264 SL:66
C7AB  29 80     AND #$80                        A:10 X:FF Y:00 P:24 SP:FF CYC:276 SL:66
C7AD  F0 F9     BEQ $C7A8                       A:00 X:FF Y:00 P:26 SP:FF CYC:282 SL:66
C7A8  AD 02 20  LDA $2002 = FF                  A:00 X:FF Y:00 P:26 SP:FF CYC:291 SL:66
C7AB  29 80     AND #$80                        A:10 X:FF Y:00 P:24 SP:FF CYC:303 SL:66
C7AD  F0 F9     BEQ $C7A8                       A:00 X:FF Y:00 P:26 SP:FF CYC:309 SL:66
C7A8  AD 02 20  LDA $2002 = FF                  A:00 X:FF Y:00 P:26 SP:FF CYC:318 SL:66
C7AB  29 80     AND #$80                        A:10 X:FF Y:00 P:24 SP:FF CYC:330 SL:66
C7AD  F0 F9     BEQ $C7A8                       A:00 X:FF Y:00 P:26 SP:FF CYC:336 SL:66
C7A8  AD 02 20  LDA $2002 = FF                  A:00 X:FF Y:00 P:26 SP:FF CYC:  4 SL:67
C7AB  29 80     AND #$80                        A:10 X:FF Y:00 P:24 SP:FF CYC: 16 SL:67
C7AD  F0 F9     BEQ $C7A8                       A:00 X:FF Y:00 P:26 SP:FF CYC: 22 SL:67
C7A8  AD 02 20  LDA $2002 = FF                  A:00 X:FF Y:00 P:26 SP:FF CYC: 31 SL:67
C7AB  29 80     AND #$80                        A:10 X:FF Y:00 P:24 SP:FF CYC: 43 SL:67
C7AD  F0 F9     BEQ $C7A8                       A:00 X:FF Y:00 P:26 SP:FF CYC: 49 SL:67
C7A8  AD 02 20  LDA $2002 = FF                  A:00 X:FF Y:00 P:26 SP:FF CYC: 58 SL:67
C7AB  29 80     AND #$80                        A:10 X:FF Y:00 P:24 SP:FF CYC: 70 SL:67
C7AD  F0 F9     BEQ $C7A8                       A:00 X:FF Y:00 P:26 SP:FF CYC: 76 SL:67
C7A8  AD 02 20  LDA $2002 = FF                  A:00 X:FF Y:00 P:26 SP:FF CYC: 85 SL:67
C7AB  29 80     AND #$80                        A:10 X:FF Y:00 P:24 SP:FF CYC: 97 SL:67
C7AD  F0 F9     BEQ $C7A8                       A:00 X:FF Y:00 P:26 SP:FF CYC:103 SL:67
C7A8  AD 02 20  LDA $2002 = FF                  A:00 X:FF Y:00 P:26 SP:FF CYC:112 SL:67
C7AB  29 80     AND #$80                        A:10 X:FF Y:00 P:24 SP:FF CYC:124 SL:67
C7AD  F0 F9     BEQ $C7A8                       A:00 X:FF Y:00 P:26 SP:FF CYC:130 SL:67
C7A8  AD 02 20  LDA $2002 = FF                  A:00 X:FF Y:00 P:26 SP:FF CYC:139 SL:67
C7AB  29 80     AND #$80                        A:10 X:FF Y:00 P:24 SP:FF CYC:151 SL:67
C7AD  F0 F9     BEQ $C7A8                       A:00 X:FF Y:00 P:26 SP:FF CYC:157 SL:67
C7A8  AD 02 20  LDA $2002 = FF                  A:00 X:FF Y:00 P:26 SP:FF CYC:166 SL:67
C7AB  29 80     AND #$80                        A:10 X:FF Y:00 P:24 SP:FF CYC:178 SL:67
C7AD  F0 F9     BEQ $C7A8                       A:00 X:FF Y:00 P:26 SP:FF CYC:184 SL:67
C7A8  AD 02 20  LDA $2002 = FF                  A:00 X:FF Y:00 P:26 SP:FF CYC:193 SL:67
C7AB  29 80     AND #$80                        A:10 X:FF Y:00 P:24 SP:FF CYC:205 SL:67
C7AD  F0 F9     BEQ $C7A8                       A:00 X:FF Y:00 P:26 SP:FF CYC:211 SL:67
C7A8  AD 02 20  LDA $2002 = FF                  A:00 X:FF Y:00 P:26 SP:FF CYC:220 SL:67
C7AB  29 80     AND #$80                        A:10 X:FF Y:00 P:24 SP:FF CYC:232 SL:67
C7AD  F0 F9     BEQ $C7A8                       A:00 X:FF Y:00 P:26 SP:FF CYC:238 SL:67
C7A8  AD 02 20  LDA $2002 = FF                  A:00 X:FF Y:00 P:26 SP:FF CYC:247 SL:67
C7AB  29 80     AND #$80                        A:10 X:FF Y:00 P:24 SP:FF CYC:259 SL:67
C7AD  F0 F9     BEQ $C7A8                       A:00 X:FF Y:00 P:26 SP:FF CYC:265 SL:67
C7A8  AD 02 20  LDA $2002 = FF                  A:00 X:FF Y:00 P:26 SP:FF CYC:274 SL:67
C7AB  29 80     AND #$80                        A:10 X:FF Y:00 P:24 SP:FF CYC:286 SL:67
C7AD  F0 F9     BEQ $C7A8                       A:00 X:FF Y:00 P:26 SP:FF CYC:292 SL:67
C7A8  AD 02 20  LDA $2002 = FF                  A:00 X:FF Y:00 P:26 SP:FF CYC:301 SL:67
C7AB  29 80     AND #$80                        A:10 X:FF Y:00 P:24 SP:FF CYC:313 SL:67
C7AD  F0 F9     BEQ $C7A8                       A:00 X:FF Y:00 P:26 SP:FF CYC:319 SL:67
C7A8  AD 02 20  LDA $2002 = FF                  A:00 X:FF Y:00 P:26 SP:FF CYC:328 SL:67
C7AB  29 80     AND #$80                        A:10 X:FF Y:00 P:24 SP:FF CYC:340 SL:67
C7AD  F0 F9     BEQ $C7A8                       A:00 X:FF Y:00 P:26 SP:FF CYC:  5 SL:68
C7A8  AD 02 20  LDA $2002 = FF                  A:00 X:FF Y:00 P:26 SP:FF CYC: 14 SL:68
C7AB  29 80     AND #$80                        A:10 X:FF Y:00 P:24 SP:FF CYC: 26 SL:68
C7AD  F0 F9     BEQ $C7A8                       A:00 X:FF Y:00 P:26 SP:FF CYC: 32 SL:68
C7A8  AD 02 20  LDA $2002 = FF                  A:00 X:FF Y:00 P:26 SP:FF CYC: 41 SL:68
C7AB  29 80     AND #$80                        A:10 X:FF Y:00 P:24 SP:FF CYC: 53 SL:68
C7AD  F0 F9     BEQ $C7A8                       A:00 X:FF Y:00 P:26 SP:FF CYC: 59 SL:68
C7A8  AD 02 20  LDA $2002 = FF                  A:00 X:FF Y:00 P:26 SP:FF CYC: 68 SL:68
C7AB  29 80     AND #$80                        A:10 X:FF Y:00 P:24 SP:FF CYC: 80 SL:68
C7AD  F0 F9     BEQ $C7A8                       A:00 X:FF Y:00 P:26 SP:FF CYC: 86 SL:68
C7A8  AD 02 20  LDA $2002 = FF                  A:00 X:FF Y:00 P:26 SP:FF CYC: 95 SL:68
C7AB  29 80     AND #$80                        A:10 X:FF Y:00 P:24 SP:FF CYC:107 SL:68
C7AD  F0 F9     BEQ $C7A8                       A:00 X:FF Y:00 P:26 SP:FF CYC:113 SL:68
C7A8  AD 02 20  LDA $2002 = FF                  A:00 X:FF Y:00 P:26 SP:FF CYC:122 SL:68
C7AB  29 80     AND #$80                        A:10 X:FF Y:00 P:24 SP:FF CYC:134 SL:68
C7AD  F0 F9     BEQ $C7A8                       A:00 X:FF Y:00 P:26 SP:FF CYC:140 SL:68
C7A8  AD 02 20  LDA $2002 = FF                  A:00 X:FF Y:00 P:26 SP:FF CYC:149 SL:68
C7AB  29 80     AND #$80                        A:10 X:FF Y:00 P:24 SP:FF CYC:161 SL:68
C7AD  F0 F9     BEQ $C7A8                       A:00 X:FF Y:00 P:26 SP:FF CYC:167 SL:68
C7A8  AD 02 20  LDA $2002 = FF                  A:00 X:FF Y:00 P:26 SP:FF CYC:176 SL:68
C7AB  29 80     AND #$80                        A:10 X:FF Y:00 P:24 SP:FF CYC:188 SL:68
C7AD  F0 F9     BEQ $C7A8                       A:00 X:FF Y:00 P:26 SP:FF CYC:194 SL:68
C7A8  AD 02 20  LDA $2002 = FF                  A:00 X:FF Y:00 P:26 SP:FF CYC:203 SL:68
C7AB  29 80     AND #$80                        A:10 X:FF Y:00 P:24 SP:FF CYC:215 SL:68
C7AD  F0 F9     BEQ $C7A8                       A:00 X:FF Y:00 P:26 SP:FF CYC:221 SL:68
C7A8  AD 02 20  LDA $2002 = FF                  A:00 X:FF Y:00 P:26 SP:FF CYC:230 SL:68
C7AB  29 80     AND #$80                        A:10 X:FF Y:00 P:24 SP:FF CYC:242 SL:68
C7AD  F0 F9     BEQ $C7A8                       A:00 X:FF Y:00 P:26 SP:FF CYC:248 SL:68
C7A8  AD 02 20  LDA $2002 = FF                  A:00 X:FF Y:00 P:26 SP:FF CYC:257 SL:68
C7AB  29 80     AND #$80                        A:10 X:FF Y:00 P:24 SP:FF CYC:269 SL:68
C7AD  F0 F9     BEQ $C7A8                       A:00 X:FF Y:00 P:26 SP:FF CYC:275 SL:68
C7A8  AD 02 20  LDA $2002 = FF                  A:00 X:FF Y:00 P:26 SP:FF CYC:284 SL:68
C7AB  29 80     AND #$80                        A:10 X:FF Y:00 P:24 SP:FF CYC:296 SL:68
C7AD  F0 F9     BEQ $C7A8                       A:00 X:FF Y:00 P:26 SP:FF CYC:302 SL:68
C7A8  AD 02 20  LDA $2002 = FF                  A:00 X:FF Y:00 P:26 SP:FF CYC:311 SL:68
C7AB  29 80     AND #$80                        A:10 X:FF Y:00 P:24 SP:FF CYC:323 SL:68
C7AD  F0 F9     BEQ $C7A8                       A:00 X:FF Y:00 P:26 SP:FF CYC:329 SL:68
C7A8  AD 02 20  LDA $2002 = FF                  A:00 X:FF Y:00 P:26 SP:FF CYC:338 SL:68
C7AB  29 80     AND #$80                        A:10 X:FF Y:00 P:24 SP:FF CYC:  9 SL:69
C7AD  F0 F9     BEQ $C7A8                       A:00 X:FF Y:00 P:26 SP:FF CYC: 15 SL:69
C7A8  AD 02 20  LDA $2002 = FF                  A:00 X:FF Y:00 P:26 SP:FF CYC: 24 SL:69
C7AB  29 80     AND #$80                        A:10 X:FF Y:00 P:24 SP:FF CYC: 36 SL:69
C7AD  F0 F9     BEQ $C7A8                       A:00 X:FF Y:00 P:26 SP:FF CYC: 42 SL:69
C7A8  AD 02 20  LDA $2002 = FF                  A:00 X:FF Y:00 P:26 SP:FF CYC: 51 SL:69
C7AB  29 80     AND #$80                        A:10 X:FF Y:00 P:24 SP:FF CYC: 63 SL:69
C7AD  F0 F9     BEQ $C7A8                       A:00 X:FF Y:00 P:26 SP:FF CYC: 69 SL:69
C7A8  AD 02 20  LDA $2002 = FF                  A:00 X:FF Y:00 P:26 SP:FF CYC: 78 SL:69
C7AB  29 80     AND #$80                        A:10 X:FF Y:00 P:24 SP:FF CYC: 90 SL:69
C7AD  F0 F9     BEQ $C7A8                       A:00 X:FF Y:00 P:26 SP:FF CYC: 96 SL:69
C7A8  AD 02 20  LDA $2002 = FF                  A:00 X:FF Y:00 P:26 SP:FF CYC:105 SL:69
C7AB  29 80     AND #$80                        A:10 X:FF Y:00 P:24 SP:FF CYC:117 SL:69
C7AD  F0 F9     BEQ $C7A8                       A:00 X:FF Y:00 P:26 SP:FF CYC:123 SL:69
C7A8  AD 02 20  LDA $2002 = FF                  A:00 X:FF Y:00 P:26 SP:FF CYC:132 SL:69
C7AB  29 80     AND #$80                        A:10 X:FF Y:00 P:24 SP:FF CYC:144 SL:69
C7AD  F0 F9     BEQ $C7A8                       A:00 X:FF Y:00 P:26 SP:FF CYC:150 SL:69
C7A8  AD 02 20  LDA $2002 = FF                  A:00 X:FF Y:00 P:26 SP:FF CYC:159 SL:69
C7AB  29 80     AND #$80                        A:10 X:FF Y:00 P:24 SP:FF CYC:171 SL:69
C7AD  F0 F9     BEQ $C7A8                       A:00 X:FF Y:00 P:26 SP:FF CYC:177 SL:69
C7A8  AD 02 20  LDA $2002 = FF                  A:00 X:FF Y:00 P:26 SP:FF CYC:186 SL:69
C7AB  29 80     AND #$80                        A:10 X:FF Y:00 P:24 SP:FF CYC:198 SL:69
C7AD  F0 F9     BEQ $C7A8                       A:00 X:FF Y:00 P:26 SP:FF CYC:204 SL:69
C7A8  AD 02 20  LDA $2002 = FF                  A:00 X:FF Y:00 P:26 SP:FF CYC:213 SL:69
C7AB  29 80     AND #$80                        A:10 X:FF Y:00 P:24 SP:FF CYC:225 SL:69
C7AD  F0 F9     BEQ $C7A8                       A:00 X:FF Y:00 P:26 SP:FF CYC:231 SL:69
C7A8  AD 02 20  LDA $2002 = FF                  A:00 X:FF Y:00 P:26 SP:FF CYC:240 SL:69
C7AB  29 80     AND #$80                        A:10 X:FF Y:00 P:24 SP:FF CYC:252 SL:69
C7AD  F0 F9     BEQ $C7A8                       A:00 X:FF Y:00 P:26 SP:FF CYC:258 SL:69
C7A8  AD 02 20  LDA $2002 = FF                  A:00 X:FF Y:00 P:26 SP:FF CYC:267 SL:69
C7AB  29 80     AND #$80                        A:10 X:FF Y:00 P:24 SP:FF CYC:279 SL:69
C7AD  F0 F9     BEQ $C7A8                       A:00 X:FF Y:00 P:26 SP:FF CYC:285 SL:69
C7A8  AD 02 20  LDA $2002 = FF                  A:00 X:FF Y:00 P:26 SP:FF CYC:294 SL:69
C7AB  29 80     AND #$80                        A:10 X:FF Y:00 P:24 SP:FF CYC:306 SL:69
C7AD  F0 F9     BEQ $C7A8                       A:00 X:FF Y:00 P:26 SP:FF CYC:312 SL:69
C7A8  AD 02 20  LDA $2002 = FF                  A:00 X:FF Y:00 P:26 SP:FF CYC:321 SL:69
C7AB  29 80     AND #$80                        A:10 X:FF Y:00 P:24 SP:FF CYC:333 SL:69
C7AD  F0 F9     BEQ $C7A8                       A:00 X:FF Y:00 P:26 SP:FF CYC:339 SL:69
C7A8  AD 02 20  LDA $2002 = FF                  A:00 X:FF Y:00 P:26 SP:FF CYC:  7 SL:70
C7AB  29 80     AND #$80                        A:10 X:FF Y:00 P:24 SP:FF CYC: 19 SL:70
C7AD  F0 F9     BEQ $C7A8                       A:00 X:FF Y:00 P:26 SP:FF CYC: 25 SL:70
C7A8  AD 02 20  LDA $2002 = FF                  A:00 X:FF Y:00 P:26 SP:FF CYC: 34 SL:70
C7AB  29 80     AND #$80                        A:10 X:FF Y:00 P:24 SP:FF CYC: 46 SL:70
C7AD  F0 F9     BEQ $C7A8                       A:00 X:FF Y:00 P:26 SP:FF CYC: 52 SL:70
C7A8  AD 02 20  LDA $2002 = FF                  A:00 X:FF Y:00 P:26 SP:FF CYC: 61 SL:70
C7AB  29 80     AND #$80                        A:10 X:FF Y:00 P:24 SP:FF CYC: 73 SL:70
C7AD  F0 F9     BEQ $C7A8                       A:00 X:FF Y:00 P:26 SP:FF CYC: 79 SL:70
C7A8  AD 02 20  LDA $2002 = FF                  A:00 X:FF Y:00 P:26 SP:FF CYC: 88 SL:70
C7AB  29 80     AND #$80                        A:10 X:FF Y:00 P:24 SP:FF CYC:100 SL:70
C7AD  F0 F9     BEQ $C7A8                       A:00 X:FF Y:00 P:26 SP:FF CYC:106 SL:70
C7A8  AD 02 20  LDA $2002 = FF                  A:00 X:FF Y:00 P:26 SP:FF CYC:115 SL:70
C7AB  29 80     AND #$80                        A:10 X:FF Y:00 P:24 SP:FF CYC:127 SL:70
C7AD  F0 F9     BEQ $C7A8                       A:00 X:FF Y:00 P:26 SP:FF CYC:133 SL:70
C7A8  AD 02 20  LDA $2002 = FF                  A:00 X:FF Y:00 P:26 SP:FF CYC:142 SL:70
C7AB  29 80     AND #$80                        A:10 X:FF Y:00 P:24 SP:FF CYC:154 SL:70
C7AD  F0 F9     BEQ $C7A8                       A:00 X:FF Y:00 P:26 SP:FF CYC:160 SL:70
C7A8  AD 02 20  LDA $2002 = FF                  A:00 X:FF Y:00 P:26 SP:FF CYC:169 SL:70
C7AB  29 80     AND #$80                        A:10 X:FF Y:00 P:24 SP:FF CYC:181 SL:70
C7AD  F0 F9     BEQ $C7A8                       A:00 X:FF Y:00 P:26 SP:FF CYC:187 SL:70
C7A8  AD 02 20  LDA $2002 = FF                  A:00 X:FF Y:00 P:26 SP:FF CYC:196 SL:70
C7AB  29 80     AND #$80                        A:10 X:FF Y:00 P:24 SP:FF CYC:208 SL:70
C7AD  F0 F9     BEQ $C7A8                       A:00 X:FF Y:00 P:26 SP:FF CYC:214 SL:70
C7A8  AD 02 20  LDA $2002 = FF                  A:00 X:FF Y:00 P:26 SP:FF CYC:223 SL:70
C7AB  29 80     AND #$80                        A:10 X:FF Y:00 P:24 SP:FF CYC:235 SL:70
C7AD  F0 F9     BEQ $C7A8                       A:00 X:FF Y:00 P:26 SP:FF CYC:241 SL:70
C7A8  AD 02 20  LDA $2002 = FF                  A:00 X:FF Y:00 P:26 SP:FF CYC:250 SL:70
C7AB  29 80     AND #$80                        A:10 X:FF Y:00 P:24 SP:FF CYC:262 SL:70
C7AD  F0 F9     BEQ $C7A8                       A:00 X:FF Y:00 P:26 SP:FF CYC:268 SL:70
C7A8  AD 02 20  LDA $2002 = FF                  A:00 X:FF Y:00 P:26 SP:FF CYC:277 SL:70
C7AB  29 80     AND #$80                        A:10 X:FF Y:00 P:24 SP:FF CYC:289 SL:70
C7AD  F0 F9     BEQ $C7A8                       A:00 X:FF Y:00 P:26 SP:FF CYC:295 SL:70
C7A8  AD 02 20  LDA $2002 = FF                  A:00 X:FF Y:00 P:26 SP:FF CYC:304 SL:70
C7AB  29 80     AND #$80                        A:10 X:FF Y:00 P:24 SP:FF CYC:316 SL:70
C7AD  F0 F9     BEQ $C7A8                       A:00 X:FF Y:00 P:26 SP:FF CYC:322 SL:70
C7A8  AD 02 20  LDA $2002 = FF                  A:00 X:FF Y:00 P:26 SP:FF CYC:331 SL:70
C7AB  29 80     AND #$80                        A:10 X:FF Y:00 P:24 SP:FF CYC:  2 SL:71
C7AD  F0 F9     BEQ $C7A8                       A:00 X:FF Y:00 P:26 SP:FF CYC:  8 SL:71
C7A8  AD 02 20  LDA $2002 = FF                  A:00 X:FF Y:00 P:26 SP:FF CYC: 17 SL:71
C7AB  29 80     AND #$80                        A:10 X:FF Y:00 P:24 SP:FF CYC: 29 SL:71
C7AD  F0 F9     BEQ $C7A8                       A:00 X:FF Y:00 P:26 SP:FF CYC: 35 SL:71
C7A8  AD 02 20  LDA $2002 = FF                  A:00 X:FF Y:00 P:26 SP:FF CYC: 44 SL:71
C7AB  29 80     AND #$80                        A:10 X:FF Y:00 P:24 SP:FF CYC: 56 SL:71
C7AD  F0 F9     BEQ $C7A8                       A:00 X:FF Y:00 P:26 SP:FF CYC: 62 SL:71
C7A8  AD 02 20  LDA $2002 = FF                  A:00 X:FF Y:00 P:26 SP:FF CYC: 71 SL:71
C7AB  29 80     AND #$80                        A:10 X:FF Y:00 P:24 SP:FF CYC: 83 SL:71
C7AD  F0 F9     BEQ $C7A8                       A:00 X:FF Y:00 P:26 SP:FF CYC: 89 SL:71
C7A8  AD 02 20  LDA $2002 = FF                  A:00 X:FF Y:00 P:26 SP:FF CYC: 98 SL:71
C7AB  29 80     AND #$80                        A:10 X:FF Y:00 P:24 SP:FF CYC:110 SL:71
C7AD  F0 F9     BEQ $C7A8                       A:00 X:FF Y:00 P:26 SP:FF CYC:116 SL:71
C7A8  AD 02 20  LDA $2002 = FF                  A:00 X:FF Y:00 P:26 SP:FF CYC:125 SL:71
C7AB  29 80     AND #$80                        A:10 X:FF Y:00 P:24 SP:FF CYC:137 SL:71
C7AD  F0 F9     BEQ $C7A8                       A:00 X:FF Y:00 P:26 SP:FF CYC:143 SL:71
C7A8  AD 02 20  LDA $2002 = FF                  A:00 X:FF Y:00 P:26 SP:FF CYC:152 SL:71
C7AB  29 80     AND #$80                        A:10 X:FF Y:00 P:24 SP:FF CYC:164 SL:71
C7AD  F0 F9     BEQ $C7A8                       A:00 X:FF Y:00 P:26 SP:FF CYC:170 SL:71
C7A8  AD 02 20  LDA $2002 = FF                  A:00 X:FF Y:00 P:26 SP:FF CYC:179 SL:71
C7AB  29 80     AND #$80                        A:10 X:FF Y:00 P:24 SP:FF CYC:191 SL:71
C7AD  F0 F9     BEQ $C7A8                       A:00 X:FF Y:00 P:26 SP:FF CYC:197 SL:71
C7A8  AD 02 20  LDA $2002 = FF                  A:00 X:FF Y:00 P:26 SP:FF CYC:206 SL:71
C7AB  29 80     AND #$80                        A:10 X:FF Y:00 P:24 SP:FF CYC:218 SL:71
C7AD  F0 F9     BEQ $C7A8                       A:00 X:FF Y:00 P:26 SP:FF CYC:224 SL:71
C7A8  AD 02 20  LDA $2002 = FF                  A:00 X:FF Y:00 P:26 SP:FF CYC:233 SL:71
C7AB  29 80     AND #$80                        A:10 X:FF Y:00 P:24 SP:FF CYC:245 SL:71
C7AD  F0 F9     BEQ $C7A8                       A:00 X:FF Y:00 P:26 SP:FF CYC:251 SL:71
C7A8  AD 02 20  LDA $2002 = FF                  A:00 X:FF Y:00 P:26 SP:FF CYC:260 SL:71
C7AB  29 80     AND #$80                        A:10 X:FF Y:00 P:24 SP:FF CYC:272 SL:71
C7AD  F0 F9     BEQ $C7A8                       A:00 X:FF Y:00 P:26 SP:FF CYC:278 SL:71
C7A8  AD 02 20  LDA $2002 = FF                  A:00 X:FF Y:00 P:26 SP:FF CYC:287 SL:71
C7AB  29 80     AND #$80                        A:10 X:FF Y:00 P:24 SP:FF CYC:299 SL:71
C7AD  F0 F9     BEQ $C7A8                       A:00 X:FF Y:00 P:26 SP:FF CYC:305 SL:71
C7A8  AD 02 20  LDA $2002 = FF                  A:00 X:FF Y:00 P:26 SP:FF CYC:314 SL:71
C7AB  29 80     AND #$80                        A:10 X:FF Y:00 P:24 SP:FF CYC:326 SL:71
C7AD  F0 F9     BEQ $C7A8                       A:00 X:FF Y:00 P:26 SP:FF CYC:332 SL:71
C7A8  AD 02 20  LDA $2002 = FF                  A:00 X:FF Y:00 P:26 SP:FF CYC:  0 SL:72
C7AB  29 80     AND #$80                        A:10 X:FF Y:00 P:24 SP:FF CYC: 12 SL:72
C7AD  F0 F9     BEQ $C7A8                       A:00 X:FF Y:00 P:26 SP:FF CYC: 18 SL:72
C7A8  AD 02 20  LDA $2002 = FF                  A:00 X:FF Y:00 P:26 SP:FF CYC: 27 SL:72
C7AB  29 80     AND #$80                        A:10 X:FF Y:00 P:24 SP:FF CYC: 39 SL:72
C7AD  F0 F9     BEQ $C7A8                       A:00 X:FF Y:00 P:26 SP:FF CYC: 45 SL:72
C7A8  AD 02 20  LDA $2002 = FF                  A:00 X:FF Y:00 P:26 SP:FF CYC: 54 SL:72
C7AB  29 80     AND #$80                        A:10 X:FF Y:00 P:24 SP:FF CYC: 66 SL:72
C7AD  F0 F9     BEQ $C7A8                       A:00 X:FF Y:00 P:26 SP:FF CYC: 72 SL:72
C7A8  AD 02 20  LDA $2002 = FF                  A:00 X:FF Y:00 P:26 SP:FF CYC: 81 SL:72
C7AB  29 80     AND #$80                        A:10 X:FF Y:00 P:24 SP:FF CYC: 93 SL:72
C7AD  F0 F9     BEQ $C7A8                       A:00 X:FF Y:00 P:26 SP:FF CYC: 99 SL:72
C7A8  AD 02 20  LDA $2002 = FF                  A:00 X:FF Y:00 P:26 SP:FF CYC:108 SL:72
C7AB  29 80     AND #$80                        A:10 X:FF Y:00 P:24 SP:FF CYC:120 SL:72
C7AD  F0 F9     BEQ $C7A8                       A:00 X:FF Y:00 P:26 SP:FF CYC:126 SL:72
C7A8  AD 02 20  LDA $2002 = FF                  A:00 X:FF Y:00 P:26 SP:FF CYC:135 SL:72
C7AB  29 80     AND #$80                        A:10 X:FF Y:00 P:24 SP:FF CYC:147 SL:72
C7AD  F0 F9     BEQ $C7A8                       A:00 X:FF Y:00 P:26 SP:FF CYC:153 SL:72
C7A8  AD 02 20  LDA $2002 = FF                  A:00 X:FF Y:00 P:26 SP:FF CYC:162 SL:72
C7AB  29 80     AND #$80                        A:10 X:FF Y:00 P:24 SP:FF CYC:174 SL:72
C7AD  F0 F9     BEQ $C7A8                       A:00 X:FF Y:00 P:26 SP:FF CYC:180 SL:72
C7A8  AD 02 20  LDA $2002 = FF                  A:00 X:FF Y:00 P:26 SP:FF CYC:189 SL:72
C7AB  29 80     AND #$80                        A:10 X:FF Y:00 P:24 SP:FF CYC:201 SL:72
C7AD  F0 F9     BEQ $C7A8                       A:00 X:FF Y:00 P:26 SP:FF CYC:207 SL:72
C7A8  AD 02 20  LDA $2002 = FF                  A:00 X:FF Y:00 P:26 SP:FF CYC:216 SL:72
C7AB  29 80     AND #$80                        A:10 X:FF Y:00 P:24 SP:FF CYC:228 SL:72
C7AD  F0 F9     BEQ $C7A8                       A:00 X:FF Y:00 P:26 SP:FF CYC:234 SL:72
C7A8  AD 02 20  LDA $2002 = FF                  A:00 X:FF Y:00 P:26 SP:FF CYC:243 SL:72
C7AB  29 80     AND #$80                        A:10 X:FF Y:00 P:24 SP:FF CYC:255 SL:72
C7AD  F0 F9     BEQ $C7A8                       A:00 X:FF Y:00 P:26 SP:FF CYC:261 SL:72
C7A8  AD 02 20  LDA $2002 = FF                  A:00 X:FF Y:00 P:26 SP:FF CYC:270 SL:72
C7AB  29 80     AND #$80                        A:10 X:FF Y:00 P:24 SP:FF CYC:282 SL:72
C7AD  F0 F9     BEQ $C7A8                       A:00 X:FF Y:00 P:26 SP:FF CYC:288 SL:72
C7A8  AD 02 20  LDA $2002 = FF                  A:00 X:FF Y:00 P:26 SP:FF CYC:297 SL:72
C7AB  29 80     AND #$80                        A:10 X:FF Y:00 P:24 SP:FF CYC:309 SL:72
C7AD  F0 F9     BEQ $C7A8                       A:00 X:FF Y:00 P:26 SP:FF CYC:315 SL:72
C7A8  AD 02 20  LDA $2002 = FF                  A:00 X:FF Y:00 P:26 SP:FF CYC:324 SL:72
C7AB  29 80     AND #$80                        A:10 X:FF Y:00 P:24 SP:FF CYC:336 SL:72
C7AD  F0 F9     BEQ $C7A8                       A:00 X:FF Y:00 P:26 SP:FF CYC:  1 SL:73
C7A8  AD 02 20  LDA $2002 = FF                  A:00 X:FF Y:00 P:26 SP:FF CYC: 10 SL:73
C7AB  29 80     AND #$80                        A:10 X:FF Y:00 P:24 SP:FF CYC: 22 SL:73
C7AD  F0 F9     BEQ $C7A8                       A:00 X:FF Y:00 P:26 SP:FF CYC: 28 SL:73
C7A8  AD 02 20  LDA $2002 = FF                  A:00 X:FF Y:00 P:26 SP:FF CYC: 37 SL:73
C7AB  29 80     AND #$80                        A:10 X:FF Y:00 P:24 SP:FF CYC: 49 SL:73
C7AD  F0 F9     BEQ $C7A8                       A:00 X:FF Y:00 P:26 SP:FF CYC: 55 SL:73
C7A8  AD 02 20  LDA $2002 = FF                  A:00 X:FF Y:00 P:26 SP:FF CYC: 64 SL:73
C7AB  29 80     AND #$80                        A:10 X:FF Y:00 P:24 SP:FF CYC: 76 SL:73
C7AD  F0 F9     BEQ $C7A8                       A:00 X:FF Y:00 P:26 SP:FF CYC: 82 SL:73
C7A8  AD 02 20  LDA $2002 = FF                  A:00 X:FF Y:00 P:26 SP:FF CYC: 91 SL:73
C7AB  29 80     AND #$80                        A:10 X:FF Y:00 P:24 SP:FF CYC:103 SL:73
C7AD  F0 F9     BEQ $C7A8                       A:00 X:FF Y:00 P:26 SP:FF CYC:109 SL:73
C7A8  AD 02 20  LDA $2002 = FF                  A:00 X:FF Y:00 P:26 SP:FF CYC:118 SL:73
C7AB  29 80     AND #$80                        A:10 X:FF Y:00 P:24 SP:FF CYC:130 SL:73
C7AD  F0 F9     BEQ $C7A8                       A:00 X:FF Y:00 P:26 SP:FF CYC:136 SL:73
C7A8  AD 02 20  LDA $2002 = FF                  A:00 X:FF Y:00 P:26 SP:FF CYC:145 SL:73
C7AB  29 80     AND #$80                        A:10 X:FF Y:00 P:24 SP:FF CYC:157 SL:73
C7AD  F0 F9     BEQ $C7A8                       A:00 X:FF Y:00 P:26 SP:FF CYC:163 SL:73
C7A8  AD 02 20  LDA $2002 = FF                  A:00 X:FF Y:00 P:26 SP:FF CYC:172 SL:73
C7AB  29 80     AND #$80                        A:10 X:FF Y:00 P:24 SP:FF CYC:184 SL:73
C7AD  F0 F9     BEQ $C7A8                       A:00 X:FF Y:00 P:26 SP:FF CYC:190 SL:73
C7A8  AD 02 20  LDA $2002 = FF                  A:00 X:FF Y:00 P:26 SP:FF CYC:199 SL:73
C7AB  29 80     AND #$80                        A:10 X:FF Y:00 P:24 SP:FF CYC:211 SL:73
C7AD  F0 F9     BEQ $C7A8                       A:00 X:FF Y:00 P:26 SP:FF CYC:217 SL:73
C7A8  AD 02 20  LDA $2002 = FF                  A:00 X:FF Y:00 P:26 SP:FF CYC:226 SL:73
C7AB  29 80     AND #$80                        A:10 X:FF Y:00 P:24 SP:FF CYC:238 SL:73
C7AD  F0 F9     BEQ $C7A8                       A:00 X:FF Y:00 P:26 SP:FF CYC:244 SL:73
C7A8  AD 02 20  LDA $2002 = FF                  A:00 X:FF Y:00 P:26 SP:FF CYC:253 SL:73
C7AB  29 80     AND #$80                        A:10 X:FF Y:00 P:24 SP:FF CYC:265 SL:73
C7AD  F0 F9     BEQ $C7A8                       A:00 X:FF Y:00 P:26 SP:FF CYC:271 SL:73
C7A8  AD 02 20  LDA $2002 = FF                  A:00 X:FF Y:00 P:26 SP:FF CYC:280 SL:73
C7AB  29 80     AND #$80                        A:10 X:FF Y:00 P:24 SP:FF CYC:292 SL:73
C7AD  F0 F9     BEQ $C7A8                       A:00 X:FF Y:00 P:26 SP:FF CYC:298 SL:73
C7A8  AD 02 20  LDA $2002 = FF                  A:00 X:FF Y:00 P:26 SP:FF CYC:307 SL:73
C7AB  29 80     AND #$80                        A:10 X:FF Y:00 P:24 SP:FF CYC:319 SL:73
C7AD  F0 F9     BEQ $C7A8                       A:00 X:FF Y:00 P:26 SP:FF CYC:325 SL:73
C7A8  AD 02 20  LDA $2002 = FF                  A:00 X:FF Y:00 P:26 SP:FF CYC:334 SL:73
C7AB  29 80     AND #$80                        A:10 X:FF Y:00 P:24 SP:FF CYC:  5 SL:74
C7AD  F0 F9     BEQ $C7A8                       A:00 X:FF Y:00 P:26 SP:FF CYC: 11 SL:74
C7A8  AD 02 20  LDA $2002 = FF                  A:00 X:FF Y:00 P:26 SP:FF CYC: 20 SL:74
C7AB  29 80     AND #$80                        A:10 X:FF Y:00 P:24 SP:FF CYC: 32 SL:74
C7AD  F0 F9     BEQ $C7A8                       A:00 X:FF Y:00 P:26 SP:FF CYC: 38 SL:74
C7A8  AD 02 20  LDA $2002 = FF                  A:00 X:FF Y:00 P:26 SP:FF CYC: 47 SL:74
C7AB  29 80     AND #$80                        A:10 X:FF Y:00 P:24 SP:FF CYC: 59 SL:74
C7AD  F0 F9     BEQ $C7A8                       A:00 X:FF Y:00 P:26 SP:FF CYC: 65 SL:74
C7A8  AD 02 20  LDA $2002 = FF                  A:00 X:FF Y:00 P:26 SP:FF CYC: 74 SL:74
C7AB  29 80     AND #$80                        A:10 X:FF Y:00 P:24 SP:FF CYC: 86 SL:74
C7AD  F0 F9     BEQ $C7A8                       A:00 X:FF Y:00 P:26 SP:FF CYC: 92 SL:74
C7A8  AD 02 20  LDA $2002 = FF                  A:00 X:FF Y:00 P:26 SP:FF CYC:101 SL:74
C7AB  29 80     AND #$80                        A:10 X:FF Y:00 P:24 SP:FF CYC:113 SL:74
C7AD  F0 F9     BEQ $C7A8                       A:00 X:FF Y:00 P:26 SP:FF CYC:119 SL:74
C7A8  AD 02 20  LDA $2002 = FF                  A:00 X:FF Y:00 P:26 SP:FF CYC:128 SL:74
C7AB  29 80     AND #$80                        A:10 X:FF Y:00 P:24 SP:FF CYC:140 SL:74
C7AD  F0 F9     BEQ $C7A8                       A:00 X:FF Y:00 P:26 SP:FF CYC:146 SL:74
C7A8  AD 02 20  LDA $2002 = FF                  A:00 X:FF Y:00 P:26 SP:FF CYC:155 SL:74
C7AB  29 80     AND #$80                        A:10 X:FF Y:00 P:24 SP:FF CYC:167 SL:74
C7AD  F0 F9     BEQ $C7A8                       A:00 X:FF Y:00 P:26 SP:FF CYC:173 SL:74
C7A8  AD 02 20  LDA $2002 = FF                  A:00 X:FF Y:00 P:26 SP:FF CYC:182 SL:74
C7AB  29 80     AND #$80                        A:10 X:FF Y:00 P:24 SP:FF CYC:194 SL:74
C7AD  F0 F9     BEQ $C7A8                       A:00 X:FF Y:00 P:26 SP:FF CYC:200 SL:74
C7A8  AD 02 20  LDA $2002 = FF                  A:00 X:FF Y:00 P:26 SP:FF CYC:209 SL:74
C7AB  29 80     AND #$80                        A:10 X:FF Y:00 P:24 SP:FF CYC:221 SL:74
C7AD  F0 F9     BEQ $C7A8                       A:00 X:FF Y:00 P:26 SP:FF CYC:227 SL:74
C7A8  AD 02 20  LDA $2002 = FF                  A:00 X:FF Y:00 P:26 SP:FF CYC:236 SL:74
C7AB  29 80     AND #$80                        A:10 X:FF Y:00 P:24 SP:FF CYC:248 SL:74
C7AD  F0 F9     BEQ $C7A8                       A:00 X:FF Y:00 P:26 SP:FF CYC:254 SL:74
C7A8  AD 02 20  LDA $2002 = FF                  A:00 X:FF Y:00 P:26 SP:FF CYC:263 SL:74
C7AB  29 80     AND #$80                        A:10 X:FF Y:00 P:24 SP:FF CYC:275 SL:74
C7AD  F0 F9     BEQ $C7A8                       A:00 X:FF Y:00 P:26 SP:FF CYC:281 SL:74
C7A8  AD 02 20  LDA $2002 = FF                  A:00 X:FF Y:00 P:26 SP:FF CYC:290 SL:74
C7AB  29 80     AND #$80                        A:10 X:FF Y:00 P:24 SP:FF CYC:302 SL:74
C7AD  F0 F9     BEQ $C7A8                       A:00 X:FF Y:00 P:26 SP:FF CYC:308 SL:74
C7A8  AD 02 20  LDA $2002 = FF                  A:00 X:FF Y:00 P:26 SP:FF CYC:317 SL:74
C7AB  29 80     AND #$80                        A:10 X:FF Y:00 P:24 SP:FF CYC:329 SL:74
C7AD  F0 F9     BEQ $C7A8                       A:00 X:FF Y:00 P:26 SP:FF CYC:335 SL:74
C7A8  AD 02 20  LDA $2002 = FF                  A:00 X:FF Y:00 P:26 SP:FF CYC:  3 SL:75
C7AB  29 80     AND #$80                        A:10 X:FF Y:00 P:24 SP:FF CYC: 15 SL:75
C7AD  F0 F9     BEQ $C7A8                       A:00 X:FF Y:00 P:26 SP:FF CYC: 21 SL:75
C7A8  AD 02 20  LDA $2002 = FF                  A:00 X:FF Y:00 P:26 SP:FF CYC: 30 SL:75
C7AB  29 80     AND #$80                        A:10 X:FF Y:00 P:24 SP:FF CYC: 42 SL:75
C7AD  F0 F9     BEQ $C7A8                       A:00 X:FF Y:00 P:26 SP:FF CYC: 48 SL:75
C7A8  AD 02 20  LDA $2002 = FF                  A:00 X:FF Y:00 P:26 SP:FF CYC: 57 SL:75
C7AB  29 80     AND #$80                        A:10 X:FF Y:00 P:24 SP:FF CYC: 69 SL:75
C7AD  F0 F9     BEQ $C7A8                       A:00 X:FF Y:00 P:26 SP:FF CYC: 75 SL:75
C7A8  AD 02 20  LDA $2002 = FF                  A:00 X:FF Y:00 P:26 SP:FF CYC: 84 SL:75
C7AB  29 80     AND #$80                        A:10 X:FF Y:00 P:24 SP:FF CYC: 96 SL:75
C7AD  F0 F9     BEQ $C7A8                       A:00 X:FF Y:00 P:26 SP:FF CYC:102 SL:75
C7A8  AD 02 20  LDA $2002 = FF                  A:00 X:FF Y:00 P:26 SP:FF CYC:111 SL:75
C7AB  29 80     AND #$80                        A:10 X:FF Y:00 P:24 SP:FF CYC:123 SL:75
C7AD  F0 F9     BEQ $C7A8                       A:00 X:FF Y:00 P:26 SP:FF CYC:129 SL:75
C7A8  AD 02 20  LDA $2002 = FF                  A:00 X:FF Y:00 P:26 SP:FF CYC:138 SL:75
C7AB  29 80     AND #$80                        A:10 X:FF Y:00 P:24 SP:FF CYC:150 SL:75
C7AD  F0 F9     BEQ $C7A8                       A:00 X:FF Y:00 P:26 SP:FF CYC:156 SL:75
C7A8  AD 02 20  LDA $2002 = FF                  A:00 X:FF Y:00 P:26 SP:FF CYC:165 SL:75
C7AB  29 80     AND #$80                        A:10 X:FF Y:00 P:24 SP:FF CYC:177 SL:75
C7AD  F0 F9     BEQ $C7A8                       A:00 X:FF Y:00 P:26 SP:FF CYC:183 SL:75
C7A8  AD 02 20  LDA $2002 = FF                  A:00 X:FF Y:00 P:26 SP:FF CYC:192 SL:75
C7AB  29 80     AND #$80                        A:10 X:FF Y:00 P:24 SP:FF CYC:204 SL:75
C7AD  F0 F9     BEQ $C7A8                       A:00 X:FF Y:00 P:26 SP:FF CYC:210 SL:75
C7A8  AD 02 20  LDA $2002 = FF                  A:00 X:FF Y:00 P:26 SP:FF CYC:219 SL:75
C7AB  29 80     AND #$80                        A:10 X:FF Y:00 P:24 SP:FF CYC:231 SL:75
C7AD  F0 F9     BEQ $C7A8                       A:00 X:FF Y:00 P:26 SP:FF CYC:237 SL:75
C7A8  AD 02 20  LDA $2002 = FF                  A:00 X:FF Y:00 P:26 SP:FF CYC:246 SL:75
C7AB  29 80     AND #$80                        A:10 X:FF Y:00 P:24 SP:FF CYC:258 SL:75
C7AD  F0 F9     BEQ $C7A8                       A:00 X:FF Y:00 P:26 SP:FF CYC:264 SL:75
C7A8  AD 02 20  LDA $2002 = FF                  A:00 X:FF Y:00 P:26 SP:FF CYC:273 SL:75
C7AB  29 80     AND #$80                        A:10 X:FF Y:00 P:24 SP:FF CYC:285 SL:75
C7AD  F0 F9     BEQ $C7A8                       A:00 X:FF Y:00 P:26 SP:FF CYC:291 SL:75
C7A8  AD 02 20  LDA $2002 = FF                  A:00 X:FF Y:00 P:26 SP:FF CYC:300 SL:75
C7AB  29 80     AND #$80                        A:10 X:FF Y:00 P:24 SP:FF CYC:312 SL:75
C7AD  F0 F9     BEQ $C7A8                       A:00 X:FF Y:00 P:26 SP:FF CYC:318 SL:75
C7A8  AD 02 20  LDA $2002 = FF                  A:00 X:FF Y:00 P:26 SP:FF CYC:327 SL:75
C7AB  29 80     AND #$80                        A:10 X:FF Y:00 P:24 SP:FF CYC:339 SL:75
C7AD  F0 F9     BEQ $C7A8                       A:00 X:FF Y:00 P:26 SP:FF CYC:  4 SL:76
C7A8  AD 02 20  LDA $2002 = FF                  A:00 X:FF Y:00 P:26 SP:FF CYC: 13 SL:76
C7AB  29 80     AND #$80                        A:10 X:FF Y:00 P:24 SP:FF CYC: 25 SL:76
C7AD  F0 F9     BEQ $C7A8                       A:00 X:FF Y:00 P:26 SP:FF CYC: 31 SL:76
C7A8  AD 02 20  LDA $2002 = FF                  A:00 X:FF Y:00 P:26 SP:FF CYC: 40 SL:76
C7AB  29 80     AND #$80                        A:10 X:FF Y:00 P:24 SP:FF CYC: 52 SL:76
C7AD  F0 F9     BEQ $C7A8                       A:00 X:FF Y:00 P:26 SP:FF CYC: 58 SL:76
C7A8  AD 02 20  LDA $2002 = FF                  A:00 X:FF Y:00 P:26 SP:FF CYC: 67 SL:76
C7AB  29 80     AND #$80                        A:10 X:FF Y:00 P:24 SP:FF CYC: 79 SL:76
C7AD  F0 F9     BEQ $C7A8                       A:00 X:FF Y:00 P:26 SP:FF CYC: 85 SL:76
C7A8  AD 02 20  LDA $2002 = FF                  A:00 X:FF Y:00 P:26 SP:FF CYC: 94 SL:76
C7AB  29 80     AND #$80                        A:10 X:FF Y:00 P:24 SP:FF CYC:106 SL:76
C7AD  F0 F9     BEQ $C7A8                       A:00 X:FF Y:00 P:26 SP:FF CYC:112 SL:76
C7A8  AD 02 20  LDA $2002 = FF                  A:00 X:FF Y:00 P:26 SP:FF CYC:121 SL:76
C7AB  29 80     AND #$80                        A:10 X:FF Y:00 P:24 SP:FF CYC:133 SL:76
C7AD  F0 F9     BEQ $C7A8                       A:00 X:FF Y:00 P:26 SP:FF CYC:139 SL:76
C7A8  AD 02 20  LDA $2002 = FF                  A:00 X:FF Y:00 P:26 SP:FF CYC:148 SL:76
C7AB  29 80     AND #$80                        A:10 X:FF Y:00 P:24 SP:FF CYC:160 SL:76
C7AD  F0 F9     BEQ $C7A8                       A:00 X:FF Y:00 P:26 SP:FF CYC:166 SL:76
C7A8  AD 02 20  LDA $2002 = FF                  A:00 X:FF Y:00 P:26 SP:FF CYC:175 SL:76
C7AB  29 80     AND #$80                        A:10 X:FF Y:00 P:24 SP:FF CYC:187 SL:76
C7AD  F0 F9     BEQ $C7A8                       A:00 X:FF Y:00 P:26 SP:FF CYC:193 SL:76
C7A8  AD 02 20  LDA $2002 = FF                  A:00 X:FF Y:00 P:26 SP:FF CYC:202 SL:76
C7AB  29 80     AND #$80                        A:10 X:FF Y:00 P:24 SP:FF CYC:214 SL:76
C7AD  F0 F9     BEQ $C7A8                       A:00 X:FF Y:00 P:26 SP:FF CYC:220 SL:76
C7A8  AD 02 20  LDA $2002 = FF                  A:00 X:FF Y:00 P:26 SP:FF CYC:229 SL:76
C7AB  29 80     AND #$80                        A:10 X:FF Y:00 P:24 SP:FF CYC:241 SL:76
C7AD  F0 F9     BEQ $C7A8                       A:00 X:FF Y:00 P:26 SP:FF CYC:247 SL:76
C7A8  AD 02 20  LDA $2002 = FF                  A:00 X:FF Y:00 P:26 SP:FF CYC:256 SL:76
C7AB  29 80     AND #$80                        A:10 X:FF Y:00 P:24 SP:FF CYC:268 SL:76
C7AD  F0 F9     BEQ $C7A8                       A:00 X:FF Y:00 P:26 SP:FF CYC:274 SL:76
C7A8  AD 02 20  LDA $2002 = FF                  A:00 X:FF Y:00 P:26 SP:FF CYC:283 SL:76
C7AB  29 80     AND #$80                        A:10 X:FF Y:00 P:24 SP:FF CYC:295 SL:76
C7AD  F0 F9     BEQ $C7A8                       A:00 X:FF Y:00 P:26 SP:FF CYC:301 SL:76
C7A8  AD 02 20  LDA $2002 = FF                  A:00 X:FF Y:00 P:26 SP:FF CYC:310 SL:76
C7AB  29 80     AND #$80                        A:10 X:FF Y:00 P:24 SP:FF CYC:322 SL:76
C7AD  F0 F9     BEQ $C7A8                       A:00 X:FF Y:00 P:26 SP:FF CYC:328 SL:76
C7A8  AD 02 20  LDA $2002 = FF                  A:00 X:FF Y:00 P:26 SP:FF CYC:337 SL:76
C7AB  29 80     AND #$80                        A:10 X:FF Y:00 P:24 SP:FF CYC:  8 SL:77
C7AD  F0 F9     BEQ $C7A8                       A:00 X:FF Y:00 P:26 SP:FF CYC: 14 SL:77
C7A8  AD 02 20  LDA $2002 = FF                  A:00 X:FF Y:00 P:26 SP:FF CYC: 23 SL:77
C7AB  29 80     AND #$80                        A:10 X:FF Y:00 P:24 SP:FF CYC: 35 SL:77
C7AD  F0 F9     BEQ $C7A8                       A:00 X:FF Y:00 P:26 SP:FF CYC: 41 SL:77
C7A8  AD 02 20  LDA $2002 = FF                  A:00 X:FF Y:00 P:26 SP:FF CYC: 50 SL:77
C7AB  29 80     AND #$80                        A:10 X:FF Y:00 P:24 SP:FF CYC: 62 SL:77
C7AD  F0 F9     BEQ $C7A8                       A:00 X:FF Y:00 P:26 SP:FF CYC: 68 SL:77
C7A8  AD 02 20  LDA $2002 = FF                  A:00 X:FF Y:00 P:26 SP:FF CYC: 77 SL:77
C7AB  29 80     AND #$80                        A:10 X:FF Y:00 P:24 SP:FF CYC: 89 SL:77
C7AD  F0 F9     BEQ $C7A8                       A:00 X:FF Y:00 P:26 SP:FF CYC: 95 SL:77
C7A8  AD 02 20  LDA $2002 = FF                  A:00 X:FF Y:00 P:26 SP:FF CYC:104 SL:77
C7AB  29 80     AND #$80                        A:10 X:FF Y:00 P:24 SP:FF CYC:116 SL:77
C7AD  F0 F9     BEQ $C7A8                       A:00 X:FF Y:00 P:26 SP:FF CYC:122 SL:77
C7A8  AD 02 20  LDA $2002 = FF                  A:00 X:FF Y:00 P:26 SP:FF CYC:131 SL:77
C7AB  29 80     AND #$80                        A:10 X:FF Y:00 P:24 SP:FF CYC:143 SL:77
C7AD  F0 F9     BEQ $C7A8                       A:00 X:FF Y:00 P:26 SP:FF CYC:149 SL:77
C7A8  AD 02 20  LDA $2002 = FF                  A:00 X:FF Y:00 P:26 SP:FF CYC:158 SL:77
C7AB  29 80     AND #$80                        A:10 X:FF Y:00 P:24 SP:FF CYC:170 SL:77
C7AD  F0 F9     BEQ $C7A8                       A:00 X:FF Y:00 P:26 SP:FF CYC:176 SL:77
C7A8  AD 02 20  LDA $2002 = FF                  A:00 X:FF Y:00 P:26 SP:FF CYC:185 SL:77
C7AB  29 80     AND #$80                        A:10 X:FF Y:00 P:24 SP:FF CYC:197 SL:77
C7AD  F0 F9     BEQ $C7A8                       A:00 X:FF Y:00 P:26 SP:FF CYC:203 SL:77
C7A8  AD 02 20  LDA $2002 = FF                  A:00 X:FF Y:00 P:26 SP:FF CYC:212 SL:77
C7AB  29 80     AND #$80                        A:10 X:FF Y:00 P:24 SP:FF CYC:224 SL:77
C7AD  F0 F9     BEQ $C7A8                       A:00 X:FF Y:00 P:26 SP:FF CYC:230 SL:77
C7A8  AD 02 20  LDA $2002 = FF                  A:00 X:FF Y:00 P:26 SP:FF CYC:239 SL:77
C7AB  29 80     AND #$80                        A:10 X:FF Y:00 P:24 SP:FF CYC:251 SL:77
C7AD  F0 F9     BEQ $C7A8                       A:00 X:FF Y:00 P:26 SP:FF CYC:257 SL:77
C7A8  AD 02 20  LDA $2002 = FF                  A:00 X:FF Y:00 P:26 SP:FF CYC:266 SL:77
C7AB  29 80     AND #$80                        A:10 X:FF Y:00 P:24 SP:FF CYC:278 SL:77
C7AD  F0 F9     BEQ $C7A8                       A:00 X:FF Y:00 P:26 SP:FF CYC:284 SL:77
C7A8  AD 02 20  LDA $2002 = FF                  A:00 X:FF Y:00 P:26 SP:FF CYC:293 SL:77
C7AB  29 80     AND #$80                        A:10 X:FF Y:00 P:24 SP:FF CYC:305 SL:77
C7AD  F0 F9     BEQ $C7A8                       A:00 X:FF Y:00 P:26 SP:FF CYC:311 SL:77
C7A8  AD 02 20  LDA $2002 = FF                  A:00 X:FF Y:00 P:26 SP:FF CYC:320 SL:77
C7AB  29 80     AND #$80                        A:10 X:FF Y:00 P:24 SP:FF CYC:332 SL:77
C7AD  F0 F9     BEQ $C7A8                       A:00 X:FF Y:00 P:26 SP:FF CYC:338 SL:77
C7A8  AD 02 20  LDA $2002 = FF                  A:00 X:FF Y:00 P:26 SP:FF CYC:  6 SL:78
C7AB  29 80     AND #$80                        A:10 X:FF Y:00 P:24 SP:FF CYC: 18 SL:78
C7AD  F0 F9     BEQ $C7A8                       A:00 X:FF Y:00 P:26 SP:FF CYC: 24 SL:78
C7A8  AD 02 20  LDA $2002 = FF                  A:00 X:FF Y:00 P:26 SP:FF CYC: 33 SL:78
C7AB  29 80     AND #$80                        A:10 X:FF Y:00 P:24 SP:FF CYC: 45 SL:78
C7AD  F0 F9     BEQ $C7A8                       A:00 X:FF Y:00 P:26 SP:FF CYC: 51 SL:78
C7A8  AD 02 20  LDA $2002 = FF                  A:00 X:FF Y:00 P:26 SP:FF CYC: 60 SL:78
C7AB  29 80     AND #$80                        A:10 X:FF Y:00 P:24 SP:FF CYC: 72 SL:78
C7AD  F0 F9     BEQ $C7A8                       A:00 X:FF Y:00 P:26 SP:FF CYC: 78 SL:78
C7A8  AD 02 20  LDA $2002 = FF                  A:00 X:FF Y:00 P:26 SP:FF CYC: 87 SL:78
C7AB  29 80     AND #$80                        A:10 X:FF Y:00 P:24 SP:FF CYC: 99 SL:78
C7AD  F0 F9     BEQ $C7A8                       A:00 X:FF Y:00 P:26 SP:FF CYC:105 SL:78
C7A8  AD 02 20  LDA $2002 = FF                  A:00 X:FF Y:00 P:26 SP:FF CYC:114 SL:78
C7AB  29 80     AND #$80                        A:10 X:FF Y:00 P:24 SP:FF CYC:126 SL:78
C7AD  F0 F9     BEQ $C7A8                       A:00 X:FF Y:00 P:26 SP:FF CYC:132 SL:78
C7A8  AD 02 20  LDA $2002 = FF                  A:00 X:FF Y:00 P:26 SP:FF CYC:141 SL:78
C7AB  29 80     AND #$80                        A:10 X:FF Y:00 P:24 SP:FF CYC:153 SL:78
C7AD  F0 F9     BEQ $C7A8                       A:00 X:FF Y:00 P:26 SP:FF CYC:159 SL:78
C7A8  AD 02 20  LDA $2002 = FF                  A:00 X:FF Y:00 P:26 SP:FF CYC:168 SL:78
C7AB  29 80     AND #$80                        A:10 X:FF Y:00 P:24 SP:FF CYC:180 SL:78
C7AD  F0 F9     BEQ $C7A8                       A:00 X:FF Y:00 P:26 SP:FF CYC:186 SL:78
C7A8  AD 02 20  LDA $2002 = FF                  A:00 X:FF Y:00 P:26 SP:FF CYC:195 SL:78
C7AB  29 80     AND #$80                        A:10 X:FF Y:00 P:24 SP:FF CYC:207 SL:78
C7AD  F0 F9     BEQ $C7A8                       A:00 X:FF Y:00 P:26 SP:FF CYC:213 SL:78
C7A8  AD 02 20  LDA $2002 = FF                  A:00 X:FF Y:00 P:26 SP:FF CYC:222 SL:78
C7AB  29 80     AND #$80                        A:10 X:FF Y:00 P:24 SP:FF CYC:234 SL:78
C7AD  F0 F9     BEQ $C7A8                       A:00 X:FF Y:00 P:26 SP:FF CYC:240 SL:78
C7A8  AD 02 20  LDA $2002 = FF                  A:00 X:FF Y:00 P:26 SP:FF CYC:249 SL:78
C7AB  29 80     AND #$80                        A:10 X:FF Y:00 P:24 SP:FF CYC:261 SL:78
C7AD  F0 F9     BEQ $C7A8                       A:00 X:FF Y:00 P:26 SP:FF CYC:267 SL:78
C7A8  AD 02 20  LDA $2002 = FF                  A:00 X:FF Y:00 P:26 SP:FF CYC:276 SL:78
C7AB  29 80     AND #$80                        A:10 X:FF Y:00 P:24 SP:FF CYC:288 SL:78
C7AD  F0 F9     BEQ $C7A8                       A:00 X:FF Y:00 P:26 SP:FF CYC:294 SL:78
C7A8  AD 02 20  LDA $2002 = FF                  A:00 X:FF Y:00 P:26 SP:FF CYC:303 SL:78
C7AB  29 80     AND #$80                        A:10 X:FF Y:00 P:24 SP:FF CYC:315 SL:78
C7AD  F0 F9     BEQ $C7A8                       A:00 X:FF Y:00 P:26 SP:FF CYC:321 SL:78
C7A8  AD 02 20  LDA $2002 = FF                  A:00 X:FF Y:00 P:26 SP:FF CYC:330 SL:78
C7AB  29 80     AND #$80                        A:10 X:FF Y:00 P:24 SP:FF CYC:  1 SL:79
C7AD  F0 F9     BEQ $C7A8                       A:00 X:FF Y:00 P:26 SP:FF CYC:  7 SL:79
C7A8  AD 02 20  LDA $2002 = FF                  A:00 X:FF Y:00 P:26 SP:FF CYC: 16 SL:79
C7AB  29 80     AND #$80                        A:10 X:FF Y:00 P:24 SP:FF CYC: 28 SL:79
C7AD  F0 F9     BEQ $C7A8                       A:00 X:FF Y:00 P:26 SP:FF CYC: 34 SL:79
C7A8  AD 02 20  LDA $2002 = FF                  A:00 X:FF Y:00 P:26 SP:FF CYC: 43 SL:79
C7AB  29 80     AND #$80                        A:10 X:FF Y:00 P:24 SP:FF CYC: 55 SL:79
C7AD  F0 F9     BEQ $C7A8                       A:00 X:FF Y:00 P:26 SP:FF CYC: 61 SL:79
C7A8  AD 02 20  LDA $2002 = FF                  A:00 X:FF Y:00 P:26 SP:FF CYC: 70 SL:79
C7AB  29 80     AND #$80                        A:10 X:FF Y:00 P:24 SP:FF CYC: 82 SL:79
C7AD  F0 F9     BEQ $C7A8                       A:00 X:FF Y:00 P:26 SP:FF CYC: 88 SL:79
C7A8  AD 02 20  LDA $2002 = FF                  A:00 X:FF Y:00 P:26 SP:FF CYC: 97 SL:79
C7AB  29 80     AND #$80                        A:10 X:FF Y:00 P:24 SP:FF CYC:109 SL:79
C7AD  F0 F9     BEQ $C7A8                       A:00 X:FF Y:00 P:26 SP:FF CYC:115 SL:79
C7A8  AD 02 20  LDA $2002 = FF                  A:00 X:FF Y:00 P:26 SP:FF CYC:124 SL:79
C7AB  29 80     AND #$80                        A:10 X:FF Y:00 P:24 SP:FF CYC:136 SL:79
C7AD  F0 F9     BEQ $C7A8                       A:00 X:FF Y:00 P:26 SP:FF CYC:142 SL:79
C7A8  AD 02 20  LDA $2002 = FF                  A:00 X:FF Y:00 P:26 SP:FF CYC:151 SL:79
C7AB  29 80     AND #$80                        A:10 X:FF Y:00 P:24 SP:FF CYC:163 SL:79
C7AD  F0 F9     BEQ $C7A8                       A:00 X:FF Y:00 P:26 SP:FF CYC:169 SL:79
C7A8  AD 02 20  LDA $2002 = FF                  A:00 X:FF Y:00 P:26 SP:FF CYC:178 SL:79
C7AB  29 80     AND #$80                        A:10 X:FF Y:00 P:24 SP:FF CYC:190 SL:79
C7AD  F0 F9     BEQ $C7A8                       A:00 X:FF Y:00 P:26 SP:FF CYC:196 SL:79
C7A8  AD 02 20  LDA $2002 = FF                  A:00 X:FF Y:00 P:26 SP:FF CYC:205 SL:79
C7AB  29 80     AND #$80                        A:10 X:FF Y:00 P:24 SP:FF CYC:217 SL:79
C7AD  F0 F9     BEQ $C7A8                       A:00 X:FF Y:00 P:26 SP:FF CYC:223 SL:79
C7A8  AD 02 20  LDA $2002 = FF                  A:00 X:FF Y:00 P:26 SP:FF CYC:232 SL:79
C7AB  29 80     AND #$80                        A:10 X:FF Y:00 P:24 SP:FF CYC:244 SL:79
C7AD  F0 F9     BEQ $C7A8                       A:00 X:FF Y:00 P:26 SP:FF CYC:250 SL:79
C7A8  AD 02 20  LDA $2002 = FF                  A:00 X:FF Y:00 P:26 SP:FF CYC:259 SL:79
C7AB  29 80     AND #$80                        A:10 X:FF Y:00 P:24 SP:FF CYC:271 SL:79
C7AD  F0 F9     BEQ $C7A8                       A:00 X:FF Y:00 P:26 SP:FF CYC:277 SL:79
C7A8  AD 02 20  LDA $2002 = FF                  A:00 X:FF Y:00 P:26 SP:FF CYC:286 SL:79
C7AB  29 80     AND #$80                        A:10 X:FF Y:00 P:24 SP:FF CYC:298 SL:79
C7AD  F0 F9     BEQ $C7A8                       A:00 X:FF Y:00 P:26 SP:FF CYC:304 SL:79
C7A8  AD 02 20  LDA $2002 = FF                  A:00 X:FF Y:00 P:26 SP:FF CYC:313 SL:79
C7AB  29 80     AND #$80                        A:10 X:FF Y:00 P:24 SP:FF CYC:325 SL:79
C7AD  F0 F9     BEQ $C7A8                       A:00 X:FF Y:00 P:26 SP:FF CYC:331 SL:79
C7A8  AD 02 20  LDA $2002 = FF                  A:00 X:FF Y:00 P:26 SP:FF CYC:340 SL:79
C7AB  29 80     AND #$80                        A:10 X:FF Y:00 P:24 SP:FF CYC: 11 SL:80
C7AD  F0 F9     BEQ $C7A8                       A:00 X:FF Y:00 P:26 SP:FF CYC: 17 SL:80
C7A8  AD 02 20  LDA $2002 = FF                  A:00 X:FF Y:00 P:26 SP:FF CYC: 26 SL:80
C7AB  29 80     AND #$80                        A:10 X:FF Y:00 P:24 SP:FF CYC: 38 SL:80
C7AD  F0 F9     BEQ $C7A8                       A:00 X:FF Y:00 P:26 SP:FF CYC: 44 SL:80
C7A8  AD 02 20  LDA $2002 = FF                  A:00 X:FF Y:00 P:26 SP:FF CYC: 53 SL:80
C7AB  29 80     AND #$80                        A:10 X:FF Y:00 P:24 SP:FF CYC: 65 SL:80
C7AD  F0 F9     BEQ $C7A8                       A:00 X:FF Y:00 P:26 SP:FF CYC: 71 SL:80
C7A8  AD 02 20  LDA $2002 = FF                  A:00 X:FF Y:00 P:26 SP:FF CYC: 80 SL:80
C7AB  29 80     AND #$80                        A:10 X:FF Y:00 P:24 SP:FF CYC: 92 SL:80
C7AD  F0 F9     BEQ $C7A8                       A:00 X:FF Y:00 P:26 SP:FF CYC: 98 SL:80
C7A8  AD 02 20  LDA $2002 = FF                  A:00 X:FF Y:00 P:26 SP:FF CYC:107 SL:80
C7AB  29 80     AND #$80                        A:10 X:FF Y:00 P:24 SP:FF CYC:119 SL:80
C7AD  F0 F9     BEQ $C7A8                       A:00 X:FF Y:00 P:26 SP:FF CYC:125 SL:80
C7A8  AD 02 20  LDA $2002 = FF                  A:00 X:FF Y:00 P:26 SP:FF CYC:134 SL:80
C7AB  29 80     AND #$80                        A:10 X:FF Y:00 P:24 SP:FF CYC:146 SL:80
C7AD  F0 F9     BEQ $C7A8                       A:00 X:FF Y:00 P:26 SP:FF CYC:152 SL:80
C7A8  AD 02 20  LDA $2002 = FF                  A:00 X:FF Y:00 P:26 SP:FF CYC:161 SL:80
C7AB  29 80     AND #$80                        A:10 X:FF Y:00 P:24 SP:FF CYC:173 SL:80
C7AD  F0 F9     BEQ $C7A8                       A:00 X:FF Y:00 P:26 SP:FF CYC:179 SL:80
C7A8  AD 02 20  LDA $2002 = FF                  A:00 X:FF Y:00 P:26 SP:FF CYC:188 SL:80
C7AB  29 80     AND #$80                        A:10 X:FF Y:00 P:24 SP:FF CYC:200 SL:80
C7AD  F0 F9     BEQ $C7A8                       A:00 X:FF Y:00 P:26 SP:FF CYC:206 SL:80
C7A8  AD 02 20  LDA $2002 = FF                  A:00 X:FF Y:00 P:26 SP:FF CYC:215 SL:80
C7AB  29 80     AND #$80                        A:10 X:FF Y:00 P:24 SP:FF CYC:227 SL:80
C7AD  F0 F9     BEQ $C7A8                       A:00 X:FF Y:00 P:26 SP:FF CYC:233 SL:80
C7A8  AD 02 20  LDA $2002 = FF                  A:00 X:FF Y:00 P:26 SP:FF CYC:242 SL:80
C7AB  29 80     AND #$80                        A:10 X:FF Y:00 P:24 SP:FF CYC:254 SL:80
C7AD  F0 F9     BEQ $C7A8                       A:00 X:FF Y:00 P:26 SP:FF CYC:260 SL:80
C7A8  AD 02 20  LDA $2002 = FF                  A:00 X:FF Y:00 P:26 SP:FF CYC:269 SL:80
C7AB  29 80     AND #$80                        A:10 X:FF Y:00 P:24 SP:FF CYC:281 SL:80
C7AD  F0 F9     BEQ $C7A8                       A:00 X:FF Y:00 P:26 SP:FF CYC:287 SL:80
C7A8  AD 02 20  LDA $2002 = FF                  A:00 X:FF Y:00 P:26 SP:FF CYC:296 SL:80
C7AB  29 80     AND #$80                        A:10 X:FF Y:00 P:24 SP:FF CYC:308 SL:80
C7AD  F0 F9     BEQ $C7A8                       A:00 X:FF Y:00 P:26 SP:FF CYC:314 SL:80
C7A8  AD 02 20  LDA $2002 = FF                  A:00 X:FF Y:00 P:26 SP:FF CYC:323 SL:80
C7AB  29 80     AND #$80                        A:10 X:FF Y:00 P:24 SP:FF CYC:335 SL:80
C7AD  F0 F9     BEQ $C7A8                       A:00 X:FF Y:00 P:26 SP:FF CYC:  0 SL:81
C7A8  AD 02 20  LDA $2002 = FF                  A:00 X:FF Y:00 P:26 SP:FF CYC:  9 SL:81
C7AB  29 80     AND #$80                        A:10 X:FF Y:00 P:24 SP:FF CYC: 21 SL:81
C7AD  F0 F9     BEQ $C7A8                       A:00 X:FF Y:00 P:26 SP:FF CYC: 27 SL:81
C7A8  AD 02 20  LDA $2002 = FF                  A:00 X:FF Y:00 P:26 SP:FF CYC: 36 SL:81
C7AB  29 80     AND #$80                        A:10 X:FF Y:00 P:24 SP:FF CYC: 48 SL:81
C7AD  F0 F9     BEQ $C7A8                       A:00 X:FF Y:00 P:26 SP:FF CYC: 54 SL:81
C7A8  AD 02 20  LDA $2002 = FF                  A:00 X:FF Y:00 P:26 SP:FF CYC: 63 SL:81
C7AB  29 80     AND #$80                        A:10 X:FF Y:00 P:24 SP:FF CYC: 75 SL:81
C7AD  F0 F9     BEQ $C7A8                       A:00 X:FF Y:00 P:26 SP:FF CYC: 81 SL:81
C7A8  AD 02 20  LDA $2002 = FF                  A:00 X:FF Y:00 P:26 SP:FF CYC: 90 SL:81
C7AB  29 80     AND #$80                        A:10 X:FF Y:00 P:24 SP:FF CYC:102 SL:81
C7AD  F0 F9     BEQ $C7A8                       A:00 X:FF Y:00 P:26 SP:FF CYC:108 SL:81
C7A8  AD 02 20  LDA $2002 = FF                  A:00 X:FF Y:00 P:26 SP:FF CYC:117 SL:81
C7AB  29 80     AND #$80                        A:10 X:FF Y:00 P:24 SP:FF CYC:129 SL:81
C7AD  F0 F9     BEQ $C7A8                       A:00 X:FF Y:00 P:26 SP:FF CYC:135 SL:81
C7A8  AD 02 20  LDA $2002 = FF                  A:00 X:FF Y:00 P:26 SP:FF CYC:144 SL:81
C7AB  29 80     AND #$80                        A:10 X:FF Y:00 P:24 SP:FF CYC:156 SL:81
C7AD  F0 F9     BEQ $C7A8                       A:00 X:FF Y:00 P:26 SP:FF CYC:162 SL:81
C7A8  AD 02 20  LDA $2002 = FF                  A:00 X:FF Y:00 P:26 SP:FF CYC:171 SL:81
C7AB  29 80     AND #$80                        A:10 X:FF Y:00 P:24 SP:FF CYC:183 SL:81
C7AD  F0 F9     BEQ $C7A8                       A:00 X:FF Y:00 P:26 SP:FF CYC:189 SL:81
C7A8  AD 02 20  LDA $2002 = FF                  A:00 X:FF Y:00 P:26 SP:FF CYC:198 SL:81
C7AB  29 80     AND #$80                        A:10 X:FF Y:00 P:24 SP:FF CYC:210 SL:81
C7AD  F0 F9     BEQ $C7A8                       A:00 X:FF Y:00 P:26 SP:FF CYC:216 SL:81
C7A8  AD 02 20  LDA $2002 = FF                  A:00 X:FF Y:00 P:26 SP:FF CYC:225 SL:81
C7AB  29 80     AND #$80                        A:10 X:FF Y:00 P:24 SP:FF CYC:237 SL:81
C7AD  F0 F9     BEQ $C7A8                       A:00 X:FF Y:00 P:26 SP:FF CYC:243 SL:81
C7A8  AD 02 20  LDA $2002 = FF                  A:00 X:FF Y:00 P:26 SP:FF CYC:252 SL:81
C7AB  29 80     AND #$80                        A:10 X:FF Y:00 P:24 SP:FF CYC:264 SL:81
C7AD  F0 F9     BEQ $C7A8                       A:00 X:FF Y:00 P:26 SP:FF CYC:270 SL:81
C7A8  AD 02 20  LDA $2002 = FF                  A:00 X:FF Y:00 P:26 SP:FF CYC:279 SL:81
C7AB  29 80     AND #$80                        A:10 X:FF Y:00 P:24 SP:FF CYC:291 SL:81
C7AD  F0 F9     BEQ $C7A8                       A:00 X:FF Y:00 P:26 SP:FF CYC:297 SL:81
C7A8  AD 02 20  LDA $2002 = FF                  A:00 X:FF Y:00 P:26 SP:FF CYC:306 SL:81
C7AB  29 80     AND #$80                        A:10 X:FF Y:00 P:24 SP:FF CYC:318 SL:81
C7AD  F0 F9     BEQ $C7A8                       A:00 X:FF Y:00 P:26 SP:FF CYC:324 SL:81
C7A8  AD 02 20  LDA $2002 = FF                  A:00 X:FF Y:00 P:26 SP:FF CYC:333 SL:81
C7AB  29 80     AND #$80                        A:10 X:FF Y:00 P:24 SP:FF CYC:  4 SL:82
C7AD  F0 F9     BEQ $C7A8                       A:00 X:FF Y:00 P:26 SP:FF CYC: 10 SL:82
C7A8  AD 02 20  LDA $2002 = FF                  A:00 X:FF Y:00 P:26 SP:FF CYC: 19 SL:82
C7AB  29 80     AND #$80                        A:10 X:FF Y:00 P:24 SP:FF CYC: 31 SL:82
C7AD  F0 F9     BEQ $C7A8                       A:00 X:FF Y:00 P:26 SP:FF CYC: 37 SL:82
C7A8  AD 02 20  LDA $2002 = FF                  A:00 X:FF Y:00 P:26 SP:FF CYC: 46 SL:82
C7AB  29 80     AND #$80                        A:10 X:FF Y:00 P:24 SP:FF CYC: 58 SL:82
C7AD  F0 F9     BEQ $C7A8                       A:00 X:FF Y:00 P:26 SP:FF CYC: 64 SL:82
C7A8  AD 02 20  LDA $2002 = FF                  A:00 X:FF Y:00 P:26 SP:FF CYC: 73 SL:82
C7AB  29 80     AND #$80                        A:10 X:FF Y:00 P:24 SP:FF CYC: 85 SL:82
C7AD  F0 F9     BEQ $C7A8                       A:00 X:FF Y:00 P:26 SP:FF CYC: 91 SL:82
C7A8  AD 02 20  LDA $2002 = FF                  A:00 X:FF Y:00 P:26 SP:FF CYC:100 SL:82
C7AB  29 80     AND #$80                        A:10 X:FF Y:00 P:24 SP:FF CYC:112 SL:82
C7AD  F0 F9     BEQ $C7A8                       A:00 X:FF Y:00 P:26 SP:FF CYC:118 SL:82
C7A8  AD 02 20  LDA $2002 = FF                  A:00 X:FF Y:00 P:26 SP:FF CYC:127 SL:82
C7AB  29 80     AND #$80                        A:10 X:FF Y:00 P:24 SP:FF CYC:139 SL:82
C7AD  F0 F9     BEQ $C7A8                       A:00 X:FF Y:00 P:26 SP:FF CYC:145 SL:82
C7A8  AD 02 20  LDA $2002 = FF                  A:00 X:FF Y:00 P:26 SP:FF CYC:154 SL:82
C7AB  29 80     AND #$80                        A:10 X:FF Y:00 P:24 SP:FF CYC:166 SL:82
C7AD  F0 F9     BEQ $C7A8                       A:00 X:FF Y:00 P:26 SP:FF CYC:172 SL:82
C7A8  AD 02 20  LDA $2002 = FF                  A:00 X:FF Y:00 P:26 SP:FF CYC:181 SL:82
C7AB  29 80     AND #$80                        A:10 X:FF Y:00 P:24 SP:FF CYC:193 SL:82
C7AD  F0 F9     BEQ $C7A8                       A:00 X:FF Y:00 P:26 SP:FF CYC:199 SL:82
C7A8  AD 02 20  LDA $2002 = FF                  A:00 X:FF Y:00 P:26 SP:FF CYC:208 SL:82
C7AB  29 80     AND #$80                        A:10 X:FF Y:00 P:24 SP:FF CYC:220 SL:82
C7AD  F0 F9     BEQ $C7A8                       A:00 X:FF Y:00 P:26 SP:FF CYC:226 SL:82
C7A8  AD 02 20  LDA $2002 = FF                  A:00 X:FF Y:00 P:26 SP:FF CYC:235 SL:82
C7AB  29 80     AND #$80                        A:10 X:FF Y:00 P:24 SP:FF CYC:247 SL:82
C7AD  F0 F9     BEQ $C7A8                       A:00 X:FF Y:00 P:26 SP:FF CYC:253 SL:82
C7A8  AD 02 20  LDA $2002 = FF                  A:00 X:FF Y:00 P:26 SP:FF CYC:262 SL:82
C7AB  29 80     AND #$80                        A:10 X:FF Y:00 P:24 SP:FF CYC:274 SL:82
C7AD  F0 F9     BEQ $C7A8                       A:00 X:FF Y:00 P:26 SP:FF CYC:280 SL:82
C7A8  AD 02 20  LDA $2002 = FF                  A:00 X:FF Y:00 P:26 SP:FF CYC:289 SL:82
C7AB  29 80     AND #$80                        A:10 X:FF Y:00 P:24 SP:FF CYC:301 SL:82
C7AD  F0 F9     BEQ $C7A8                       A:00 X:FF Y:00 P:26 SP:FF CYC:307 SL:82
C7A8  AD 02 20  LDA $2002 = FF                  A:00 X:FF Y:00 P:26 SP:FF CYC:316 SL:82
C7AB  29 80     AND #$80                        A:10 X:FF Y:00 P:24 SP:FF CYC:328 SL:82
C7AD  F0 F9     BEQ $C7A8                       A:00 X:FF Y:00 P:26 SP:FF CYC:334 SL:82
C7A8  AD 02 20  LDA $2002 = FF                  A:00 X:FF Y:00 P:26 SP:FF CYC:  2 SL:83
C7AB  29 80     AND #$80                        A:10 X:FF Y:00 P:24 SP:FF CYC: 14 SL:83
C7AD  F0 F9     BEQ $C7A8                       A:00 X:FF Y:00 P:26 SP:FF CYC: 20 SL:83
C7A8  AD 02 20  LDA $2002 = FF                  A:00 X:FF Y:00 P:26 SP:FF CYC: 29 SL:83
C7AB  29 80     AND #$80                        A:10 X:FF Y:00 P:24 SP:FF CYC: 41 SL:83
C7AD  F0 F9     BEQ $C7A8                       A:00 X:FF Y:00 P:26 SP:FF CYC: 47 SL:83
C7A8  AD 02 20  LDA $2002 = FF                  A:00 X:FF Y:00 P:26 SP:FF CYC: 56 SL:83
C7AB  29 80     AND #$80                        A:10 X:FF Y:00 P:24 SP:FF CYC: 68 SL:83
C7AD  F0 F9     BEQ $C7A8                       A:00 X:FF Y:00 P:26 SP:FF CYC: 74 SL:83
C7A8  AD 02 20  LDA $2002 = FF                  A:00 X:FF Y:00 P:26 SP:FF CYC: 83 SL:83
C7AB  29 80     AND #$80                        A:10 X:FF Y:00 P:24 SP:FF CYC: 95 SL:83
C7AD  F0 F9     BEQ $C7A8                       A:00 X:FF Y:00 P:26 SP:FF CYC:101 SL:83
C7A8  AD 02 20  LDA $2002 = FF                  A:00 X:FF Y:00 P:26 SP:FF CYC:110 SL:83
C7AB  29 80     AND #$80                        A:10 X:FF Y:00 P:24 SP:FF CYC:122 SL:83
C7AD  F0 F9     BEQ $C7A8                       A:00 X:FF Y:00 P:26 SP:FF CYC:128 SL:83
C7A8  AD 02 20  LDA $2002 = FF                  A:00 X:FF Y:00 P:26 SP:FF CYC:137 SL:83
C7AB  29 80     AND #$80                        A:10 X:FF Y:00 P:24 SP:FF CYC:149 SL:83
C7AD  F0 F9     BEQ $C7A8                       A:00 X:FF Y:00 P:26 SP:FF CYC:155 SL:83
C7A8  AD 02 20  LDA $2002 = FF                  A:00 X:FF Y:00 P:26 SP:FF CYC:164 SL:83
C7AB  29 80     AND #$80                        A:10 X:FF Y:00 P:24 SP:FF CYC:176 SL:83
C7AD  F0 F9     BEQ $C7A8                       A:00 X:FF Y:00 P:26 SP:FF CYC:182 SL:83
C7A8  AD 02 20  LDA $2002 = FF                  A:00 X:FF Y:00 P:26 SP:FF CYC:191 SL:83
C7AB  29 80     AND #$80                        A:10 X:FF Y:00 P:24 SP:FF CYC:203 SL:83
C7AD  F0 F9     BEQ $C7A8                       A:00 X:FF Y:00 P:26 SP:FF CYC:209 SL:83
C7A8  AD 02 20  LDA $2002 = FF                  A:00 X:FF Y:00 P:26 SP:FF CYC:218 SL:83
C7AB  29 80     AND #$80                        A:10 X:FF Y:00 P:24 SP:FF CYC:230 SL:83
C7AD  F0 F9     BEQ $C7A8                       A:00 X:FF Y:00 P:26 SP:FF CYC:236 SL:83
C7A8  AD 02 20  LDA $2002 = FF                  A:00 X:FF Y:00 P:26 SP:FF CYC:245 SL:83
C7AB  29 80     AND #$80                        A:10 X:FF Y:00 P:24 SP:FF CYC:257 SL:83
C7AD  F0 F9     BEQ $C7A8                       A:00 X:FF Y:00 P:26 SP:FF CYC:263 SL:83
C7A8  AD 02 20  LDA $2002 = FF                  A:00 X:FF Y:00 P:26 SP:FF CYC:272 SL:83
C7AB  29 80     AND #$80                        A:10 X:FF Y:00 P:24 SP:FF CYC:284 SL:83
C7AD  F0 F9     BEQ $C7A8                       A:00 X:FF Y:00 P:26 SP:FF CYC:290 SL:83
C7A8  AD 02 20  LDA $2002 = FF                  A:00 X:FF Y:00 P:26 SP:FF CYC:299 SL:83
C7AB  29 80     AND #$80                        A:10 X:FF Y:00 P:24 SP:FF CYC:311 SL:83
C7AD  F0 F9     BEQ $C7A8                       A:00 X:FF Y:00 P:26 SP:FF CYC:317 SL:83
C7A8  AD 02 20  LDA $2002 = FF                  A:00 X:FF Y:00 P:26 SP:FF CYC:326 SL:83
C7AB  29 80     AND #$80                        A:10 X:FF Y:00 P:24 SP:FF CYC:338 SL:83
C7AD  F0 F9     BEQ $C7A8                       A:00 X:FF Y:00 P:26 SP:FF CYC:  3 SL:84
C7A8  AD 02 20  LDA $2002 = FF                  A:00 X:FF Y:00 P:26 SP:FF CYC: 12 SL:84
C7AB  29 80     AND #$80                        A:10 X:FF Y:00 P:24 SP:FF CYC: 24 SL:84
C7AD  F0 F9     BEQ $C7A8                       A:00 X:FF Y:00 P:26 SP:FF CYC: 30 SL:84
C7A8  AD 02 20  LDA $2002 = FF                  A:00 X:FF Y:00 P:26 SP:FF CYC: 39 SL:84
C7AB  29 80     AND #$80                        A:10 X:FF Y:00 P:24 SP:FF CYC: 51 SL:84
C7AD  F0 F9     BEQ $C7A8                       A:00 X:FF Y:00 P:26 SP:FF CYC: 57 SL:84
C7A8  AD 02 20  LDA $2002 = FF                  A:00 X:FF Y:00 P:26 SP:FF CYC: 66 SL:84
C7AB  29 80     AND #$80                        A:10 X:FF Y:00 P:24 SP:FF CYC: 78 SL:84
C7AD  F0 F9     BEQ $C7A8                       A:00 X:FF Y:00 P:26 SP:FF CYC: 84 SL:84
C7A8  AD 02 20  LDA $2002 = FF                  A:00 X:FF Y:00 P:26 SP:FF CYC: 93 SL:84
C7AB  29 80     AND #$80                        A:10 X:FF Y:00 P:24 SP:FF CYC:105 SL:84
C7AD  F0 F9     BEQ $C7A8                       A:00 X:FF Y:00 P:26 SP:FF CYC:111 SL:84
C7A8  AD 02 20  LDA $2002 = FF                  A:00 X:FF Y:00 P:26 SP:FF CYC:120 SL:84
C7AB  29 80     AND #$80                        A:10 X:FF Y:00 P:24 SP:FF CYC:132 SL:84
C7AD  F0 F9     BEQ $C7A8                       A:00 X:FF Y:00 P:26 SP:FF CYC:138 SL:84
C7A8  AD 02 20  LDA $2002 = FF                  A:00 X:FF Y:00 P:26 SP:FF CYC:147 SL:84
C7AB  29 80     AND #$80                        A:10 X:FF Y:00 P:24 SP:FF CYC:159 SL:84
C7AD  F0 F9     BEQ $C7A8                       A:00 X:FF Y:00 P:26 SP:FF CYC:165 SL:84
C7A8  AD 02 20  LDA $2002 = FF                  A:00 X:FF Y:00 P:26 SP:FF CYC:174 SL:84
C7AB  29 80     AND #$80                        A:10 X:FF Y:00 P:24 SP:FF CYC:186 SL:84
C7AD  F0 F9     BEQ $C7A8                       A:00 X:FF Y:00 P:26 SP:FF CYC:192 SL:84
C7A8  AD 02 20  LDA $2002 = FF                  A:00 X:FF Y:00 P:26 SP:FF CYC:201 SL:84
C7AB  29 80     AND #$80                        A:10 X:FF Y:00 P:24 SP:FF CYC:213 SL:84
C7AD  F0 F9     BEQ $C7A8                       A:00 X:FF Y:00 P:26 SP:FF CYC:219 SL:84
C7A8  AD 02 20  LDA $2002 = FF                  A:00 X:FF Y:00 P:26 SP:FF CYC:228 SL:84
C7AB  29 80     AND #$80                        A:10 X:FF Y:00 P:24 SP:FF CYC:240 SL:84
C7AD  F0 F9     BEQ $C7A8                       A:00 X:FF Y:00 P:26 SP:FF CYC:246 SL:84
C7A8  AD 02 20  LDA $2002 = FF                  A:00 X:FF Y:00 P:26 SP:FF CYC:255 SL:84
C7AB  29 80     AND #$80                        A:10 X:FF Y:00 P:24 SP:FF CYC:267 SL:84
C7AD  F0 F9     BEQ $C7A8                       A:00 X:FF Y:00 P:26 SP:FF CYC:273 SL:84
C7A8  AD 02 20  LDA $2002 = FF                  A:00 X:FF Y:00 P:26 SP:FF CYC:282 SL:84
C7AB  29 80     AND #$80                        A:10 X:FF Y:00 P:24 SP:FF CYC:294 SL:84
C7AD  F0 F9     BEQ $C7A8                       A:00 X:FF Y:00 P:26 SP:FF CYC:300 SL:84
C7A8  AD 02 20  LDA $2002 = FF                  A:00 X:FF Y:00 P:26 SP:FF CYC:309 SL:84
C7AB  29 80     AND #$80                        A:10 X:FF Y:00 P:24 SP:FF CYC:321 SL:84
C7AD  F0 F9     BEQ $C7A8                       A:00 X:FF Y:00 P:26 SP:FF CYC:327 SL:84
C7A8  AD 02 20  LDA $2002 = FF                  A:00 X:FF Y:00 P:26 SP:FF CYC:336 SL:84
C7AB  29 80     AND #$80                        A:10 X:FF Y:00 P:24 SP:FF CYC:  7 SL:85
C7AD  F0 F9     BEQ $C7A8                       A:00 X:FF Y:00 P:26 SP:FF CYC: 13 SL:85
C7A8  AD 02 20  LDA $2002 = FF                  A:00 X:FF Y:00 P:26 SP:FF CYC: 22 SL:85
C7AB  29 80     AND #$80                        A:10 X:FF Y:00 P:24 SP:FF CYC: 34 SL:85
C7AD  F0 F9     BEQ $C7A8                       A:00 X:FF Y:00 P:26 SP:FF CYC: 40 SL:85
C7A8  AD 02 20  LDA $2002 = FF                  A:00 X:FF Y:00 P:26 SP:FF CYC: 49 SL:85
C7AB  29 80     AND #$80                        A:10 X:FF Y:00 P:24 SP:FF CYC: 61 SL:85
C7AD  F0 F9     BEQ $C7A8                       A:00 X:FF Y:00 P:26 SP:FF CYC: 67 SL:85
C7A8  AD 02 20  LDA $2002 = FF                  A:00 X:FF Y:00 P:26 SP:FF CYC: 76 SL:85
C7AB  29 80     AND #$80                        A:10 X:FF Y:00 P:24 SP:FF CYC: 88 SL:85
C7AD  F0 F9     BEQ $C7A8                       A:00 X:FF Y:00 P:26 SP:FF CYC: 94 SL:85
C7A8  AD 02 20  LDA $2002 = FF                  A:00 X:FF Y:00 P:26 SP:FF CYC:103 SL:85
C7AB  29 80     AND #$80                        A:10 X:FF Y:00 P:24 SP:FF CYC:115 SL:85
C7AD  F0 F9     BEQ $C7A8                       A:00 X:FF Y:00 P:26 SP:FF CYC:121 SL:85
C7A8  AD 02 20  LDA $2002 = FF                  A:00 X:FF Y:00 P:26 SP:FF CYC:130 SL:85
C7AB  29 80     AND #$80                        A:10 X:FF Y:00 P:24 SP:FF CYC:142 SL:85
C7AD  F0 F9     BEQ $C7A8                       A:00 X:FF Y:00 P:26 SP:FF CYC:148 SL:85
C7A8  AD 02 20  LDA $2002 = FF                  A:00 X:FF Y:00 P:26 SP:FF CYC:157 SL:85
C7AB  29 80     AND #$80                        A:10 X:FF Y:00 P:24 SP:FF CYC:169 SL:85
C7AD  F0 F9     BEQ $C7A8                       A:00 X:FF Y:00 P:26 SP:FF CYC:175 SL:85
C7A8  AD 02 20  LDA $2002 = FF                  A:00 X:FF Y:00 P:26 SP:FF CYC:184 SL:85
C7AB  29 80     AND #$80                        A:10 X:FF Y:00 P:24 SP:FF CYC:196 SL:85
C7AD  F0 F9     BEQ $C7A8                       A:00 X:FF Y:00 P:26 SP:FF CYC:202 SL:85
C7A8  AD 02 20  LDA $2002 = FF                  A:00 X:FF Y:00 P:26 SP:FF CYC:211 SL:85
C7AB  29 80     AND #$80                        A:10 X:FF Y:00 P:24 SP:FF CYC:223 SL:85
C7AD  F0 F9     BEQ $C7A8                       A:00 X:FF Y:00 P:26 SP:FF CYC:229 SL:85
C7A8  AD 02 20  LDA $2002 = FF                  A:00 X:FF Y:00 P:26 SP:FF CYC:238 SL:85
C7AB  29 80     AND #$80                        A:10 X:FF Y:00 P:24 SP:FF CYC:250 SL:85
C7AD  F0 F9     BEQ $C7A8                       A:00 X:FF Y:00 P:26 SP:FF CYC:256 SL:85
C7A8  AD 02 20  LDA $2002 = FF                  A:00 X:FF Y:00 P:26 SP:FF CYC:265 SL:85
C7AB  29 80     AND #$80                        A:10 X:FF Y:00 P:24 SP:FF CYC:277 SL:85
C7AD  F0 F9     BEQ $C7A8                       A:00 X:FF Y:00 P:26 SP:FF CYC:283 SL:85
C7A8  AD 02 20  LDA $2002 = FF                  A:00 X:FF Y:00 P:26 SP:FF CYC:292 SL:85
C7AB  29 80     AND #$80                        A:10 X:FF Y:00 P:24 SP:FF CYC:304 SL:85
C7AD  F0 F9     BEQ $C7A8                       A:00 X:FF Y:00 P:26 SP:FF CYC:310 SL:85
C7A8  AD 02 20  LDA $2002 = FF                  A:00 X:FF Y:00 P:26 SP:FF CYC:319 SL:85
C7AB  29 80     AND #$80                        A:10 X:FF Y:00 P:24 SP:FF CYC:331 SL:85
C7AD  F0 F9     BEQ $C7A8                       A:00 X:FF Y:00 P:26 SP:FF CYC:337 SL:85
C7A8  AD 02 20  LDA $2002 = FF                  A:00 X:FF Y:00 P:26 SP:FF CYC:  5 SL:86
C7AB  29 80     AND #$80                        A:10 X:FF Y:00 P:24 SP:FF CYC: 17 SL:86
C7AD  F0 F9     BEQ $C7A8                       A:00 X:FF Y:00 P:26 SP:FF CYC: 23 SL:86
C7A8  AD 02 20  LDA $2002 = FF                  A:00 X:FF Y:00 P:26 SP:FF CYC: 32 SL:86
C7AB  29 80     AND #$80                        A:10 X:FF Y:00 P:24 SP:FF CYC: 44 SL:86
C7AD  F0 F9     BEQ $C7A8                       A:00 X:FF Y:00 P:26 SP:FF CYC: 50 SL:86
C7A8  AD 02 20  LDA $2002 = FF                  A:00 X:FF Y:00 P:26 SP:FF CYC: 59 SL:86
C7AB  29 80     AND #$80                        A:10 X:FF Y:00 P:24 SP:FF CYC: 71 SL:86
C7AD  F0 F9     BEQ $C7A8                       A:00 X:FF Y:00 P:26 SP:FF CYC: 77 SL:86
C7A8  AD 02 20  LDA $2002 = FF                  A:00 X:FF Y:00 P:26 SP:FF CYC: 86 SL:86
C7AB  29 80     AND #$80                        A:10 X:FF Y:00 P:24 SP:FF CYC: 98 SL:86
C7AD  F0 F9     BEQ $C7A8                       A:00 X:FF Y:00 P:26 SP:FF CYC:104 SL:86
C7A8  AD 02 20  LDA $2002 = FF                  A:00 X:FF Y:00 P:26 SP:FF CYC:113 SL:86
C7AB  29 80     AND #$80                        A:10 X:FF Y:00 P:24 SP:FF CYC:125 SL:86
C7AD  F0 F9     BEQ $C7A8                       A:00 X:FF Y:00 P:26 SP:FF CYC:131 SL:86
C7A8  AD 02 20  LDA $2002 = FF                  A:00 X:FF Y:00 P:26 SP:FF CYC:140 SL:86
C7AB  29 80     AND #$80                        A:10 X:FF Y:00 P:24 SP:FF CYC:152 SL:86
C7AD  F0 F9     BEQ $C7A8                       A:00 X:FF Y:00 P:26 SP:FF CYC:158 SL:86
C7A8  AD 02 20  LDA $2002 = FF                  A:00 X:FF Y:00 P:26 SP:FF CYC:167 SL:86
C7AB  29 80     AND #$80                        A:10 X:FF Y:00 P:24 SP:FF CYC:179 SL:86
C7AD  F0 F9     BEQ $C7A8                       A:00 X:FF Y:00 P:26 SP:FF CYC:185 SL:86
C7A8  AD 02 20  LDA $2002 = FF                  A:00 X:FF Y:00 P:26 SP:FF CYC:194 SL:86
C7AB  29 80     AND #$80                        A:10 X:FF Y:00 P:24 SP:FF CYC:206 SL:86
C7AD  F0 F9     BEQ $C7A8                       A:00 X:FF Y:00 P:26 SP:FF CYC:212 SL:86
C7A8  AD 02 20  LDA $2002 = FF                  A:00 X:FF Y:00 P:26 SP:FF CYC:221 SL:86
C7AB  29 80     AND #$80                        A:10 X:FF Y:00 P:24 SP:FF CYC:233 SL:86
C7AD  F0 F9     BEQ $C7A8                       A:00 X:FF Y:00 P:26 SP:FF CYC:239 SL:86
C7A8  AD 02 20  LDA $2002 = FF                  A:00 X:FF Y:00 P:26 SP:FF CYC:248 SL:86
C7AB  29 80     AND #$80                        A:10 X:FF Y:00 P:24 SP:FF CYC:260 SL:86
C7AD  F0 F9     BEQ $C7A8                       A:00 X:FF Y:00 P:26 SP:FF CYC:266 SL:86
C7A8  AD 02 20  LDA $2002 = FF                  A:00 X:FF Y:00 P:26 SP:FF CYC:275 SL:86
C7AB  29 80     AND #$80                        A:10 X:FF Y:00 P:24 SP:FF CYC:287 SL:86
C7AD  F0 F9     BEQ $C7A8                       A:00 X:FF Y:00 P:26 SP:FF CYC:293 SL:86
C7A8  AD 02 20  LDA $2002 = FF                  A:00 X:FF Y:00 P:26 SP:FF CYC:302 SL:86
C7AB  29 80     AND #$80                        A:10 X:FF Y:00 P:24 SP:FF CYC:314 SL:86
C7AD  F0 F9     BEQ $C7A8                       A:00 X:FF Y:00 P:26 SP:FF CYC:320 SL:86
C7A8  AD 02 20  LDA $2002 = FF                  A:00 X:FF Y:00 P:26 SP:FF CYC:329 SL:86
C7AB  29 80     AND #$80                        A:10 X:FF Y:00 P:24 SP:FF CYC:  0 SL:87
C7AD  F0 F9     BEQ $C7A8                       A:00 X:FF Y:00 P:26 SP:FF CYC:  6 SL:87
C7A8  AD 02 20  LDA $2002 = FF                  A:00 X:FF Y:00 P:26 SP:FF CYC: 15 SL:87
C7AB  29 80     AND #$80                        A:10 X:FF Y:00 P:24 SP:FF CYC: 27 SL:87
C7AD  F0 F9     BEQ $C7A8                       A:00 X:FF Y:00 P:26 SP:FF CYC: 33 SL:87
C7A8  AD 02 20  LDA $2002 = FF                  A:00 X:FF Y:00 P:26 SP:FF CYC: 42 SL:87
C7AB  29 80     AND #$80                        A:10 X:FF Y:00 P:24 SP:FF CYC: 54 SL:87
C7AD  F0 F9     BEQ $C7A8                       A:00 X:FF Y:00 P:26 SP:FF CYC: 60 SL:87
C7A8  AD 02 20  LDA $2002 = FF                  A:00 X:FF Y:00 P:26 SP:FF CYC: 69 SL:87
C7AB  29 80     AND #$80                        A:10 X:FF Y:00 P:24 SP:FF CYC: 81 SL:87
C7AD  F0 F9     BEQ $C7A8                       A:00 X:FF Y:00 P:26 SP:FF CYC: 87 SL:87
C7A8  AD 02 20  LDA $2002 = FF                  A:00 X:FF Y:00 P:26 SP:FF CYC: 96 SL:87
C7AB  29 80     AND #$80                        A:10 X:FF Y:00 P:24 SP:FF CYC:108 SL:87
C7AD  F0 F9     BEQ $C7A8                       A:00 X:FF Y:00 P:26 SP:FF CYC:114 SL:87
C7A8  AD 02 20  LDA $2002 = FF                  A:00 X:FF Y:00 P:26 SP:FF CYC:123 SL:87
C7AB  29 80     AND #$80                        A:10 X:FF Y:00 P:24 SP:FF CYC:135 SL:87
C7AD  F0 F9     BEQ $C7A8                       A:00 X:FF Y:00 P:26 SP:FF CYC:141 SL:87
C7A8  AD 02 20  LDA $2002 = FF                  A:00 X:FF Y:00 P:26 SP:FF CYC:150 SL:87
C7AB  29 80     AND #$80                        A:10 X:FF Y:00 P:24 SP:FF CYC:162 SL:87
C7AD  F0 F9     BEQ $C7A8                       A:00 X:FF Y:00 P:26 SP:FF CYC:168 SL:87
C7A8  AD 02 20  LDA $2002 = FF                  A:00 X:FF Y:00 P:26 SP:FF CYC:177 SL:87
C7AB  29 80     AND #$80                        A:10 X:FF Y:00 P:24 SP:FF CYC:189 SL:87
C7AD  F0 F9     BEQ $C7A8                       A:00 X:FF Y:00 P:26 SP:FF CYC:195 SL:87
C7A8  AD 02 20  LDA $2002 = FF                  A:00 X:FF Y:00 P:26 SP:FF CYC:204 SL:87
C7AB  29 80     AND #$80                        A:10 X:FF Y:00 P:24 SP:FF CYC:216 SL:87
C7AD  F0 F9     BEQ $C7A8                       A:00 X:FF Y:00 P:26 SP:FF CYC:222 SL:87
C7A8  AD 02 20  LDA $2002 = FF                  A:00 X:FF Y:00 P:26 SP:FF CYC:231 SL:87
C7AB  29 80     AND #$80                        A:10 X:FF Y:00 P:24 SP:FF CYC:243 SL:87
C7AD  F0 F9     BEQ $C7A8                       A:00 X:FF Y:00 P:26 SP:FF CYC:249 SL:87
C7A8  AD 02 20  LDA $2002 = FF                  A:00 X:FF Y:00 P:26 SP:FF CYC:258 SL:87
C7AB  29 80     AND #$80                        A:10 X:FF Y:00 P:24 SP:FF CYC:270 SL:87
C7AD  F0 F9     BEQ $C7A8                       A:00 X:FF Y:00 P:26 SP:FF CYC:276 SL:87
C7A8  AD 02 20  LDA $2002 = FF                  A:00 X:FF Y:00 P:26 SP:FF CYC:285 SL:87
C7AB  29 80     AND #$80                        A:10 X:FF Y:00 P:24 SP:FF CYC:297 SL:87
C7AD  F0 F9     BEQ $C7A8                       A:00 X:FF Y:00 P:26 SP:FF CYC:303 SL:87
C7A8  AD 02 20  LDA $2002 = FF                  A:00 X:FF Y:00 P:26 SP:FF CYC:312 SL:87
C7AB  29 80     AND #$80                        A:10 X:FF Y:00 P:24 SP:FF CYC:324 SL:87
C7AD  F0 F9     BEQ $C7A8                       A:00 X:FF Y:00 P:26 SP:FF CYC:330 SL:87
C7A8  AD 02 20  LDA $2002 = FF                  A:00 X:FF Y:00 P:26 SP:FF CYC:339 SL:87
C7AB  29 80     AND #$80                        A:10 X:FF Y:00 P:24 SP:FF CYC: 10 SL:88
C7AD  F0 F9     BEQ $C7A8                       A:00 X:FF Y:00 P:26 SP:FF CYC: 16 SL:88
C7A8  AD 02 20  LDA $2002 = FF                  A:00 X:FF Y:00 P:26 SP:FF CYC: 25 SL:88
C7AB  29 80     AND #$80                        A:10 X:FF Y:00 P:24 SP:FF CYC: 37 SL:88
C7AD  F0 F9     BEQ $C7A8                       A:00 X:FF Y:00 P:26 SP:FF CYC: 43 SL:88
C7A8  AD 02 20  LDA $2002 = FF                  A:00 X:FF Y:00 P:26 SP:FF CYC: 52 SL:88
C7AB  29 80     AND #$80                        A:10 X:FF Y:00 P:24 SP:FF CYC: 64 SL:88
C7AD  F0 F9     BEQ $C7A8                       A:00 X:FF Y:00 P:26 SP:FF CYC: 70 SL:88
C7A8  AD 02 20  LDA $2002 = FF                  A:00 X:FF Y:00 P:26 SP:FF CYC: 79 SL:88
C7AB  29 80     AND #$80                        A:10 X:FF Y:00 P:24 SP:FF CYC: 91 SL:88
C7AD  F0 F9     BEQ $C7A8                       A:00 X:FF Y:00 P:26 SP:FF CYC: 97 SL:88
C7A8  AD 02 20  LDA $2002 = FF                  A:00 X:FF Y:00 P:26 SP:FF CYC:106 SL:88
C7AB  29 80     AND #$80                        A:10 X:FF Y:00 P:24 SP:FF CYC:118 SL:88
C7AD  F0 F9     BEQ $C7A8                       A:00 X:FF Y:00 P:26 SP:FF CYC:124 SL:88
C7A8  AD 02 20  LDA $2002 = FF                  A:00 X:FF Y:00 P:26 SP:FF CYC:133 SL:88
C7AB  29 80     AND #$80                        A:10 X:FF Y:00 P:24 SP:FF CYC:145 SL:88
C7AD  F0 F9     BEQ $C7A8                       A:00 X:FF Y:00 P:26 SP:FF CYC:151 SL:88
C7A8  AD 02 20  LDA $2002 = FF                  A:00 X:FF Y:00 P:26 SP:FF CYC:160 SL:88
C7AB  29 80     AND #$80                        A:10 X:FF Y:00 P:24 SP:FF CYC:172 SL:88
C7AD  F0 F9     BEQ $C7A8                       A:00 X:FF Y:00 P:26 SP:FF CYC:178 SL:88
C7A8  AD 02 20  LDA $2002 = FF                  A:00 X:FF Y:00 P:26 SP:FF CYC:187 SL:88
C7AB  29 80     AND #$80                        A:10 X:FF Y:00 P:24 SP:FF CYC:199 SL:88
C7AD  F0 F9     BEQ $C7A8                       A:00 X:FF Y:00 P:26 SP:FF CYC:205 SL:88
C7A8  AD 02 20  LDA $2002 = FF                  A:00 X:FF Y:00 P:26 SP:FF CYC:214 SL:88
C7AB  29 80     AND #$80                        A:10 X:FF Y:00 P:24 SP:FF CYC:226 SL:88
C7AD  F0 F9     BEQ $C7A8                       A:00 X:FF Y:00 P:26 SP:FF CYC:232 SL:88
C7A8  AD 02 20  LDA $2002 = FF                  A:00 X:FF Y:00 P:26 SP:FF CYC:241 SL:88
C7AB  29 80     AND #$80                        A:10 X:FF Y:00 P:24 SP:FF CYC:253 SL:88
C7AD  F0 F9     BEQ $C7A8                       A:00 X:FF Y:00 P:26 SP:FF CYC:259 SL:88
C7A8  AD 02 20  LDA $2002 = FF                  A:00 X:FF Y:00 P:26 SP:FF CYC:268 SL:88
C7AB  29 80     AND #$80                        A:10 X:FF Y:00 P:24 SP:FF CYC:280 SL:88
C7AD  F0 F9     BEQ $C7A8                       A:00 X:FF Y:00 P:26 SP:FF CYC:286 SL:88
C7A8  AD 02 20  LDA $2002 = FF                  A:00 X:FF Y:00 P:26 SP:FF CYC:295 SL:88
C7AB  29 80     AND #$80                        A:10 X:FF Y:00 P:24 SP:FF CYC:307 SL:88
C7AD  F0 F9     BEQ $C7A8                       A:00 X:FF Y:00 P:26 SP:FF CYC:313 SL:88
C7A8  AD 02 20  LDA $2002 = FF                  A:00 X:FF Y:00 P:26 SP:FF CYC:322 SL:88
C7AB  29 80     AND #$80                        A:10 X:FF Y:00 P:24 SP:FF CYC:334 SL:88
C7AD  F0 F9     BEQ $C7A8                       A:00 X:FF Y:00 P:26 SP:FF CYC:340 SL:88
C7A8  AD 02 20  LDA $2002 = FF                  A:00 X:FF Y:00 P:26 SP:FF CYC:  8 SL:89
C7AB  29 80     AND #$80                        A:10 X:FF Y:00 P:24 SP:FF CYC: 20 SL:89
C7AD  F0 F9     BEQ $C7A8                       A:00 X:FF Y:00 P:26 SP:FF CYC: 26 SL:89
C7A8  AD 02 20  LDA $2002 = FF                  A:00 X:FF Y:00 P:26 SP:FF CYC: 35 SL:89
C7AB  29 80     AND #$80                        A:10 X:FF Y:00 P:24 SP:FF CYC: 47 SL:89
C7AD  F0 F9     BEQ $C7A8                       A:00 X:FF Y:00 P:26 SP:FF CYC: 53 SL:89
C7A8  AD 02 20  LDA $2002 = FF                  A:00 X:FF Y:00 P:26 SP:FF CYC: 62 SL:89
C7AB  29 80     AND #$80                        A:10 X:FF Y:00 P:24 SP:FF CYC: 74 SL:89
C7AD  F0 F9     BEQ $C7A8                       A:00 X:FF Y:00 P:26 SP:FF CYC: 80 SL:89
C7A8  AD 02 20  LDA $2002 = FF                  A:00 X:FF Y:00 P:26 SP:FF CYC: 89 SL:89
C7AB  29 80     AND #$80                        A:10 X:FF Y:00 P:24 SP:FF CYC:101 SL:89
C7AD  F0 F9     BEQ $C7A8                       A:00 X:FF Y:00 P:26 SP:FF CYC:107 SL:89
C7A8  AD 02 20  LDA $2002 = FF                  A:00 X:FF Y:00 P:26 SP:FF CYC:116 SL:89
C7AB  29 80     AND #$80                        A:10 X:FF Y:00 P:24 SP:FF CYC:128 SL:89
C7AD  F0 F9     BEQ $C7A8                       A:00 X:FF Y:00 P:26 SP:FF CYC:134 SL:89
C7A8  AD 02 20  LDA $2002 = FF                  A:00 X:FF Y:00 P:26 SP:FF CYC:143 SL:89
C7AB  29 80     AND #$80                        A:10 X:FF Y:00 P:24 SP:FF CYC:155 SL:89
C7AD  F0 F9     BEQ $C7A8                       A:00 X:FF Y:00 P:26 SP:FF CYC:161 SL:89
C7A8  AD 02 20  LDA $2002 = FF                  A:00 X:FF Y:00 P:26 SP:FF CYC:170 SL:89
C7AB  29 80     AND #$80                        A:10 X:FF Y:00 P:24 SP:FF CYC:182 SL:89
C7AD  F0 F9     BEQ $C7A8                       A:00 X:FF Y:00 P:26 SP:FF CYC:188 SL:89
C7A8  AD 02 20  LDA $2002 = FF                  A:00 X:FF Y:00 P:26 SP:FF CYC:197 SL:89
C7AB  29 80     AND #$80                        A:10 X:FF Y:00 P:24 SP:FF CYC:209 SL:89
C7AD  F0 F9     BEQ $C7A8                       A:00 X:FF Y:00 P:26 SP:FF CYC:215 SL:89
C7A8  AD 02 20  LDA $2002 = FF                  A:00 X:FF Y:00 P:26 SP:FF CYC:224 SL:89
C7AB  29 80     AND #$80                        A:10 X:FF Y:00 P:24 SP:FF CYC:236 SL:89
C7AD  F0 F9     BEQ $C7A8                       A:00 X:FF Y:00 P:26 SP:FF CYC:242 SL:89
C7A8  AD 02 20  LDA $2002 = FF                  A:00 X:FF Y:00 P:26 SP:FF CYC:251 SL:89
C7AB  29 80     AND #$80                        A:10 X:FF Y:00 P:24 SP:FF CYC:263 SL:89
C7AD  F0 F9     BEQ $C7A8                       A:00 X:FF Y:00 P:26 SP:FF CYC:269 SL:89
C7A8  AD 02 20  LDA $2002 = FF                  A:00 X:FF Y:00 P:26 SP:FF CYC:278 SL:89
C7AB  29 80     AND #$80                        A:10 X:FF Y:00 P:24 SP:FF CYC:290 SL:89
C7AD  F0 F9     BEQ $C7A8                       A:00 X:FF Y:00 P:26 SP:FF CYC:296 SL:89
C7A8  AD 02 20  LDA $2002 = FF                  A:00 X:FF Y:00 P:26 SP:FF CYC:305 SL:89
C7AB  29 80     AND #$80                        A:10 X:FF Y:00 P:24 SP:FF CYC:317 SL:89
C7AD  F0 F9     BEQ $C7A8                       A:00 X:FF Y:00 P:26 SP:FF CYC:323 SL:89
C7A8  AD 02 20  LDA $2002 = FF                  A:00 X:FF Y:00 P:26 SP:FF CYC:332 SL:89
C7AB  29 80     AND #$80                        A:10 X:FF Y:00 P:24 SP:FF CYC:  3 SL:90
C7AD  F0 F9     BEQ $C7A8                       A:00 X:FF Y:00 P:26 SP:FF CYC:  9 SL:90
C7A8  AD 02 20  LDA $2002 = FF                  A:00 X:FF Y:00 P:26 SP:FF CYC: 18 SL:90
C7AB  29 80     AND #$80                        A:10 X:FF Y:00 P:24 SP:FF CYC: 30 SL:90
C7AD  F0 F9     BEQ $C7A8                       A:00 X:FF Y:00 P:26 SP:FF CYC: 36 SL:90
C7A8  AD 02 20  LDA $2002 = FF                  A:00 X:FF Y:00 P:26 SP:FF CYC: 45 SL:90
C7AB  29 80     AND #$80                        A:10 X:FF Y:00 P:24 SP:FF CYC: 57 SL:90
C7AD  F0 F9     BEQ $C7A8                       A:00 X:FF Y:00 P:26 SP:FF CYC: 63 SL:90
C7A8  AD 02 20  LDA $2002 = FF                  A:00 X:FF Y:00 P:26 SP:FF CYC: 72 SL:90
C7AB  29 80     AND #$80                        A:10 X:FF Y:00 P:24 SP:FF CYC: 84 SL:90
C7AD  F0 F9     BEQ $C7A8                       A:00 X:FF Y:00 P:26 SP:FF CYC: 90 SL:90
C7A8  AD 02 20  LDA $2002 = FF                  A:00 X:FF Y:00 P:26 SP:FF CYC: 99 SL:90
C7AB  29 80     AND #$80                        A:10 X:FF Y:00 P:24 SP:FF CYC:111 SL:90
C7AD  F0 F9     BEQ $C7A8                       A:00 X:FF Y:00 P:26 SP:FF CYC:117 SL:90
C7A8  AD 02 20  LDA $2002 = FF                  A:00 X:FF Y:00 P:26 SP:FF CYC:126 SL:90
C7AB  29 80     AND #$80                        A:10 X:FF Y:00 P:24 SP:FF CYC:138 SL:90
C7AD  F0 F9     BEQ $C7A8                       A:00 X:FF Y:00 P:26 SP:FF CYC:144 SL:90
C7A8  AD 02 20  LDA $2002 = FF                  A:00 X:FF Y:00 P:26 SP:FF CYC:153 SL:90
C7AB  29 80     AND #$80                        A:10 X:FF Y:00 P:24 SP:FF CYC:165 SL:90
C7AD  F0 F9     BEQ $C7A8                       A:00 X:FF Y:00 P:26 SP:FF CYC:171 SL:90
C7A8  AD 02 20  LDA $2002 = FF                  A:00 X:FF Y:00 P:26 SP:FF CYC:180 SL:90
C7AB  29 80     AND #$80                        A:10 X:FF Y:00 P:24 SP:FF CYC:192 SL:90
C7AD  F0 F9     BEQ $C7A8                       A:00 X:FF Y:00 P:26 SP:FF CYC:198 SL:90
C7A8  AD 02 20  LDA $2002 = FF                  A:00 X:FF Y:00 P:26 SP:FF CYC:207 SL:90
C7AB  29 80     AND #$80                        A:10 X:FF Y:00 P:24 SP:FF CYC:219 SL:90
C7AD  F0 F9     BEQ $C7A8                       A:00 X:FF Y:00 P:26 SP:FF CYC:225 SL:90
C7A8  AD 02 20  LDA $2002 = FF                  A:00 X:FF Y:00 P:26 SP:FF CYC:234 SL:90
C7AB  29 80     AND #$80                        A:10 X:FF Y:00 P:24 SP:FF CYC:246 SL:90
C7AD  F0 F9     BEQ $C7A8                       A:00 X:FF Y:00 P:26 SP:FF CYC:252 SL:90
C7A8  AD 02 20  LDA $2002 = FF                  A:00 X:FF Y:00 P:26 SP:FF CYC:261 SL:90
C7AB  29 80     AND #$80                        A:10 X:FF Y:00 P:24 SP:FF CYC:273 SL:90
C7AD  F0 F9     BEQ $C7A8                       A:00 X:FF Y:00 P:26 SP:FF CYC:279 SL:90
C7A8  AD 02 20  LDA $2002 = FF                  A:00 X:FF Y:00 P:26 SP:FF CYC:288 SL:90
C7AB  29 80     AND #$80                        A:10 X:FF Y:00 P:24 SP:FF CYC:300 SL:90
C7AD  F0 F9     BEQ $C7A8                       A:00 X:FF Y:00 P:26 SP:FF CYC:306 SL:90
C7A8  AD 02 20  LDA $2002 = FF                  A:00 X:FF Y:00 P:26 SP:FF CYC:315 SL:90
C7AB  29 80     AND #$80                        A:10 X:FF Y:00 P:24 SP:FF CYC:327 SL:90
C7AD  F0 F9     BEQ $C7A8                       A:00 X:FF Y:00 P:26 SP:FF CYC:333 SL:90
C7A8  AD 02 20  LDA $2002 = FF                  A:00 X:FF Y:00 P:26 SP:FF CYC:  1 SL:91
C7AB  29 80     AND #$80                        A:10 X:FF Y:00 P:24 SP:FF CYC: 13 SL:91
C7AD  F0 F9     BEQ $C7A8                       A:00 X:FF Y:00 P:26 SP:FF CYC: 19 SL:91
C7A8  AD 02 20  LDA $2002 = FF                  A:00 X:FF Y:00 P:26 SP:FF CYC: 28 SL:91
C7AB  29 80     AND #$80                        A:10 X:FF Y:00 P:24 SP:FF CYC: 40 SL:91
C7AD  F0 F9     BEQ $C7A8                       A:00 X:FF Y:00 P:26 SP:FF CYC: 46 SL:91
C7A8  AD 02 20  LDA $2002 = FF                  A:00 X:FF Y:00 P:26 SP:FF CYC: 55 SL:91
C7AB  29 80     AND #$80                        A:10 X:FF Y:00 P:24 SP:FF CYC: 67 SL:91
C7AD  F0 F9     BEQ $C7A8                       A:00 X:FF Y:00 P:26 SP:FF CYC: 73 SL:91
C7A8  AD 02 20  LDA $2002 = FF                  A:00 X:FF Y:00 P:26 SP:FF CYC: 82 SL:91
C7AB  29 80     AND #$80                        A:10 X:FF Y:00 P:24 SP:FF CYC: 94 SL:91
C7AD  F0 F9     BEQ $C7A8                       A:00 X:FF Y:00 P:26 SP:FF CYC:100 SL:91
C7A8  AD 02 20  LDA $2002 = FF                  A:00 X:FF Y:00 P:26 SP:FF CYC:109 SL:91
C7AB  29 80     AND #$80                        A:10 X:FF Y:00 P:24 SP:FF CYC:121 SL:91
C7AD  F0 F9     BEQ $C7A8                       A:00 X:FF Y:00 P:26 SP:FF CYC:127 SL:91
C7A8  AD 02 20  LDA $2002 = FF                  A:00 X:FF Y:00 P:26 SP:FF CYC:136 SL:91
C7AB  29 80     AND #$80                        A:10 X:FF Y:00 P:24 SP:FF CYC:148 SL:91
C7AD  F0 F9     BEQ $C7A8                       A:00 X:FF Y:00 P:26 SP:FF CYC:154 SL:91
C7A8  AD 02 20  LDA $2002 = FF                  A:00 X:FF Y:00 P:26 SP:FF CYC:163 SL:91
C7AB  29 80     AND #$80                        A:10 X:FF Y:00 P:24 SP:FF CYC:175 SL:91
C7AD  F0 F9     BEQ $C7A8                       A:00 X:FF Y:00 P:26 SP:FF CYC:181 SL:91
C7A8  AD 02 20  LDA $2002 = FF                  A:00 X:FF Y:00 P:26 SP:FF CYC:190 SL:91
C7AB  29 80     AND #$80                        A:10 X:FF Y:00 P:24 SP:FF CYC:202 SL:91
C7AD  F0 F9     BEQ $C7A8                       A:00 X:FF Y:00 P:26 SP:FF CYC:208 SL:91
C7A8  AD 02 20  LDA $2002 = FF                  A:00 X:FF Y:00 P:26 SP:FF CYC:217 SL:91
C7AB  29 80     AND #$80                        A:10 X:FF Y:00 P:24 SP:FF CYC:229 SL:91
C7AD  F0 F9     BEQ $C7A8                       A:00 X:FF Y:00 P:26 SP:FF CYC:235 SL:91
C7A8  AD 02 20  LDA $2002 = FF                  A:00 X:FF Y:00 P:26 SP:FF CYC:244 SL:91
C7AB  29 80     AND #$80                        A:10 X:FF Y:00 P:24 SP:FF CYC:256 SL:91
C7AD  F0 F9     BEQ $C7A8                       A:00 X:FF Y:00 P:26 SP:FF CYC:262 SL:91
C7A8  AD 02 20  LDA $2002 = FF                  A:00 X:FF Y:00 P:26 SP:FF CYC:271 SL:91
C7AB  29 80     AND #$80                        A:10 X:FF Y:00 P:24 SP:FF CYC:283 SL:91
C7AD  F0 F9     BEQ $C7A8                       A:00 X:FF Y:00 P:26 SP:FF CYC:289 SL:91
C7A8  AD 02 20  LDA $2002 = FF                  A:00 X:FF Y:00 P:26 SP:FF CYC:298 SL:91
C7AB  29 80     AND #$80                        A:10 X:FF Y:00 P:24 SP:FF CYC:310 SL:91
C7AD  F0 F9     BEQ $C7A8                       A:00 X:FF Y:00 P:26 SP:FF CYC:316 SL:91
C7A8  AD 02 20  LDA $2002 = FF                  A:00 X:FF Y:00 P:26 SP:FF CYC:325 SL:91
C7AB  29 80     AND #$80                        A:10 X:FF Y:00 P:24 SP:FF CYC:337 SL:91
C7AD  F0 F9     BEQ $C7A8                       A:00 X:FF Y:00 P:26 SP:FF CYC:  2 SL:92
C7A8  AD 02 20  LDA $2002 = FF                  A:00 X:FF Y:00 P:26 SP:FF CYC: 11 SL:92
C7AB  29 80     AND #$80                        A:10 X:FF Y:00 P:24 SP:FF CYC: 23 SL:92
C7AD  F0 F9     BEQ $C7A8                       A:00 X:FF Y:00 P:26 SP:FF CYC: 29 SL:92
C7A8  AD 02 20  LDA $2002 = FF                  A:00 X:FF Y:00 P:26 SP:FF CYC: 38 SL:92
C7AB  29 80     AND #$80                        A:10 X:FF Y:00 P:24 SP:FF CYC: 50 SL:92
C7AD  F0 F9     BEQ $C7A8                       A:00 X:FF Y:00 P:26 SP:FF CYC: 56 SL:92
C7A8  AD 02 20  LDA $2002 = FF                  A:00 X:FF Y:00 P:26 SP:FF CYC: 65 SL:92
C7AB  29 80     AND #$80                        A:10 X:FF Y:00 P:24 SP:FF CYC: 77 SL:92
C7AD  F0 F9     BEQ $C7A8                       A:00 X:FF Y:00 P:26 SP:FF CYC: 83 SL:92
C7A8  AD 02 20  LDA $2002 = FF                  A:00 X:FF Y:00 P:26 SP:FF CYC: 92 SL:92
C7AB  29 80     AND #$80                        A:10 X:FF Y:00 P:24 SP:FF CYC:104 SL:92
C7AD  F0 F9     BEQ $C7A8                       A:00 X:FF Y:00 P:26 SP:FF CYC:110 SL:92
C7A8  AD 02 20  LDA $2002 = FF                  A:00 X:FF Y:00 P:26 SP:FF CYC:119 SL:92
C7AB  29 80     AND #$80                        A:10 X:FF Y:00 P:24 SP:FF CYC:131 SL:92
C7AD  F0 F9     BEQ $C7A8                       A:00 X:FF Y:00 P:26 SP:FF CYC:137 SL:92
C7A8  AD 02 20  LDA $2002 = FF                  A:00 X:FF Y:00 P:26 SP:FF CYC:146 SL:92
C7AB  29 80     AND #$80                        A:10 X:FF Y:00 P:24 SP:FF CYC:158 SL:92
C7AD  F0 F9     BEQ $C7A8                       A:00 X:FF Y:00 P:26 SP:FF CYC:164 SL:92
C7A8  AD 02 20  LDA $2002 = FF                  A:00 X:FF Y:00 P:26 SP:FF CYC:173 SL:92
C7AB  29 80     AND #$80                        A:10 X:FF Y:00 P:24 SP:FF CYC:185 SL:92
C7AD  F0 F9     BEQ $C7A8                       A:00 X:FF Y:00 P:26 SP:FF CYC:191 SL:92
C7A8  AD 02 20  LDA $2002 = FF                  A:00 X:FF Y:00 P:26 SP:FF CYC:200 SL:92
C7AB  29 80     AND #$80                        A:10 X:FF Y:00 P:24 SP:FF CYC:212 SL:92
C7AD  F0 F9     BEQ $C7A8                       A:00 X:FF Y:00 P:26 SP:FF CYC:218 SL:92
C7A8  AD 02 20  LDA $2002 = FF                  A:00 X:FF Y:00 P:26 SP:FF CYC:227 SL:92
C7AB  29 80     AND #$80                        A:10 X:FF Y:00 P:24 SP:FF CYC:239 SL:92
C7AD  F0 F9     BEQ $C7A8                       A:00 X:FF Y:00 P:26 SP:FF CYC:245 SL:92
C7A8  AD 02 20  LDA $2002 = FF                  A:00 X:FF Y:00 P:26 SP:FF CYC:254 SL:92
C7AB  29 80     AND #$80                        A:10 X:FF Y:00 P:24 SP:FF CYC:266 SL:92
C7AD  F0 F9     BEQ $C7A8                       A:00 X:FF Y:00 P:26 SP:FF CYC:272 SL:92
C7A8  AD 02 20  LDA $2002 = FF                  A:00 X:FF Y:00 P:26 SP:FF CYC:281 SL:92
C7AB  29 80     AND #$80                        A:10 X:FF Y:00 P:24 SP:FF CYC:293 SL:92
C7AD  F0 F9     BEQ $C7A8                       A:00 X:FF Y:00 P:26 SP:FF CYC:299 SL:92
C7A8  AD 02 20  LDA $2002 = FF                  A:00 X:FF Y:00 P:26 SP:FF CYC:308 SL:92
C7AB  29 80     AND #$80                        A:10 X:FF Y:00 P:24 SP:FF CYC:320 SL:92
C7AD  F0 F9     BEQ $C7A8                       A:00 X:FF Y:00 P:26 SP:FF CYC:326 SL:92
C7A8  AD 02 20  LDA $2002 = FF                  A:00 X:FF Y:00 P:26 SP:FF CYC:335 SL:92
C7AB  29 80     AND #$80                        A:10 X:FF Y:00 P:24 SP:FF CYC:  6 SL:93
C7AD  F0 F9     BEQ $C7A8                       A:00 X:FF Y:00 P:26 SP:FF CYC: 12 SL:93
C7A8  AD 02 20  LDA $2002 = FF                  A:00 X:FF Y:00 P:26 SP:FF CYC: 21 SL:93
C7AB  29 80     AND #$80                        A:10 X:FF Y:00 P:24 SP:FF CYC: 33 SL:93
C7AD  F0 F9     BEQ $C7A8                       A:00 X:FF Y:00 P:26 SP:FF CYC: 39 SL:93
C7A8  AD 02 20  LDA $2002 = FF                  A:00 X:FF Y:00 P:26 SP:FF CYC: 48 SL:93
C7AB  29 80     AND #$80                        A:10 X:FF Y:00 P:24 SP:FF CYC: 60 SL:93
C7AD  F0 F9     BEQ $C7A8                       A:00 X:FF Y:00 P:26 SP:FF CYC: 66 SL:93
C7A8  AD 02 20  LDA $2002 = FF                  A:00 X:FF Y:00 P:26 SP:FF CYC: 75 SL:93
C7AB  29 80     AND #$80                        A:10 X:FF Y:00 P:24 SP:FF CYC: 87 SL:93
C7AD  F0 F9     BEQ $C7A8                       A:00 X:FF Y:00 P:26 SP:FF CYC: 93 SL:93
C7A8  AD 02 20  LDA $2002 = FF                  A:00 X:FF Y:00 P:26 SP:FF CYC:102 SL:93
C7AB  29 80     AND #$80                        A:10 X:FF Y:00 P:24 SP:FF CYC:114 SL:93
C7AD  F0 F9     BEQ $C7A8                       A:00 X:FF Y:00 P:26 SP:FF CYC:120 SL:93
C7A8  AD 02 20  LDA $2002 = FF                  A:00 X:FF Y:00 P:26 SP:FF CYC:129 SL:93
C7AB  29 80     AND #$80                        A:10 X:FF Y:00 P:24 SP:FF CYC:141 SL:93
C7AD  F0 F9     BEQ $C7A8                       A:00 X:FF Y:00 P:26 SP:FF CYC:147 SL:93
C7A8  AD 02 20  LDA $2002 = FF                  A:00 X:FF Y:00 P:26 SP:FF CYC:156 SL:93
C7AB  29 80     AND #$80                        A:10 X:FF Y:00 P:24 SP:FF CYC:168 SL:93
C7AD  F0 F9     BEQ $C7A8                       A:00 X:FF Y:00 P:26 SP:FF CYC:174 SL:93
C7A8  AD 02 20  LDA $2002 = FF                  A:00 X:FF Y:00 P:26 SP:FF CYC:183 SL:93
C7AB  29 80     AND #$80                        A:10 X:FF Y:00 P:24 SP:FF CYC:195 SL:93
C7AD  F0 F9     BEQ $C7A8                       A:00 X:FF Y:00 P:26 SP:FF CYC:201 SL:93
C7A8  AD 02 20  LDA $2002 = FF                  A:00 X:FF Y:00 P:26 SP:FF CYC:210 SL:93
C7AB  29 80     AND #$80                        A:10 X:FF Y:00 P:24 SP:FF CYC:222 SL:93
C7AD  F0 F9     BEQ $C7A8                       A:00 X:FF Y:00 P:26 SP:FF CYC:228 SL:93
C7A8  AD 02 20  LDA $2002 = FF                  A:00 X:FF Y:00 P:26 SP:FF CYC:237 SL:93
C7AB  29 80     AND #$80                        A:10 X:FF Y:00 P:24 SP:FF CYC:249 SL:93
C7AD  F0 F9     BEQ $C7A8                       A:00 X:FF Y:00 P:26 SP:FF CYC:255 SL:93
C7A8  AD 02 20  LDA $2002 = FF                  A:00 X:FF Y:00 P:26 SP:FF CYC:264 SL:93
C7AB  29 80     AND #$80                        A:10 X:FF Y:00 P:24 SP:FF CYC:276 SL:93
C7AD  F0 F9     BEQ $C7A8                       A:00 X:FF Y:00 P:26 SP:FF CYC:282 SL:93
C7A8  AD 02 20  LDA $2002 = FF                  A:00 X:FF Y:00 P:26 SP:FF CYC:291 SL:93
C7AB  29 80     AND #$80                        A:10 X:FF Y:00 P:24 SP:FF CYC:303 SL:93
C7AD  F0 F9     BEQ $C7A8                       A:00 X:FF Y:00 P:26 SP:FF CYC:309 SL:93
C7A8  AD 02 20  LDA $2002 = FF                  A:00 X:FF Y:00 P:26 SP:FF CYC:318 SL:93
C7AB  29 80     AND #$80                        A:10 X:FF Y:00 P:24 SP:FF CYC:330 SL:93
C7AD  F0 F9     BEQ $C7A8                       A:00 X:FF Y:00 P:26 SP:FF CYC:336 SL:93
C7A8  AD 02 20  LDA $2002 = FF                  A:00 X:FF Y:00 P:26 SP:FF CYC:  4 SL:94
C7AB  29 80     AND #$80                        A:10 X:FF Y:00 P:24 SP:FF CYC: 16 SL:94
C7AD  F0 F9     BEQ $C7A8                       A:00 X:FF Y:00 P:26 SP:FF CYC: 22 SL:94
C7A8  AD 02 20  LDA $2002 = FF                  A:00 X:FF Y:00 P:26 SP:FF CYC: 31 SL:94
C7AB  29 80     AND #$80                        A:10 X:FF Y:00 P:24 SP:FF CYC: 43 SL:94
C7AD  F0 F9     BEQ $C7A8                       A:00 X:FF Y:00 P:26 SP:FF CYC: 49 SL:94
C7A8  AD 02 20  LDA $2002 = FF                  A:00 X:FF Y:00 P:26 SP:FF CYC: 58 SL:94
C7AB  29 80     AND #$80                        A:10 X:FF Y:00 P:24 SP:FF CYC: 70 SL:94
C7AD  F0 F9     BEQ $C7A8                       A:00 X:FF Y:00 P:26 SP:FF CYC: 76 SL:94
C7A8  AD 02 20  LDA $2002 = FF                  A:00 X:FF Y:00 P:26 SP:FF CYC: 85 SL:94
C7AB  29 80     AND #$80                        A:10 X:FF Y:00 P:24 SP:FF CYC: 97 SL:94
C7AD  F0 F9     BEQ $C7A8                       A:00 X:FF Y:00 P:26 SP:FF CYC:103 SL:94
C7A8  AD 02 20  LDA $2002 = FF                  A:00 X:FF Y:00 P:26 SP:FF CYC:112 SL:94
C7AB  29 80     AND #$80                        A:10 X:FF Y:00 P:24 SP:FF CYC:124 SL:94
C7AD  F0 F9     BEQ $C7A8                       A:00 X:FF Y:00 P:26 SP:FF CYC:130 SL:94
C7A8  AD 02 20  LDA $2002 = FF                  A:00 X:FF Y:00 P:26 SP:FF CYC:139 SL:94
C7AB  29 80     AND #$80                        A:10 X:FF Y:00 P:24 SP:FF CYC:151 SL:94
C7AD  F0 F9     BEQ $C7A8                       A:00 X:FF Y:00 P:26 SP:FF CYC:157 SL:94
C7A8  AD 02 20  LDA $2002 = FF                  A:00 X:FF Y:00 P:26 SP:FF CYC:166 SL:94
C7AB  29 80     AND #$80                        A:10 X:FF Y:00 P:24 SP:FF CYC:178 SL:94
C7AD  F0 F9     BEQ $C7A8                       A:00 X:FF Y:00 P:26 SP:FF CYC:184 SL:94
C7A8  AD 02 20  LDA $2002 = FF                  A:00 X:FF Y:00 P:26 SP:FF CYC:193 SL:94
C7AB  29 80     AND #$80                        A:10 X:FF Y:00 P:24 SP:FF CYC:205 SL:94
C7AD  F0 F9     BEQ $C7A8                       A:00 X:FF Y:00 P:26 SP:FF CYC:211 SL:94
C7A8  AD 02 20  LDA $2002 = FF                  A:00 X:FF Y:00 P:26 SP:FF CYC:220 SL:94
C7AB  29 80     AND #$80                        A:10 X:FF Y:00 P:24 SP:FF CYC:232 SL:94
C7AD  F0 F9     BEQ $C7A8                       A:00 X:FF Y:00 P:26 SP:FF CYC:238 SL:94
C7A8  AD 02 20  LDA $2002 = FF                  A:00 X:FF Y:00 P:26 SP:FF CYC:247 SL:94
C7AB  29 80     AND #$80                        A:10 X:FF Y:00 P:24 SP:FF CYC:259 SL:94
C7AD  F0 F9     BEQ $C7A8                       A:00 X:FF Y:00 P:26 SP:FF CYC:265 SL:94
C7A8  AD 02 20  LDA $2002 = FF                  A:00 X:FF Y:00 P:26 SP:FF CYC:274 SL:94
C7AB  29 80     AND #$80                        A:10 X:FF Y:00 P:24 SP:FF CYC:286 SL:94
C7AD  F0 F9     BEQ $C7A8                       A:00 X:FF Y:00 P:26 SP:FF CYC:292 SL:94
C7A8  AD 02 20  LDA $2002 = FF                  A:00 X:FF Y:00 P:26 SP:FF CYC:301 SL:94
C7AB  29 80     AND #$80                        A:10 X:FF Y:00 P:24 SP:FF CYC:313 SL:94
C7AD  F0 F9     BEQ $C7A8                       A:00 X:FF Y:00 P:26 SP:FF CYC:319 SL:94
C7A8  AD 02 20  LDA $2002 = FF                  A:00 X:FF Y:00 P:26 SP:FF CYC:328 SL:94
C7AB  29 80     AND #$80                        A:10 X:FF Y:00 P:24 SP:FF CYC:340 SL:94
C7AD  F0 F9     BEQ $C7A8                       A:00 X:FF Y:00 P:26 SP:FF CYC:  5 SL:95
C7A8  AD 02 20  LDA $2002 = FF                  A:00 X:FF Y:00 P:26 SP:FF CYC: 14 SL:95
C7AB  29 80     AND #$80                        A:10 X:FF Y:00 P:24 SP:FF CYC: 26 SL:95
C7AD  F0 F9     BEQ $C7A8                       A:00 X:FF Y:00 P:26 SP:FF CYC: 32 SL:95
C7A8  AD 02 20  LDA $2002 = FF                  A:00 X:FF Y:00 P:26 SP:FF CYC: 41 SL:95
C7AB  29 80     AND #$80                        A:10 X:FF Y:00 P:24 SP:FF CYC: 53 SL:95
C7AD  F0 F9     BEQ $C7A8                       A:00 X:FF Y:00 P:26 SP:FF CYC: 59 SL:95
C7A8  AD 02 20  LDA $2002 = FF                  A:00 X:FF Y:00 P:26 SP:FF CYC: 68 SL:95
C7AB  29 80     AND #$80                        A:10 X:FF Y:00 P:24 SP:FF CYC: 80 SL:95
C7AD  F0 F9     BEQ $C7A8                       A:00 X:FF Y:00 P:26 SP:FF CYC: 86 SL:95
C7A8  AD 02 20  LDA $2002 = FF                  A:00 X:FF Y:00 P:26 SP:FF CYC: 95 SL:95
C7AB  29 80     AND #$80                        A:10 X:FF Y:00 P:24 SP:FF CYC:107 SL:95
C7AD  F0 F9     BEQ $C7A8                       A:00 X:FF Y:00 P:26 SP:FF CYC:113 SL:95
C7A8  AD 02 20  LDA $2002 = FF                  A:00 X:FF Y:00 P:26 SP:FF CYC:122 SL:95
C7AB  29 80     AND #$80                        A:10 X:FF Y:00 P:24 SP:FF CYC:134 SL:95
C7AD  F0 F9     BEQ $C7A8                       A:00 X:FF Y:00 P:26 SP:FF CYC:140 SL:95
C7A8  AD 02 20  LDA $2002 = FF                  A:00 X:FF Y:00 P:26 SP:FF CYC:149 SL:95
C7AB  29 80     AND #$80                        A:10 X:FF Y:00 P:24 SP:FF CYC:161 SL:95
C7AD  F0 F9     BEQ $C7A8                       A:00 X:FF Y:00 P:26 SP:FF CYC:167 SL:95
C7A8  AD 02 20  LDA $2002 = FF                  A:00 X:FF Y:00 P:26 SP:FF CYC:176 SL:95
C7AB  29 80     AND #$80                        A:10 X:FF Y:00 P:24 SP:FF CYC:188 SL:95
C7AD  F0 F9     BEQ $C7A8                       A:00 X:FF Y:00 P:26 SP:FF CYC:194 SL:95
C7A8  AD 02 20  LDA $2002 = FF                  A:00 X:FF Y:00 P:26 SP:FF CYC:203 SL:95
C7AB  29 80     AND #$80                        A:10 X:FF Y:00 P:24 SP:FF CYC:215 SL:95
C7AD  F0 F9     BEQ $C7A8                       A:00 X:FF Y:00 P:26 SP:FF CYC:221 SL:95
C7A8  AD 02 20  LDA $2002 = FF                  A:00 X:FF Y:00 P:26 SP:FF CYC:230 SL:95
C7AB  29 80     AND #$80                        A:10 X:FF Y:00 P:24 SP:FF CYC:242 SL:95
C7AD  F0 F9     BEQ $C7A8                       A:00 X:FF Y:00 P:26 SP:FF CYC:248 SL:95
C7A8  AD 02 20  LDA $2002 = FF                  A:00 X:FF Y:00 P:26 SP:FF CYC:257 SL:95
C7AB  29 80     AND #$80                        A:10 X:FF Y:00 P:24 SP:FF CYC:269 SL:95
C7AD  F0 F9     BEQ $C7A8                       A:00 X:FF Y:00 P:26 SP:FF CYC:275 SL:95
C7A8  AD 02 20  LDA $2002 = FF                  A:00 X:FF Y:00 P:26 SP:FF CYC:284 SL:95
C7AB  29 80     AND #$80                        A:10 X:FF Y:00 P:24 SP:FF CYC:296 SL:95
C7AD  F0 F9     BEQ $C7A8                       A:00 X:FF Y:00 P:26 SP:FF CYC:302 SL:95
C7A8  AD 02 20  LDA $2002 = FF                  A:00 X:FF Y:00 P:26 SP:FF CYC:311 SL:95
C7AB  29 80     AND #$80                        A:10 X:FF Y:00 P:24 SP:FF CYC:323 SL:95
C7AD  F0 F9     BEQ $C7A8                       A:00 X:FF Y:00 P:26 SP:FF CYC:329 SL:95
C7A8  AD 02 20  LDA $2002 = FF                  A:00 X:FF Y:00 P:26 SP:FF CYC:338 SL:95
C7AB  29 80     AND #$80                        A:10 X:FF Y:00 P:24 SP:FF CYC:  9 SL:96
C7AD  F0 F9     BEQ $C7A8                       A:00 X:FF Y:00 P:26 SP:FF CYC: 15 SL:96
C7A8  AD 02 20  LDA $2002 = FF                  A:00 X:FF Y:00 P:26 SP:FF CYC: 24 SL:96
C7AB  29 80     AND #$80                        A:10 X:FF Y:00 P:24 SP:FF CYC: 36 SL:96
C7AD  F0 F9     BEQ $C7A8                       A:00 X:FF Y:00 P:26 SP:FF CYC: 42 SL:96
C7A8  AD 02 20  LDA $2002 = FF                  A:00 X:FF Y:00 P:26 SP:FF CYC: 51 SL:96
C7AB  29 80     AND #$80                        A:10 X:FF Y:00 P:24 SP:FF CYC: 63 SL:96
C7AD  F0 F9     BEQ $C7A8                       A:00 X:FF Y:00 P:26 SP:FF CYC: 69 SL:96
C7A8  AD 02 20  LDA $2002 = FF                  A:00 X:FF Y:00 P:26 SP:FF CYC: 78 SL:96
C7AB  29 80     AND #$80                        A:10 X:FF Y:00 P:24 SP:FF CYC: 90 SL:96
C7AD  F0 F9     BEQ $C7A8                       A:00 X:FF Y:00 P:26 SP:FF CYC: 96 SL:96
C7A8  AD 02 20  LDA $2002 = FF                  A:00 X:FF Y:00 P:26 SP:FF CYC:105 SL:96
C7AB  29 80     AND #$80                        A:10 X:FF Y:00 P:24 SP:FF CYC:117 SL:96
C7AD  F0 F9     BEQ $C7A8                       A:00 X:FF Y:00 P:26 SP:FF CYC:123 SL:96
C7A8  AD 02 20  LDA $2002 = FF                  A:00 X:FF Y:00 P:26 SP:FF CYC:132 SL:96
C7AB  29 80     AND #$80                        A:10 X:FF Y:00 P:24 SP:FF CYC:144 SL:96
C7AD  F0 F9     BEQ $C7A8                       A:00 X:FF Y:00 P:26 SP:FF CYC:150 SL:96
C7A8  AD 02 20  LDA $2002 = FF                  A:00 X:FF Y:00 P:26 SP:FF CYC:159 SL:96
C7AB  29 80     AND #$80                        A:10 X:FF Y:00 P:24 SP:FF CYC:171 SL:96
C7AD  F0 F9     BEQ $C7A8                       A:00 X:FF Y:00 P:26 SP:FF CYC:177 SL:96
C7A8  AD 02 20  LDA $2002 = FF                  A:00 X:FF Y:00 P:26 SP:FF CYC:186 SL:96
C7AB  29 80     AND #$80                        A:10 X:FF Y:00 P:24 SP:FF CYC:198 SL:96
C7AD  F0 F9     BEQ $C7A8                       A:00 X:FF Y:00 P:26 SP:FF CYC:204 SL:96
C7A8  AD 02 20  LDA $2002 = FF                  A:00 X:FF Y:00 P:26 SP:FF CYC:213 SL:96
C7AB  29 80     AND #$80                        A:10 X:FF Y:00 P:24 SP:FF CYC:225 SL:96
C7AD  F0 F9     BEQ $C7A8                       A:00 X:FF Y:00 P:26 SP:FF CYC:231 SL:96
C7A8  AD 02 20  LDA $2002 = FF                  A:00 X:FF Y:00 P:26 SP:FF CYC:240 SL:96
C7AB  29 80     AND #$80                        A:10 X:FF Y:00 P:24 SP:FF CYC:252 SL:96
C7AD  F0 F9     BEQ $C7A8                       A:00 X:FF Y:00 P:26 SP:FF CYC:258 SL:96
C7A8  AD 02 20  LDA $2002 = FF                  A:00 X:FF Y:00 P:26 SP:FF CYC:267 SL:96
C7AB  29 80     AND #$80                        A:10 X:FF Y:00 P:24 SP:FF CYC:279 SL:96
C7AD  F0 F9     BEQ $C7A8                       A:00 X:FF Y:00 P:26 SP:FF CYC:285 SL:96
C7A8  AD 02 20  LDA $2002 = FF                  A:00 X:FF Y:00 P:26 SP:FF CYC:294 SL:96
C7AB  29 80     AND #$80                        A:10 X:FF Y:00 P:24 SP:FF CYC:306 SL:96
C7AD  F0 F9     BEQ $C7A8                       A:00 X:FF Y:00 P:26 SP:FF CYC:312 SL:96
C7A8  AD 02 20  LDA $2002 = FF                  A:00 X:FF Y:00 P:26 SP:FF CYC:321 SL:96
C7AB  29 80     AND #$80                        A:10 X:FF Y:00 P:24 SP:FF CYC:333 SL:96
C7AD  F0 F9     BEQ $C7A8                       A:00 X:FF Y:00 P:26 SP:FF CYC:339 SL:96
C7A8  AD 02 20  LDA $2002 = FF                  A:00 X:FF Y:00 P:26 SP:FF CYC:  7 SL:97
C7AB  29 80     AND #$80                        A:10 X:FF Y:00 P:24 SP:FF CYC: 19 SL:97
C7AD  F0 F9     BEQ $C7A8                       A:00 X:FF Y:00 P:26 SP:FF CYC: 25 SL:97
C7A8  AD 02 20  LDA $2002 = FF                  A:00 X:FF Y:00 P:26 SP:FF CYC: 34 SL:97
C7AB  29 80     AND #$80                        A:10 X:FF Y:00 P:24 SP:FF CYC: 46 SL:97
C7AD  F0 F9     BEQ $C7A8                       A:00 X:FF Y:00 P:26 SP:FF CYC: 52 SL:97
C7A8  AD 02 20  LDA $2002 = FF                  A:00 X:FF Y:00 P:26 SP:FF CYC: 61 SL:97
C7AB  29 80     AND #$80                        A:10 X:FF Y:00 P:24 SP:FF CYC: 73 SL:97
C7AD  F0 F9     BEQ $C7A8                       A:00 X:FF Y:00 P:26 SP:FF CYC: 79 SL:97
C7A8  AD 02 20  LDA $2002 = FF                  A:00 X:FF Y:00 P:26 SP:FF CYC: 88 SL:97
C7AB  29 80     AND #$80                        A:10 X:FF Y:00 P:24 SP:FF CYC:100 SL:97
C7AD  F0 F9     BEQ $C7A8                       A:00 X:FF Y:00 P:26 SP:FF CYC:106 SL:97
C7A8  AD 02 20  LDA $2002 = FF                  A:00 X:FF Y:00 P:26 SP:FF CYC:115 SL:97
C7AB  29 80     AND #$80                        A:10 X:FF Y:00 P:24 SP:FF CYC:127 SL:97
C7AD  F0 F9     BEQ $C7A8                       A:00 X:FF Y:00 P:26 SP:FF CYC:133 SL:97
C7A8  AD 02 20  LDA $2002 = FF                  A:00 X:FF Y:00 P:26 SP:FF CYC:142 SL:97
C7AB  29 80     AND #$80                        A:10 X:FF Y:00 P:24 SP:FF CYC:154 SL:97
C7AD  F0 F9     BEQ $C7A8                       A:00 X:FF Y:00 P:26 SP:FF CYC:160 SL:97
C7A8  AD 02 20  LDA $2002 = FF                  A:00 X:FF Y:00 P:26 SP:FF CYC:169 SL:97
C7AB  29 80     AND #$80                        A:10 X:FF Y:00 P:24 SP:FF CYC:181 SL:97
C7AD  F0 F9     BEQ $C7A8                       A:00 X:FF Y:00 P:26 SP:FF CYC:187 SL:97
C7A8  AD 02 20  LDA $2002 = FF                  A:00 X:FF Y:00 P:26 SP:FF CYC:196 SL:97
C7AB  29 80     AND #$80                        A:10 X:FF Y:00 P:24 SP:FF CYC:208 SL:97
C7AD  F0 F9     BEQ $C7A8                       A:00 X:FF Y:00 P:26 SP:FF CYC:214 SL:97
C7A8  AD 02 20  LDA $2002 = FF                  A:00 X:FF Y:00 P:26 SP:FF CYC:223 SL:97
C7AB  29 80     AND #$80                        A:10 X:FF Y:00 P:24 SP:FF CYC:235 SL:97
C7AD  F0 F9     BEQ $C7A8                       A:00 X:FF Y:00 P:26 SP:FF CYC:241 SL:97
C7A8  AD 02 20  LDA $2002 = FF                  A:00 X:FF Y:00 P:26 SP:FF CYC:250 SL:97
C7AB  29 80     AND #$80                        A:10 X:FF Y:00 P:24 SP:FF CYC:262 SL:97
C7AD  F0 F9     BEQ $C7A8                       A:00 X:FF Y:00 P:26 SP:FF CYC:268 SL:97
C7A8  AD 02 20  LDA $2002 = FF                  A:00 X:FF Y:00 P:26 SP:FF CYC:277 SL:97
C7AB  29 80     AND #$80                        A:10 X:FF Y:00 P:24 SP:FF CYC:289 SL:97
C7AD  F0 F9     BEQ $C7A8                       A:00 X:FF Y:00 P:26 SP:FF CYC:295 SL:97
C7A8  AD 02 20  LDA $2002 = FF                  A:00 X:FF Y:00 P:26 SP:FF CYC:304 SL:97
C7AB  29 80     AND #$80                        A:10 X:FF Y:00 P:24 SP:FF CYC:316 SL:97
C7AD  F0 F9     BEQ $C7A8                       A:00 X:FF Y:00 P:26 SP:FF CYC:322 SL:97
C7A8  AD 02 20  LDA $2002 = FF                  A:00 X:FF Y:00 P:26 SP:FF CYC:331 SL:97
C7AB  29 80     AND #$80                        A:10 X:FF Y:00 P:24 SP:FF CYC:  2 SL:98
C7AD  F0 F9     BEQ $C7A8                       A:00 X:FF Y:00 P:26 SP:FF CYC:  8 SL:98
C7A8  AD 02 20  LDA $2002 = FF                  A:00 X:FF Y:00 P:26 SP:FF CYC: 17 SL:98
C7AB  29 80     AND #$80                        A:10 X:FF Y:00 P:24 SP:FF CYC: 29 SL:98
C7AD  F0 F9     BEQ $C7A8                       A:00 X:FF Y:00 P:26 SP:FF CYC: 35 SL:98
C7A8  AD 02 20  LDA $2002 = FF                  A:00 X:FF Y:00 P:26 SP:FF CYC: 44 SL:98
C7AB  29 80     AND #$80                        A:10 X:FF Y:00 P:24 SP:FF CYC: 56 SL:98
C7AD  F0 F9     BEQ $C7A8                       A:00 X:FF Y:00 P:26 SP:FF CYC: 62 SL:98
C7A8  AD 02 20  LDA $2002 = FF                  A:00 X:FF Y:00 P:26 SP:FF CYC: 71 SL:98
C7AB  29 80     AND #$80                        A:10 X:FF Y:00 P:24 SP:FF CYC: 83 SL:98
C7AD  F0 F9     BEQ $C7A8                       A:00 X:FF Y:00 P:26 SP:FF CYC: 89 SL:98
C7A8  AD 02 20  LDA $2002 = FF                  A:00 X:FF Y:00 P:26 SP:FF CYC: 98 SL:98
C7AB  29 80     AND #$80                        A:10 X:FF Y:00 P:24 SP:FF CYC:110 SL:98
C7AD  F0 F9     BEQ $C7A8                       A:00 X:FF Y:00 P:26 SP:FF CYC:116 SL:98
C7A8  AD 02 20  LDA $2002 = FF                  A:00 X:FF Y:00 P:26 SP:FF CYC:125 SL:98
C7AB  29 80     AND #$80                        A:10 X:FF Y:00 P:24 SP:FF CYC:137 SL:98
C7AD  F0 F9     BEQ $C7A8                       A:00 X:FF Y:00 P:26 SP:FF CYC:143 SL:98
C7A8  AD 02 20  LDA $2002 = FF                  A:00 X:FF Y:00 P:26 SP:FF CYC:152 SL:98
C7AB  29 80     AND #$80                        A:10 X:FF Y:00 P:24 SP:FF CYC:164 SL:98
C7AD  F0 F9     BEQ $C7A8                       A:00 X:FF Y:00 P:26 SP:FF CYC:170 SL:98
C7A8  AD 02 20  LDA $2002 = FF                  A:00 X:FF Y:00 P:26 SP:FF CYC:179 SL:98
C7AB  29 80     AND #$80                        A:10 X:FF Y:00 P:24 SP:FF CYC:191 SL:98
C7AD  F0 F9     BEQ $C7A8                       A:00 X:FF Y:00 P:26 SP:FF CYC:197 SL:98
C7A8  AD 02 20  LDA $2002 = FF                  A:00 X:FF Y:00 P:26 SP:FF CYC:206 SL:98
C7AB  29 80     AND #$80                        A:10 X:FF Y:00 P:24 SP:FF CYC:218 SL:98
C7AD  F0 F9     BEQ $C7A8                       A:00 X:FF Y:00 P:26 SP:FF CYC:224 SL:98
C7A8  AD 02 20  LDA $2002 = FF                  A:00 X:FF Y:00 P:26 SP:FF CYC:233 SL:98
C7AB  29 80     AND #$80                        A:10 X:FF Y:00 P:24 SP:FF CYC:245 SL:98
C7AD  F0 F9     BEQ $C7A8                       A:00 X:FF Y:00 P:26 SP:FF CYC:251 SL:98
C7A8  AD 02 20  LDA $2002 = FF                  A:00 X:FF Y:00 P:26 SP:FF CYC:260 SL:98
C7AB  29 80     AND #$80                        A:10 X:FF Y:00 P:24 SP:FF CYC:272 SL:98
C7AD  F0 F9     BEQ $C7A8                       A:00 X:FF Y:00 P:26 SP:FF CYC:278 SL:98
C7A8  AD 02 20  LDA $2002 = FF                  A:00 X:FF Y:00 P:26 SP:FF CYC:287 SL:98
C7AB  29 80     AND #$80                        A:10 X:FF Y:00 P:24 SP:FF CYC:299 SL:98
C7AD  F0 F9     BEQ $C7A8                       A:00 X:FF Y:00 P:26 SP:FF CYC:305 SL:98
C7A8  AD 02 20  LDA $2002 = FF                  A:00 X:FF Y:00 P:26 SP:FF CYC:314 SL:98
C7AB  29 80     AND #$80                        A:10 X:FF Y:00 P:24 SP:FF CYC:326 SL:98
C7AD  F0 F9     BEQ $C7A8                       A:00 X:FF Y:00 P:26 SP:FF CYC:332 SL:98
C7A8  AD 02 20  LDA $2002 = FF                  A:00 X:FF Y:00 P:26 SP:FF CYC:  0 SL:99
C7AB  29 80     AND #$80                        A:10 X:FF Y:00 P:24 SP:FF CYC: 12 SL:99
C7AD  F0 F9     BEQ $C7A8                       A:00 X:FF Y:00 P:26 SP:FF CYC: 18 SL:99
C7A8  AD 02 20  LDA $2002 = FF                  A:00 X:FF Y:00 P:26 SP:FF CYC: 27 SL:99
C7AB  29 80     AND #$80                        A:10 X:FF Y:00 P:24 SP:FF CYC: 39 SL:99
C7AD  F0 F9     BEQ $C7A8                       A:00 X:FF Y:00 P:26 SP:FF CYC: 45 SL:99
C7A8  AD 02 20  LDA $2002 = FF                  A:00 X:FF Y:00 P:26 SP:FF CYC: 54 SL:99
C7AB  29 80     AND #$80                        A:10 X:FF Y:00 P:24 SP:FF CYC: 66 SL:99
C7AD  F0 F9     BEQ $C7A8                       A:00 X:FF Y:00 P:26 SP:FF CYC: 72 SL:99
C7A8  AD 02 20  LDA $2002 = FF                  A:00 X:FF Y:00 P:26 SP:FF CYC: 81 SL:99
C7AB  29 80     AND #$80                        A:10 X:FF Y:00 P:24 SP:FF CYC: 93 SL:99
C7AD  F0 F9     BEQ $C7A8                       A:00 X:FF Y:00 P:26 SP:FF CYC: 99 SL:99
C7A8  AD 02 20  LDA $2002 = FF                  A:00 X:FF Y:00 P:26 SP:FF CYC:108 SL:99
C7AB  29 80     AND #$80                        A:10 X:FF Y:00 P:24 SP:FF CYC:120 SL:99
C7AD  F0 F9     BEQ $C7A8                       A:00 X:FF Y:00 P:26 SP:FF CYC:126 SL:99
C7A8  AD 02 20  LDA $2002 = FF                  A:00 X:FF Y:00 P:26 SP:FF CYC:135 SL:99
C7AB  29 80     AND #$80                        A:10 X:FF Y:00 P:24 SP:FF CYC:147 SL:99
C7AD  F0 F9     BEQ $C7A8                       A:00 X:FF Y:00 P:26 SP:FF CYC:153 SL:99
C7A8  AD 02 20  LDA $2002 = FF                  A:00 X:FF Y:00 P:26 SP:FF CYC:162 SL:99
C7AB  29 80     AND #$80                        A:10 X:FF Y:00 P:24 SP:FF CYC:174 SL:99
C7AD  F0 F9     BEQ $C7A8                       A:00 X:FF Y:00 P:26 SP:FF CYC:180 SL:99
C7A8  AD 02 20  LDA $2002 = FF                  A:00 X:FF Y:00 P:26 SP:FF CYC:189 SL:99
C7AB  29 80     AND #$80                        A:10 X:FF Y:00 P:24 SP:FF CYC:201 SL:99
C7AD  F0 F9     BEQ $C7A8                       A:00 X:FF Y:00 P:26 SP:FF CYC:207 SL:99
C7A8  AD 02 20  LDA $2002 = FF                  A:00 X:FF Y:00 P:26 SP:FF CYC:216 SL:99
C7AB  29 80     AND #$80                        A:10 X:FF Y:00 P:24 SP:FF CYC:228 SL:99
C7AD  F0 F9     BEQ $C7A8                       A:00 X:FF Y:00 P:26 SP:FF CYC:234 SL:99
C7A8  AD 02 20  LDA $2002 = FF                  A:00 X:FF Y:00 P:26 SP:FF CYC:243 SL:99
C7AB  29 80     AND #$80                        A:10 X:FF Y:00 P:24 SP:FF CYC:255 SL:99
C7AD  F0 F9     BEQ $C7A8                       A:00 X:FF Y:00 P:26 SP:FF CYC:261 SL:99
C7A8  AD 02 20  LDA $2002 = FF                  A:00 X:FF Y:00 P:26 SP:FF CYC:270 SL:99
C7AB  29 80     AND #$80                        A:10 X:FF Y:00 P:24 SP:FF CYC:282 SL:99
C7AD  F0 F9     BEQ $C7A8                       A:00 X:FF Y:00 P:26 SP:FF CYC:288 SL:99
C7A8  AD 02 20  LDA $2002 = FF                  A:00 X:FF Y:00 P:26 SP:FF CYC:297 SL:99
C7AB  29 80     AND #$80                        A:10 X:FF Y:00 P:24 SP:FF CYC:309 SL:99
C7AD  F0 F9     BEQ $C7A8                       A:00 X:FF Y:00 P:26 SP:FF CYC:315 SL:99
C7A8  AD 02 20  LDA $2002 = FF                  A:00 X:FF Y:00 P:26 SP:FF CYC:324 SL:99
C7AB  29 80     AND #$80                        A:10 X:FF Y:00 P:24 SP:FF CYC:336 SL:99
C7AD  F0 F9     BEQ $C7A8                       A:00 X:FF Y:00 P:26 SP:FF CYC:  1 SL:100
C7A8  AD 02 20  LDA $2002 = FF                  A:00 X:FF Y:00 P:26 SP:FF CYC: 10 SL:100
C7AB  29 80     AND #$80                        A:10 X:FF Y:00 P:24 SP:FF CYC: 22 SL:100
C7AD  F0 F9     BEQ $C7A8                       A:00 X:FF Y:00 P:26 SP:FF CYC: 28 SL:100
C7A8  AD 02 20  LDA $2002 = FF                  A:00 X:FF Y:00 P:26 SP:FF CYC: 37 SL:100
C7AB  29 80     AND #$80                        A:10 X:FF Y:00 P:24 SP:FF CYC: 49 SL:100
C7AD  F0 F9     BEQ $C7A8                       A:00 X:FF Y:00 P:26 SP:FF CYC: 55 SL:100
C7A8  AD 02 20  LDA $2002 = FF                  A:00 X:FF Y:00 P:26 SP:FF CYC: 64 SL:100
C7AB  29 80     AND #$80                        A:10 X:FF Y:00 P:24 SP:FF CYC: 76 SL:100
C7AD  F0 F9     BEQ $C7A8                       A:00 X:FF Y:00 P:26 SP:FF CYC: 82 SL:100
C7A8  AD 02 20  LDA $2002 = FF                  A:00 X:FF Y:00 P:26 SP:FF CYC: 91 SL:100
C7AB  29 80     AND #$80                        A:10 X:FF Y:00 P:24 SP:FF CYC:103 SL:100
C7AD  F0 F9     BEQ $C7A8                       A:00 X:FF Y:00 P:26 SP:FF CYC:109 SL:100
C7A8  AD 02 20  LDA $2002 = FF                  A:00 X:FF Y:00 P:26 SP:FF CYC:118 SL:100
C7AB  29 80     AND #$80                        A:10 X:FF Y:00 P:24 SP:FF CYC:130 SL:100
C7AD  F0 F9     BEQ $C7A8                       A:00 X:FF Y:00 P:26 SP:FF CYC:136 SL:100
C7A8  AD 02 20  LDA $2002 = FF                  A:00 X:FF Y:00 P:26 SP:FF CYC:145 SL:100
C7AB  29 80     AND #$80                        A:10 X:FF Y:00 P:24 SP:FF CYC:157 SL:100
C7AD  F0 F9     BEQ $C7A8                       A:00 X:FF Y:00 P:26 SP:FF CYC:163 SL:100
C7A8  AD 02 20  LDA $2002 = FF                  A:00 X:FF Y:00 P:26 SP:FF CYC:172 SL:100
C7AB  29 80     AND #$80                        A:10 X:FF Y:00 P:24 SP:FF CYC:184 SL:100
C7AD  F0 F9     BEQ $C7A8                       A:00 X:FF Y:00 P:26 SP:FF CYC:190 SL:100
C7A8  AD 02 20  LDA $2002 = FF                  A:00 X:FF Y:00 P:26 SP:FF CYC:199 SL:100
C7AB  29 80     AND #$80                        A:10 X:FF Y:00 P:24 SP:FF CYC:211 SL:100
C7AD  F0 F9     BEQ $C7A8                       A:00 X:FF Y:00 P:26 SP:FF CYC:217 SL:100
C7A8  AD 02 20  LDA $2002 = FF                  A:00 X:FF Y:00 P:26 SP:FF CYC:226 SL:100
C7AB  29 80     AND #$80                        A:10 X:FF Y:00 P:24 SP:FF CYC:238 SL:100
C7AD  F0 F9     BEQ $C7A8                       A:00 X:FF Y:00 P:26 SP:FF CYC:244 SL:100
C7A8  AD 02 20  LDA $2002 = FF                  A:00 X:FF Y:00 P:26 SP:FF CYC:253 SL:100
C7AB  29 80     AND #$80                        A:10 X:FF Y:00 P:24 SP:FF CYC:265 SL:100
C7AD  F0 F9     BEQ $C7A8                       A:00 X:FF Y:00 P:26 SP:FF CYC:271 SL:100
C7A8  AD 02 20  LDA $2002 = FF                  A:00 X:FF Y:00 P:26 SP:FF CYC:280 SL:100
C7AB  29 80     AND #$80                        A:10 X:FF Y:00 P:24 SP:FF CYC:292 SL:100
C7AD  F0 F9     BEQ $C7A8                       A:00 X:FF Y:00 P:26 SP:FF CYC:298 SL:100
C7A8  AD 02 20  LDA $2002 = FF                  A:00 X:FF Y:00 P:26 SP:FF CYC:307 SL:100
C7AB  29 80     AND #$80                        A:10 X:FF Y:00 P:24 SP:FF CYC:319 SL:100
C7AD  F0 F9     BEQ $C7A8                       A:00 X:FF Y:00 P:26 SP:FF CYC:325 SL:100
C7A8  AD 02 20  LDA $2002 = FF                  A:00 X:FF Y:00 P:26 SP:FF CYC:334 SL:100
C7AB  29 80     AND #$80                        A:10 X:FF Y:00 P:24 SP:FF CYC:  5 SL:101
C7AD  F0 F9     BEQ $C7A8                       A:00 X:FF Y:00 P:26 SP:FF CYC: 11 SL:101
C7A8  AD 02 20  LDA $2002 = FF                  A:00 X:FF Y:00 P:26 SP:FF CYC: 20 SL:101
C7AB  29 80     AND #$80                        A:10 X:FF Y:00 P:24 SP:FF CYC: 32 SL:101
C7AD  F0 F9     BEQ $C7A8                       A:00 X:FF Y:00 P:26 SP:FF CYC: 38 SL:101
C7A8  AD 02 20  LDA $2002 = FF                  A:00 X:FF Y:00 P:26 SP:FF CYC: 47 SL:101
C7AB  29 80     AND #$80                        A:10 X:FF Y:00 P:24 SP:FF CYC: 59 SL:101
C7AD  F0 F9     BEQ $C7A8                       A:00 X:FF Y:00 P:26 SP:FF CYC: 65 SL:101
C7A8  AD 02 20  LDA $2002 = FF                  A:00 X:FF Y:00 P:26 SP:FF CYC: 74 SL:101
C7AB  29 80     AND #$80                        A:10 X:FF Y:00 P:24 SP:FF CYC: 86 SL:101
C7AD  F0 F9     BEQ $C7A8                       A:00 X:FF Y:00 P:26 SP:FF CYC: 92 SL:101
C7A8  AD 02 20  LDA $2002 = FF                  A:00 X:FF Y:00 P:26 SP:FF CYC:101 SL:101
C7AB  29 80     AND #$80                        A:10 X:FF Y:00 P:24 SP:FF CYC:113 SL:101
C7AD  F0 F9     BEQ $C7A8                       A:00 X:FF Y:00 P:26 SP:FF CYC:119 SL:101
C7A8  AD 02 20  LDA $2002 = FF                  A:00 X:FF Y:00 P:26 SP:FF CYC:128 SL:101
C7AB  29 80     AND #$80                        A:10 X:FF Y:00 P:24 SP:FF CYC:140 SL:101
C7AD  F0 F9     BEQ $C7A8                       A:00 X:FF Y:00 P:26 SP:FF CYC:146 SL:101
C7A8  AD 02 20  LDA $2002 = FF                  A:00 X:FF Y:00 P:26 SP:FF CYC:155 SL:101
C7AB  29 80     AND #$80                        A:10 X:FF Y:00 P:24 SP:FF CYC:167 SL:101
C7AD  F0 F9     BEQ $C7A8                       A:00 X:FF Y:00 P:26 SP:FF CYC:173 SL:101
C7A8  AD 02 20  LDA $2002 = FF                  A:00 X:FF Y:00 P:26 SP:FF CYC:182 SL:101
C7AB  29 80     AND #$80                        A:10 X:FF Y:00 P:24 SP:FF CYC:194 SL:101
C7AD  F0 F9     BEQ $C7A8                       A:00 X:FF Y:00 P:26 SP:FF CYC:200 SL:101
C7A8  AD 02 20  LDA $2002 = FF                  A:00 X:FF Y:00 P:26 SP:FF CYC:209 SL:101
C7AB  29 80     AND #$80                        A:10 X:FF Y:00 P:24 SP:FF CYC:221 SL:101
C7AD  F0 F9     BEQ $C7A8                       A:00 X:FF Y:00 P:26 SP:FF CYC:227 SL:101
C7A8  AD 02 20  LDA $2002 = FF                  A:00 X:FF Y:00 P:26 SP:FF CYC:236 SL:101
C7AB  29 80     AND #$80                        A:10 X:FF Y:00 P:24 SP:FF CYC:248 SL:101
C7AD  F0 F9     BEQ $C7A8                       A:00 X:FF Y:00 P:26 SP:FF CYC:254 SL:101
C7A8  AD 02 20  LDA $2002 = FF                  A:00 X:FF Y:00 P:26 SP:FF CYC:263 SL:101
C7AB  29 80     AND #$80                        A:10 X:FF Y:00 P:24 SP:FF CYC:275 SL:101
C7AD  F0 F9     BEQ $C7A8                       A:00 X:FF Y:00 P:26 SP:FF CYC:281 SL:101
C7A8  AD 02 20  LDA $2002 = FF                  A:00 X:FF Y:00 P:26 SP:FF CYC:290 SL:101
C7AB  29 80     AND #$80                        A:10 X:FF Y:00 P:24 SP:FF CYC:302 SL:101
C7AD  F0 F9     BEQ $C7A8                       A:00 X:FF Y:00 P:26 SP:FF CYC:308 SL:101
C7A8  AD 02 20  LDA $2002 = FF                  A:00 X:FF Y:00 P:26 SP:FF CYC:317 SL:101
C7AB  29 80     AND #$80                        A:10 X:FF Y:00 P:24 SP:FF CYC:329 SL:101
C7AD  F0 F9     BEQ $C7A8                       A:00 X:FF Y:00 P:26 SP:FF CYC:335 SL:101
C7A8  AD 02 20  LDA $2002 = FF                  A:00 X:FF Y:00 P:26 SP:FF CYC:  3 SL:102
C7AB  29 80     AND #$80                        A:10 X:FF Y:00 P:24 SP:FF CYC: 15 SL:102
C7AD  F0 F9     BEQ $C7A8                       A:00 X:FF Y:00 P:26 SP:FF CYC: 21 SL:102
C7A8  AD 02 20  LDA $2002 = FF                  A:00 X:FF Y:00 P:26 SP:FF CYC: 30 SL:102
C7AB  29 80     AND #$80                        A:10 X:FF Y:00 P:24 SP:FF CYC: 42 SL:102
C7AD  F0 F9     BEQ $C7A8                       A:00 X:FF Y:00 P:26 SP:FF CYC: 48 SL:102
C7A8  AD 02 20  LDA $2002 = FF                  A:00 X:FF Y:00 P:26 SP:FF CYC: 57 SL:102
C7AB  29 80     AND #$80                        A:10 X:FF Y:00 P:24 SP:FF CYC: 69 SL:102
C7AD  F0 F9     BEQ $C7A8                       A:00 X:FF Y:00 P:26 SP:FF CYC: 75 SL:102
C7A8  AD 02 20  LDA $2002 = FF                  A:00 X:FF Y:00 P:26 SP:FF CYC: 84 SL:102
C7AB  29 80     AND #$80                        A:10 X:FF Y:00 P:24 SP:FF CYC: 96 SL:102
C7AD  F0 F9     BEQ $C7A8                       A:00 X:FF Y:00 P:26 SP:FF CYC:102 SL:102
C7A8  AD 02 20  LDA $2002 = FF                  A:00 X:FF Y:00 P:26 SP:FF CYC:111 SL:102
C7AB  29 80     AND #$80                        A:10 X:FF Y:00 P:24 SP:FF CYC:123 SL:102
C7AD  F0 F9     BEQ $C7A8                       A:00 X:FF Y:00 P:26 SP:FF CYC:129 SL:102
C7A8  AD 02 20  LDA $2002 = FF                  A:00 X:FF Y:00 P:26 SP:FF CYC:138 SL:102
C7AB  29 80     AND #$80                        A:10 X:FF Y:00 P:24 SP:FF CYC:150 SL:102
C7AD  F0 F9     BEQ $C7A8                       A:00 X:FF Y:00 P:26 SP:FF CYC:156 SL:102
C7A8  AD 02 20  LDA $2002 = FF                  A:00 X:FF Y:00 P:26 SP:FF CYC:165 SL:102
C7AB  29 80     AND #$80                        A:10 X:FF Y:00 P:24 SP:FF CYC:177 SL:102
C7AD  F0 F9     BEQ $C7A8                       A:00 X:FF Y:00 P:26 SP:FF CYC:183 SL:102
C7A8  AD 02 20  LDA $2002 = FF                  A:00 X:FF Y:00 P:26 SP:FF CYC:192 SL:102
C7AB  29 80     AND #$80                        A:10 X:FF Y:00 P:24 SP:FF CYC:204 SL:102
C7AD  F0 F9     BEQ $C7A8                       A:00 X:FF Y:00 P:26 SP:FF CYC:210 SL:102
C7A8  AD 02 20  LDA $2002 = FF                  A:00 X:FF Y:00 P:26 SP:FF CYC:219 SL:102
C7AB  29 80     AND #$80                        A:10 X:FF Y:00 P:24 SP:FF CYC:231 SL:102
C7AD  F0 F9     BEQ $C7A8                       A:00 X:FF Y:00 P:26 SP:FF CYC:237 SL:102
C7A8  AD 02 20  LDA $2002 = FF                  A:00 X:FF Y:00 P:26 SP:FF CYC:246 SL:102
C7AB  29 80     AND #$80                        A:10 X:FF Y:00 P:24 SP:FF CYC:258 SL:102
C7AD  F0 F9     BEQ $C7A8                       A:00 X:FF Y:00 P:26 SP:FF CYC:264 SL:102
C7A8  AD 02 20  LDA $2002 = FF                  A:00 X:FF Y:00 P:26 SP:FF CYC:273 SL:102
C7AB  29 80     AND #$80                        A:10 X:FF Y:00 P:24 SP:FF CYC:285 SL:102
C7AD  F0 F9     BEQ $C7A8                       A:00 X:FF Y:00 P:26 SP:FF CYC:291 SL:102
C7A8  AD 02 20  LDA $2002 = FF                  A:00 X:FF Y:00 P:26 SP:FF CYC:300 SL:102
C7AB  29 80     AND #$80                        A:10 X:FF Y:00 P:24 SP:FF CYC:312 SL:102
C7AD  F0 F9     BEQ $C7A8                       A:00 X:FF Y:00 P:26 SP:FF CYC:318 SL:102
C7A8  AD 02 20  LDA $2002 = FF                  A:00 X:FF Y:00 P:26 SP:FF CYC:327 SL:102
C7AB  29 80     AND #$80                        A:10 X:FF Y:00 P:24 SP:FF CYC:339 SL:102
C7AD  F0 F9     BEQ $C7A8                       A:00 X:FF Y:00 P:26 SP:FF CYC:  4 SL:103
C7A8  AD 02 20  LDA $2002 = FF                  A:00 X:FF Y:00 P:26 SP:FF CYC: 13 SL:103
C7AB  29 80     AND #$80                        A:10 X:FF Y:00 P:24 SP:FF CYC: 25 SL:103
C7AD  F0 F9     BEQ $C7A8                       A:00 X:FF Y:00 P:26 SP:FF CYC: 31 SL:103
C7A8  AD 02 20  LDA $2002 = FF                  A:00 X:FF Y:00 P:26 SP:FF CYC: 40 SL:103
C7AB  29 80     AND #$80                        A:10 X:FF Y:00 P:24 SP:FF CYC: 52 SL:103
C7AD  F0 F9     BEQ $C7A8                       A:00 X:FF Y:00 P:26 SP:FF CYC: 58 SL:103
C7A8  AD 02 20  LDA $2002 = FF                  A:00 X:FF Y:00 P:26 SP:FF CYC: 67 SL:103
C7AB  29 80     AND #$80                        A:10 X:FF Y:00 P:24 SP:FF CYC: 79 SL:103
C7AD  F0 F9     BEQ $C7A8                       A:00 X:FF Y:00 P:26 SP:FF CYC: 85 SL:103
C7A8  AD 02 20  LDA $2002 = FF                  A:00 X:FF Y:00 P:26 SP:FF CYC: 94 SL:103
C7AB  29 80     AND #$80                        A:10 X:FF Y:00 P:24 SP:FF CYC:106 SL:103
C7AD  F0 F9     BEQ $C7A8                       A:00 X:FF Y:00 P:26 SP:FF CYC:112 SL:103
C7A8  AD 02 20  LDA $2002 = FF                  A:00 X:FF Y:00 P:26 SP:FF CYC:121 SL:103
C7AB  29 80     AND #$80                        A:10 X:FF Y:00 P:24 SP:FF CYC:133 SL:103
C7AD  F0 F9     BEQ $C7A8                       A:00 X:FF Y:00 P:26 SP:FF CYC:139 SL:103
C7A8  AD 02 20  LDA $2002 = FF                  A:00 X:FF Y:00 P:26 SP:FF CYC:148 SL:103
C7AB  29 80     AND #$80                        A:10 X:FF Y:00 P:24 SP:FF CYC:160 SL:103
C7AD  F0 F9     BEQ $C7A8                       A:00 X:FF Y:00 P:26 SP:FF CYC:166 SL:103
C7A8  AD 02 20  LDA $2002 = FF                  A:00 X:FF Y:00 P:26 SP:FF CYC:175 SL:103
C7AB  29 80     AND #$80                        A:10 X:FF Y:00 P:24 SP:FF CYC:187 SL:103
C7AD  F0 F9     BEQ $C7A8                       A:00 X:FF Y:00 P:26 SP:FF CYC:193 SL:103
C7A8  AD 02 20  LDA $2002 = FF                  A:00 X:FF Y:00 P:26 SP:FF CYC:202 SL:103
C7AB  29 80     AND #$80                        A:10 X:FF Y:00 P:24 SP:FF CYC:214 SL:103
C7AD  F0 F9     BEQ $C7A8                       A:00 X:FF Y:00 P:26 SP:FF CYC:220 SL:103
C7A8  AD 02 20  LDA $2002 = FF                  A:00 X:FF Y:00 P:26 SP:FF CYC:229 SL:103
C7AB  29 80     AND #$80                        A:10 X:FF Y:00 P:24 SP:FF CYC:241 SL:103
C7AD  F0 F9     BEQ $C7A8                       A:00 X:FF Y:00 P:26 SP:FF CYC:247 SL:103
C7A8  AD 02 20  LDA $2002 = FF                  A:00 X:FF Y:00 P:26 SP:FF CYC:256 SL:103
C7AB  29 80     AND #$80                        A:10 X:FF Y:00 P:24 SP:FF CYC:268 SL:103
C7AD  F0 F9     BEQ $C7A8                       A:00 X:FF Y:00 P:26 SP:FF CYC:274 SL:103
C7A8  AD 02 20  LDA $2002 = FF                  A:00 X:FF Y:00 P:26 SP:FF CYC:283 SL:103
C7AB  29 80     AND #$80                        A:10 X:FF Y:00 P:24 SP:FF CYC:295 SL:103
C7AD  F0 F9     BEQ $C7A8                       A:00 X:FF Y:00 P:26 SP:FF CYC:301 SL:103
C7A8  AD 02 20  LDA $2002 = FF                  A:00 X:FF Y:00 P:26 SP:FF CYC:310 SL:103
C7AB  29 80     AND #$80                        A:10 X:FF Y:00 P:24 SP:FF CYC:322 SL:103
C7AD  F0 F9     BEQ $C7A8                       A:00 X:FF Y:00 P:26 SP:FF CYC:328 SL:103
C7A8  AD 02 20  LDA $2002 = FF                  A:00 X:FF Y:00 P:26 SP:FF CYC:337 SL:103
C7AB  29 80     AND #$80                        A:10 X:FF Y:00 P:24 SP:FF CYC:  8 SL:104
C7AD  F0 F9     BEQ $C7A8                       A:00 X:FF Y:00 P:26 SP:FF CYC: 14 SL:104
C7A8  AD 02 20  LDA $2002 = FF                  A:00 X:FF Y:00 P:26 SP:FF CYC: 23 SL:104
C7AB  29 80     AND #$80                        A:10 X:FF Y:00 P:24 SP:FF CYC: 35 SL:104
C7AD  F0 F9     BEQ $C7A8                       A:00 X:FF Y:00 P:26 SP:FF CYC: 41 SL:104
C7A8  AD 02 20  LDA $2002 = FF                  A:00 X:FF Y:00 P:26 SP:FF CYC: 50 SL:104
C7AB  29 80     AND #$80                        A:10 X:FF Y:00 P:24 SP:FF CYC: 62 SL:104
C7AD  F0 F9     BEQ $C7A8                       A:00 X:FF Y:00 P:26 SP:FF CYC: 68 SL:104
C7A8  AD 02 20  LDA $2002 = FF                  A:00 X:FF Y:00 P:26 SP:FF CYC: 77 SL:104
C7AB  29 80     AND #$80                        A:10 X:FF Y:00 P:24 SP:FF CYC: 89 SL:104
C7AD  F0 F9     BEQ $C7A8                       A:00 X:FF Y:00 P:26 SP:FF CYC: 95 SL:104
C7A8  AD 02 20  LDA $2002 = FF                  A:00 X:FF Y:00 P:26 SP:FF CYC:104 SL:104
C7AB  29 80     AND #$80                        A:10 X:FF Y:00 P:24 SP:FF CYC:116 SL:104
C7AD  F0 F9     BEQ $C7A8                       A:00 X:FF Y:00 P:26 SP:FF CYC:122 SL:104
C7A8  AD 02 20  LDA $2002 = FF                  A:00 X:FF Y:00 P:26 SP:FF CYC:131 SL:104
C7AB  29 80     AND #$80                        A:10 X:FF Y:00 P:24 SP:FF CYC:143 SL:104
C7AD  F0 F9     BEQ $C7A8                       A:00 X:FF Y:00 P:26 SP:FF CYC:149 SL:104
C7A8  AD 02 20  LDA $2002 = FF                  A:00 X:FF Y:00 P:26 SP:FF CYC:158 SL:104
C7AB  29 80     AND #$80                        A:10 X:FF Y:00 P:24 SP:FF CYC:170 SL:104
C7AD  F0 F9     BEQ $C7A8                       A:00 X:FF Y:00 P:26 SP:FF CYC:176 SL:104
C7A8  AD 02 20  LDA $2002 = FF                  A:00 X:FF Y:00 P:26 SP:FF CYC:185 SL:104
C7AB  29 80     AND #$80                        A:10 X:FF Y:00 P:24 SP:FF CYC:197 SL:104
C7AD  F0 F9     BEQ $C7A8                       A:00 X:FF Y:00 P:26 SP:FF CYC:203 SL:104
C7A8  AD 02 20  LDA $2002 = FF                  A:00 X:FF Y:00 P:26 SP:FF CYC:212 SL:104
C7AB  29 80     AND #$80                        A:10 X:FF Y:00 P:24 SP:FF CYC:224 SL:104
C7AD  F0 F9     BEQ $C7A8                       A:00 X:FF Y:00 P:26 SP:FF CYC:230 SL:104
C7A8  AD 02 20  LDA $2002 = FF                  A:00 X:FF Y:00 P:26 SP:FF CYC:239 SL:104
C7AB  29 80     AND #$80                        A:10 X:FF Y:00 P:24 SP:FF CYC:251 SL:104
C7AD  F0 F9     BEQ $C7A8                       A:00 X:FF Y:00 P:26 SP:FF CYC:257 SL:104
C7A8  AD 02 20  LDA $2002 = FF                  A:00 X:FF Y:00 P:26 SP:FF CYC:266 SL:104
C7AB  29 80     AND #$80                        A:10 X:FF Y:00 P:24 SP:FF CYC:278 SL:104
C7AD  F0 F9     BEQ $C7A8                       A:00 X:FF Y:00 P:26 SP:FF CYC:284 SL:104
C7A8  AD 02 20  LDA $2002 = FF                  A:00 X:FF Y:00 P:26 SP:FF CYC:293 SL:104
C7AB  29 80     AND #$80                        A:10 X:FF Y:00 P:24 SP:FF CYC:305 SL:104
C7AD  F0 F9     BEQ $C7A8                       A:00 X:FF Y:00 P:26 SP:FF CYC:311 SL:104
C7A8  AD 02 20  LDA $2002 = FF                  A:00 X:FF Y:00 P:26 SP:FF CYC:320 SL:104
C7AB  29 80     AND #$80                        A:10 X:FF Y:00 P:24 SP:FF CYC:332 SL:104
C7AD  F0 F9     BEQ $C7A8                       A:00 X:FF Y:00 P:26 SP:FF CYC:338 SL:104
C7A8  AD 02 20  LDA $2002 = FF                  A:00 X:FF Y:00 P:26 SP:FF CYC:  6 SL:105
C7AB  29 80     AND #$80                        A:10 X:FF Y:00 P:24 SP:FF CYC: 18 SL:105
C7AD  F0 F9     BEQ $C7A8                       A:00 X:FF Y:00 P:26 SP:FF CYC: 24 SL:105
C7A8  AD 02 20  LDA $2002 = FF                  A:00 X:FF Y:00 P:26 SP:FF CYC: 33 SL:105
C7AB  29 80     AND #$80                        A:10 X:FF Y:00 P:24 SP:FF CYC: 45 SL:105
C7AD  F0 F9     BEQ $C7A8                       A:00 X:FF Y:00 P:26 SP:FF CYC: 51 SL:105
C7A8  AD 02 20  LDA $2002 = FF                  A:00 X:FF Y:00 P:26 SP:FF CYC: 60 SL:105
C7AB  29 80     AND #$80                        A:10 X:FF Y:00 P:24 SP:FF CYC: 72 SL:105
C7AD  F0 F9     BEQ $C7A8                       A:00 X:FF Y:00 P:26 SP:FF CYC: 78 SL:105
C7A8  AD 02 20  LDA $2002 = FF                  A:00 X:FF Y:00 P:26 SP:FF CYC: 87 SL:105
C7AB  29 80     AND #$80                        A:10 X:FF Y:00 P:24 SP:FF CYC: 99 SL:105
C7AD  F0 F9     BEQ $C7A8                       A:00 X:FF Y:00 P:26 SP:FF CYC:105 SL:105
C7A8  AD 02 20  LDA $2002 = FF                  A:00 X:FF Y:00 P:26 SP:FF CYC:114 SL:105
C7AB  29 80     AND #$80                        A:10 X:FF Y:00 P:24 SP:FF CYC:126 SL:105
C7AD  F0 F9     BEQ $C7A8                       A:00 X:FF Y:00 P:26 SP:FF CYC:132 SL:105
C7A8  AD 02 20  LDA $2002 = FF                  A:00 X:FF Y:00 P:26 SP:FF CYC:141 SL:105
C7AB  29 80     AND #$80                        A:10 X:FF Y:00 P:24 SP:FF CYC:153 SL:105
C7AD  F0 F9     BEQ $C7A8                       A:00 X:FF Y:00 P:26 SP:FF CYC:159 SL:105
C7A8  AD 02 20  LDA $2002 = FF                  A:00 X:FF Y:00 P:26 SP:FF CYC:168 SL:105
C7AB  29 80     AND #$80                        A:10 X:FF Y:00 P:24 SP:FF CYC:180 SL:105
C7AD  F0 F9     BEQ $C7A8                       A:00 X:FF Y:00 P:26 SP:FF CYC:186 SL:105
C7A8  AD 02 20  LDA $2002 = FF                  A:00 X:FF Y:00 P:26 SP:FF CYC:195 SL:105
C7AB  29 80     AND #$80                        A:10 X:FF Y:00 P:24 SP:FF CYC:207 SL:105
C7AD  F0 F9     BEQ $C7A8                       A:00 X:FF Y:00 P:26 SP:FF CYC:213 SL:105
C7A8  AD 02 20  LDA $2002 = FF                  A:00 X:FF Y:00 P:26 SP:FF CYC:222 SL:105
C7AB  29 80     AND #$80                        A:10 X:FF Y:00 P:24 SP:FF CYC:234 SL:105
C7AD  F0 F9     BEQ $C7A8                       A:00 X:FF Y:00 P:26 SP:FF CYC:240 SL:105
C7A8  AD 02 20  LDA $2002 = FF                  A:00 X:FF Y:00 P:26 SP:FF CYC:249 SL:105
C7AB  29 80     AND #$80                        A:10 X:FF Y:00 P:24 SP:FF CYC:261 SL:105
C7AD  F0 F9     BEQ $C7A8                       A:00 X:FF Y:00 P:26 SP:FF CYC:267 SL:105
C7A8  AD 02 20  LDA $2002 = FF                  A:00 X:FF Y:00 P:26 SP:FF CYC:276 SL:105
C7AB  29 80     AND #$80                        A:10 X:FF Y:00 P:24 SP:FF CYC:288 SL:105
C7AD  F0 F9     BEQ $C7A8                       A:00 X:FF Y:00 P:26 SP:FF CYC:294 SL:105
C7A8  AD 02 20  LDA $2002 = FF                  A:00 X:FF Y:00 P:26 SP:FF CYC:303 SL:105
C7AB  29 80     AND #$80                        A:10 X:FF Y:00 P:24 SP:FF CYC:315 SL:105
C7AD  F0 F9     BEQ $C7A8                       A:00 X:FF Y:00 P:26 SP:FF CYC:321 SL:105
C7A8  AD 02 20  LDA $2002 = FF                  A:00 X:FF Y:00 P:26 SP:FF CYC:330 SL:105
C7AB  29 80     AND #$80                        A:10 X:FF Y:00 P:24 SP:FF CYC:  1 SL:106
C7AD  F0 F9     BEQ $C7A8                       A:00 X:FF Y:00 P:26 SP:FF CYC:  7 SL:106
C7A8  AD 02 20  LDA $2002 = FF                  A:00 X:FF Y:00 P:26 SP:FF CYC: 16 SL:106
C7AB  29 80     AND #$80                        A:10 X:FF Y:00 P:24 SP:FF CYC: 28 SL:106
C7AD  F0 F9     BEQ $C7A8                       A:00 X:FF Y:00 P:26 SP:FF CYC: 34 SL:106
C7A8  AD 02 20  LDA $2002 = FF                  A:00 X:FF Y:00 P:26 SP:FF CYC: 43 SL:106
C7AB  29 80     AND #$80                        A:10 X:FF Y:00 P:24 SP:FF CYC: 55 SL:106
C7AD  F0 F9     BEQ $C7A8                       A:00 X:FF Y:00 P:26 SP:FF CYC: 61 SL:106
C7A8  AD 02 20  LDA $2002 = FF                  A:00 X:FF Y:00 P:26 SP:FF CYC: 70 SL:106
C7AB  29 80     AND #$80                        A:10 X:FF Y:00 P:24 SP:FF CYC: 82 SL:106
C7AD  F0 F9     BEQ $C7A8                       A:00 X:FF Y:00 P:26 SP:FF CYC: 88 SL:106
C7A8  AD 02 20  LDA $2002 = FF                  A:00 X:FF Y:00 P:26 SP:FF CYC: 97 SL:106
C7AB  29 80     AND #$80                        A:10 X:FF Y:00 P:24 SP:FF CYC:109 SL:106
C7AD  F0 F9     BEQ $C7A8                       A:00 X:FF Y:00 P:26 SP:FF CYC:115 SL:106
C7A8  AD 02 20  LDA $2002 = FF                  A:00 X:FF Y:00 P:26 SP:FF CYC:124 SL:106
C7AB  29 80     AND #$80                        A:10 X:FF Y:00 P:24 SP:FF CYC:136 SL:106
C7AD  F0 F9     BEQ $C7A8                       A:00 X:FF Y:00 P:26 SP:FF CYC:142 SL:106
C7A8  AD 02 20  LDA $2002 = FF                  A:00 X:FF Y:00 P:26 SP:FF CYC:151 SL:106
C7AB  29 80     AND #$80                        A:10 X:FF Y:00 P:24 SP:FF CYC:163 SL:106
C7AD  F0 F9     BEQ $C7A8                       A:00 X:FF Y:00 P:26 SP:FF CYC:169 SL:106
C7A8  AD 02 20  LDA $2002 = FF                  A:00 X:FF Y:00 P:26 SP:FF CYC:178 SL:106
C7AB  29 80     AND #$80                        A:10 X:FF Y:00 P:24 SP:FF CYC:190 SL:106
C7AD  F0 F9     BEQ $C7A8                       A:00 X:FF Y:00 P:26 SP:FF CYC:196 SL:106
C7A8  AD 02 20  LDA $2002 = FF                  A:00 X:FF Y:00 P:26 SP:FF CYC:205 SL:106
C7AB  29 80     AND #$80                        A:10 X:FF Y:00 P:24 SP:FF CYC:217 SL:106
C7AD  F0 F9     BEQ $C7A8                       A:00 X:FF Y:00 P:26 SP:FF CYC:223 SL:106
C7A8  AD 02 20  LDA $2002 = FF                  A:00 X:FF Y:00 P:26 SP:FF CYC:232 SL:106
C7AB  29 80     AND #$80                        A:10 X:FF Y:00 P:24 SP:FF CYC:244 SL:106
C7AD  F0 F9     BEQ $C7A8                       A:00 X:FF Y:00 P:26 SP:FF CYC:250 SL:106
C7A8  AD 02 20  LDA $2002 = FF                  A:00 X:FF Y:00 P:26 SP:FF CYC:259 SL:106
C7AB  29 80     AND #$80                        A:10 X:FF Y:00 P:24 SP:FF CYC:271 SL:106
C7AD  F0 F9     BEQ $C7A8                       A:00 X:FF Y:00 P:26 SP:FF CYC:277 SL:106
C7A8  AD 02 20  LDA $2002 = FF                  A:00 X:FF Y:00 P:26 SP:FF CYC:286 SL:106
C7AB  29 80     AND #$80                        A:10 X:FF Y:00 P:24 SP:FF CYC:298 SL:106
C7AD  F0 F9     BEQ $C7A8                       A:00 X:FF Y:00 P:26 SP:FF CYC:304 SL:106
C7A8  AD 02 20  LDA $2002 = FF                  A:00 X:FF Y:00 P:26 SP:FF CYC:313 SL:106
C7AB  29 80     AND #$80                        A:10 X:FF Y:00 P:24 SP:FF CYC:325 SL:106
C7AD  F0 F9     BEQ $C7A8                       A:00 X:FF Y:00 P:26 SP:FF CYC:331 SL:106
C7A8  AD 02 20  LDA $2002 = FF                  A:00 X:FF Y:00 P:26 SP:FF CYC:340 SL:106
C7AB  29 80     AND #$80                        A:10 X:FF Y:00 P:24 SP:FF CYC: 11 SL:107
C7AD  F0 F9     BEQ $C7A8                       A:00 X:FF Y:00 P:26 SP:FF CYC: 17 SL:107
C7A8  AD 02 20  LDA $2002 = FF                  A:00 X:FF Y:00 P:26 SP:FF CYC: 26 SL:107
C7AB  29 80     AND #$80                        A:10 X:FF Y:00 P:24 SP:FF CYC: 38 SL:107
C7AD  F0 F9     BEQ $C7A8                       A:00 X:FF Y:00 P:26 SP:FF CYC: 44 SL:107
C7A8  AD 02 20  LDA $2002 = FF                  A:00 X:FF Y:00 P:26 SP:FF CYC: 53 SL:107
C7AB  29 80     AND #$80                        A:10 X:FF Y:00 P:24 SP:FF CYC: 65 SL:107
C7AD  F0 F9     BEQ $C7A8                       A:00 X:FF Y:00 P:26 SP:FF CYC: 71 SL:107
C7A8  AD 02 20  LDA $2002 = FF                  A:00 X:FF Y:00 P:26 SP:FF CYC: 80 SL:107
C7AB  29 80     AND #$80                        A:10 X:FF Y:00 P:24 SP:FF CYC: 92 SL:107
C7AD  F0 F9     BEQ $C7A8                       A:00 X:FF Y:00 P:26 SP:FF CYC: 98 SL:107
C7A8  AD 02 20  LDA $2002 = FF                  A:00 X:FF Y:00 P:26 SP:FF CYC:107 SL:107
C7AB  29 80     AND #$80                        A:10 X:FF Y:00 P:24 SP:FF CYC:119 SL:107
C7AD  F0 F9     BEQ $C7A8                       A:00 X:FF Y:00 P:26 SP:FF CYC:125 SL:107
C7A8  AD 02 20  LDA $2002 = FF                  A:00 X:FF Y:00 P:26 SP:FF CYC:134 SL:107
C7AB  29 80     AND #$80                        A:10 X:FF Y:00 P:24 SP:FF CYC:146 SL:107
C7AD  F0 F9     BEQ $C7A8                       A:00 X:FF Y:00 P:26 SP:FF CYC:152 SL:107
C7A8  AD 02 20  LDA $2002 = FF                  A:00 X:FF Y:00 P:26 SP:FF CYC:161 SL:107
C7AB  29 80     AND #$80                        A:10 X:FF Y:00 P:24 SP:FF CYC:173 SL:107
C7AD  F0 F9     BEQ $C7A8                       A:00 X:FF Y:00 P:26 SP:FF CYC:179 SL:107
C7A8  AD 02 20  LDA $2002 = FF                  A:00 X:FF Y:00 P:26 SP:FF CYC:188 SL:107
C7AB  29 80     AND #$80                        A:10 X:FF Y:00 P:24 SP:FF CYC:200 SL:107
C7AD  F0 F9     BEQ $C7A8                       A:00 X:FF Y:00 P:26 SP:FF CYC:206 SL:107
C7A8  AD 02 20  LDA $2002 = FF                  A:00 X:FF Y:00 P:26 SP:FF CYC:215 SL:107
C7AB  29 80     AND #$80                        A:10 X:FF Y:00 P:24 SP:FF CYC:227 SL:107
C7AD  F0 F9     BEQ $C7A8                       A:00 X:FF Y:00 P:26 SP:FF CYC:233 SL:107
C7A8  AD 02 20  LDA $2002 = FF                  A:00 X:FF Y:00 P:26 SP:FF CYC:242 SL:107
C7AB  29 80     AND #$80                        A:10 X:FF Y:00 P:24 SP:FF CYC:254 SL:107
C7AD  F0 F9     BEQ $C7A8                       A:00 X:FF Y:00 P:26 SP:FF CYC:260 SL:107
C7A8  AD 02 20  LDA $2002 = FF                  A:00 X:FF Y:00 P:26 SP:FF CYC:269 SL:107
C7AB  29 80     AND #$80                        A:10 X:FF Y:00 P:24 SP:FF CYC:281 SL:107
C7AD  F0 F9     BEQ $C7A8                       A:00 X:FF Y:00 P:26 SP:FF CYC:287 SL:107
C7A8  AD 02 20  LDA $2002 = FF                  A:00 X:FF Y:00 P:26 SP:FF CYC:296 SL:107
C7AB  29 80     AND #$80                        A:10 X:FF Y:00 P:24 SP:FF CYC:308 SL:107
C7AD  F0 F9     BEQ $C7A8                       A:00 X:FF Y:00 P:26 SP:FF CYC:314 SL:107
C7A8  AD 02 20  LDA $2002 = FF                  A:00 X:FF Y:00 P:26 SP:FF CYC:323 SL:107
C7AB  29 80     AND #$80                        A:10 X:FF Y:00 P:24 SP:FF CYC:335 SL:107
C7AD  F0 F9     BEQ $C7A8                       A:00 X:FF Y:00 P:26 SP:FF CYC:  0 SL:108
C7A8  AD 02 20  LDA $2002 = FF                  A:00 X:FF Y:00 P:26 SP:FF CYC:  9 SL:108
C7AB  29 80     AND #$80                        A:10 X:FF Y:00 P:24 SP:FF CYC: 21 SL:108
C7AD  F0 F9     BEQ $C7A8                       A:00 X:FF Y:00 P:26 SP:FF CYC: 27 SL:108
C7A8  AD 02 20  LDA $2002 = FF                  A:00 X:FF Y:00 P:26 SP:FF CYC: 36 SL:108
C7AB  29 80     AND #$80                        A:10 X:FF Y:00 P:24 SP:FF CYC: 48 SL:108
C7AD  F0 F9     BEQ $C7A8                       A:00 X:FF Y:00 P:26 SP:FF CYC: 54 SL:108
C7A8  AD 02 20  LDA $2002 = FF                  A:00 X:FF Y:00 P:26 SP:FF CYC: 63 SL:108
C7AB  29 80     AND #$80                        A:10 X:FF Y:00 P:24 SP:FF CYC: 75 SL:108
C7AD  F0 F9     BEQ $C7A8                       A:00 X:FF Y:00 P:26 SP:FF CYC: 81 SL:108
C7A8  AD 02 20  LDA $2002 = FF                  A:00 X:FF Y:00 P:26 SP:FF CYC: 90 SL:108
C7AB  29 80     AND #$80                        A:10 X:FF Y:00 P:24 SP:FF CYC:102 SL:108
C7AD  F0 F9     BEQ $C7A8                       A:00 X:FF Y:00 P:26 SP:FF CYC:108 SL:108
C7A8  AD 02 20  LDA $2002 = FF                  A:00 X:FF Y:00 P:26 SP:FF CYC:117 SL:108
C7AB  29 80     AND #$80                        A:10 X:FF Y:00 P:24 SP:FF CYC:129 SL:108
C7AD  F0 F9     BEQ $C7A8                       A:00 X:FF Y:00 P:26 SP:FF CYC:135 SL:108
C7A8  AD 02 20  LDA $2002 = FF                  A:00 X:FF Y:00 P:26 SP:FF CYC:144 SL:108
C7AB  29 80     AND #$80                        A:10 X:FF Y:00 P:24 SP:FF CYC:156 SL:108
C7AD  F0 F9     BEQ $C7A8                       A:00 X:FF Y:00 P:26 SP:FF CYC:162 SL:108
C7A8  AD 02 20  LDA $2002 = FF                  A:00 X:FF Y:00 P:26 SP:FF CYC:171 SL:108
C7AB  29 80     AND #$80                        A:10 X:FF Y:00 P:24 SP:FF CYC:183 SL:108
C7AD  F0 F9     BEQ $C7A8                       A:00 X:FF Y:00 P:26 SP:FF CYC:189 SL:108
C7A8  AD 02 20  LDA $2002 = FF                  A:00 X:FF Y:00 P:26 SP:FF CYC:198 SL:108
C7AB  29 80     AND #$80                        A:10 X:FF Y:00 P:24 SP:FF CYC:210 SL:108
C7AD  F0 F9     BEQ $C7A8                       A:00 X:FF Y:00 P:26 SP:FF CYC:216 SL:108
C7A8  AD 02 20  LDA $2002 = FF                  A:00 X:FF Y:00 P:26 SP:FF CYC:225 SL:108
C7AB  29 80     AND #$80                        A:10 X:FF Y:00 P:24 SP:FF CYC:237 SL:108
C7AD  F0 F9     BEQ $C7A8                       A:00 X:FF Y:00 P:26 SP:FF CYC:243 SL:108
C7A8  AD 02 20  LDA $2002 = FF                  A:00 X:FF Y:00 P:26 SP:FF CYC:252 SL:108
C7AB  29 80     AND #$80                        A:10 X:FF Y:00 P:24 SP:FF CYC:264 SL:108
C7AD  F0 F9     BEQ $C7A8                       A:00 X:FF Y:00 P:26 SP:FF CYC:270 SL:108
C7A8  AD 02 20  LDA $2002 = FF                  A:00 X:FF Y:00 P:26 SP:FF CYC:279 SL:108
C7AB  29 80     AND #$80                        A:10 X:FF Y:00 P:24 SP:FF CYC:291 SL:108
C7AD  F0 F9     BEQ $C7A8                       A:00 X:FF Y:00 P:26 SP:FF CYC:297 SL:108
C7A8  AD 02 20  LDA $2002 = FF                  A:00 X:FF Y:00 P:26 SP:FF CYC:306 SL:108
C7AB  29 80     AND #$80                        A:10 X:FF Y:00 P:24 SP:FF CYC:318 SL:108
C7AD  F0 F9     BEQ $C7A8                       A:00 X:FF Y:00 P:26 SP:FF CYC:324 SL:108
C7A8  AD 02 20  LDA $2002 = FF                  A:00 X:FF Y:00 P:26 SP:FF CYC:333 SL:108
C7AB  29 80     AND #$80                        A:10 X:FF Y:00 P:24 SP:FF CYC:  4 SL:109
C7AD  F0 F9     BEQ $C7A8                       A:00 X:FF Y:00 P:26 SP:FF CYC: 10 SL:109
C7A8  AD 02 20  LDA $2002 = FF                  A:00 X:FF Y:00 P:26 SP:FF CYC: 19 SL:109
C7AB  29 80     AND #$80                        A:10 X:FF Y:00 P:24 SP:FF CYC: 31 SL:109
C7AD  F0 F9     BEQ $C7A8                       A:00 X:FF Y:00 P:26 SP:FF CYC: 37 SL:109
C7A8  AD 02 20  LDA $2002 = FF                  A:00 X:FF Y:00 P:26 SP:FF CYC: 46 SL:109
C7AB  29 80     AND #$80                        A:10 X:FF Y:00 P:24 SP:FF CYC: 58 SL:109
C7AD  F0 F9     BEQ $C7A8                       A:00 X:FF Y:00 P:26 SP:FF CYC: 64 SL:109
C7A8  AD 02 20  LDA $2002 = FF                  A:00 X:FF Y:00 P:26 SP:FF CYC: 73 SL:109
C7AB  29 80     AND #$80                        A:10 X:FF Y:00 P:24 SP:FF CYC: 85 SL:109
C7AD  F0 F9     BEQ $C7A8                       A:00 X:FF Y:00 P:26 SP:FF CYC: 91 SL:109
C7A8  AD 02 20  LDA $2002 = FF                  A:00 X:FF Y:00 P:26 SP:FF CYC:100 SL:109
C7AB  29 80     AND #$80                        A:10 X:FF Y:00 P:24 SP:FF CYC:112 SL:109
C7AD  F0 F9     BEQ $C7A8                       A:00 X:FF Y:00 P:26 SP:FF CYC:118 SL:109
C7A8  AD 02 20  LDA $2002 = FF                  A:00 X:FF Y:00 P:26 SP:FF CYC:127 SL:109
C7AB  29 80     AND #$80                        A:10 X:FF Y:00 P:24 SP:FF CYC:139 SL:109
C7AD  F0 F9     BEQ $C7A8                       A:00 X:FF Y:00 P:26 SP:FF CYC:145 SL:109
C7A8  AD 02 20  LDA $2002 = FF                  A:00 X:FF Y:00 P:26 SP:FF CYC:154 SL:109
C7AB  29 80     AND #$80                        A:10 X:FF Y:00 P:24 SP:FF CYC:166 SL:109
C7AD  F0 F9     BEQ $C7A8                       A:00 X:FF Y:00 P:26 SP:FF CYC:172 SL:109
C7A8  AD 02 20  LDA $2002 = FF                  A:00 X:FF Y:00 P:26 SP:FF CYC:181 SL:109
C7AB  29 80     AND #$80                        A:10 X:FF Y:00 P:24 SP:FF CYC:193 SL:109
C7AD  F0 F9     BEQ $C7A8                       A:00 X:FF Y:00 P:26 SP:FF CYC:199 SL:109
C7A8  AD 02 20  LDA $2002 = FF                  A:00 X:FF Y:00 P:26 SP:FF CYC:208 SL:109
C7AB  29 80     AND #$80                        A:10 X:FF Y:00 P:24 SP:FF CYC:220 SL:109
C7AD  F0 F9     BEQ $C7A8                       A:00 X:FF Y:00 P:26 SP:FF CYC:226 SL:109
C7A8  AD 02 20  LDA $2002 = FF                  A:00 X:FF Y:00 P:26 SP:FF CYC:235 SL:109
C7AB  29 80     AND #$80                        A:10 X:FF Y:00 P:24 SP:FF CYC:247 SL:109
C7AD  F0 F9     BEQ $C7A8                       A:00 X:FF Y:00 P:26 SP:FF CYC:253 SL:109
C7A8  AD 02 20  LDA $2002 = FF                  A:00 X:FF Y:00 P:26 SP:FF CYC:262 SL:109
C7AB  29 80     AND #$80                        A:10 X:FF Y:00 P:24 SP:FF CYC:274 SL:109
C7AD  F0 F9     BEQ $C7A8                       A:00 X:FF Y:00 P:26 SP:FF CYC:280 SL:109
C7A8  AD 02 20  LDA $2002 = FF                  A:00 X:FF Y:00 P:26 SP:FF CYC:289 SL:109
C7AB  29 80     AND #$80                        A:10 X:FF Y:00 P:24 SP:FF CYC:301 SL:109
C7AD  F0 F9     BEQ $C7A8                       A:00 X:FF Y:00 P:26 SP:FF CYC:307 SL:109
C7A8  AD 02 20  LDA $2002 = FF                  A:00 X:FF Y:00 P:26 SP:FF CYC:316 SL:109
C7AB  29 80     AND #$80                        A:10 X:FF Y:00 P:24 SP:FF CYC:328 SL:109
C7AD  F0 F9     BEQ $C7A8                       A:00 X:FF Y:00 P:26 SP:FF CYC:334 SL:109
C7A8  AD 02 20  LDA $2002 = FF                  A:00 X:FF Y:00 P:26 SP:FF CYC:  2 SL:110
C7AB  29 80     AND #$80                        A:10 X:FF Y:00 P:24 SP:FF CYC: 14 SL:110
C7AD  F0 F9     BEQ $C7A8                       A:00 X:FF Y:00 P:26 SP:FF CYC: 20 SL:110
C7A8  AD 02 20  LDA $2002 = FF                  A:00 X:FF Y:00 P:26 SP:FF CYC: 29 SL:110
C7AB  29 80     AND #$80                        A:10 X:FF Y:00 P:24 SP:FF CYC: 41 SL:110
C7AD  F0 F9     BEQ $C7A8                       A:00 X:FF Y:00 P:26 SP:FF CYC: 47 SL:110
C7A8  AD 02 20  LDA $2002 = FF                  A:00 X:FF Y:00 P:26 SP:FF CYC: 56 SL:110
C7AB  29 80     AND #$80                        A:10 X:FF Y:00 P:24 SP:FF CYC: 68 SL:110
C7AD  F0 F9     BEQ $C7A8                       A:00 X:FF Y:00 P:26 SP:FF CYC: 74 SL:110
C7A8  AD 02 20  LDA $2002 = FF                  A:00 X:FF Y:00 P:26 SP:FF CYC: 83 SL:110
C7AB  29 80     AND #$80                        A:10 X:FF Y:00 P:24 SP:FF CYC: 95 SL:110
C7AD  F0 F9     BEQ $C7A8                       A:00 X:FF Y:00 P:26 SP:FF CYC:101 SL:110
C7A8  AD 02 20  LDA $2002 = FF                  A:00 X:FF Y:00 P:26 SP:FF CYC:110 SL:110
C7AB  29 80     AND #$80                        A:10 X:FF Y:00 P:24 SP:FF CYC:122 SL:110
C7AD  F0 F9     BEQ $C7A8                       A:00 X:FF Y:00 P:26 SP:FF CYC:128 SL:110
C7A8  AD 02 20  LDA $2002 = FF                  A:00 X:FF Y:00 P:26 SP:FF CYC:137 SL:110
C7AB  29 80     AND #$80                        A:10 X:FF Y:00 P:24 SP:FF CYC:149 SL:110
C7AD  F0 F9     BEQ $C7A8                       A:00 X:FF Y:00 P:26 SP:FF CYC:155 SL:110
C7A8  AD 02 20  LDA $2002 = FF                  A:00 X:FF Y:00 P:26 SP:FF CYC:164 SL:110
C7AB  29 80     AND #$80                        A:10 X:FF Y:00 P:24 SP:FF CYC:176 SL:110
C7AD  F0 F9     BEQ $C7A8                       A:00 X:FF Y:00 P:26 SP:FF CYC:182 SL:110
C7A8  AD 02 20  LDA $2002 = FF                  A:00 X:FF Y:00 P:26 SP:FF CYC:191 SL:110
C7AB  29 80     AND #$80                        A:10 X:FF Y:00 P:24 SP:FF CYC:203 SL:110
C7AD  F0 F9     BEQ $C7A8                       A:00 X:FF Y:00 P:26 SP:FF CYC:209 SL:110
C7A8  AD 02 20  LDA $2002 = FF                  A:00 X:FF Y:00 P:26 SP:FF CYC:218 SL:110
C7AB  29 80     AND #$80                        A:10 X:FF Y:00 P:24 SP:FF CYC:230 SL:110
C7AD  F0 F9     BEQ $C7A8                       A:00 X:FF Y:00 P:26 SP:FF CYC:236 SL:110
C7A8  AD 02 20  LDA $2002 = FF                  A:00 X:FF Y:00 P:26 SP:FF CYC:245 SL:110
C7AB  29 80     AND #$80                        A:10 X:FF Y:00 P:24 SP:FF CYC:257 SL:110
C7AD  F0 F9     BEQ $C7A8                       A:00 X:FF Y:00 P:26 SP:FF CYC:263 SL:110
C7A8  AD 02 20  LDA $2002 = FF                  A:00 X:FF Y:00 P:26 SP:FF CYC:272 SL:110
C7AB  29 80     AND #$80                        A:10 X:FF Y:00 P:24 SP:FF CYC:284 SL:110
C7AD  F0 F9     BEQ $C7A8                       A:00 X:FF Y:00 P:26 SP:FF CYC:290 SL:110
C7A8  AD 02 20  LDA $2002 = FF                  A:00 X:FF Y:00 P:26 SP:FF CYC:299 SL:110
C7AB  29 80     AND #$80                        A:10 X:FF Y:00 P:24 SP:FF CYC:311 SL:110
C7AD  F0 F9     BEQ $C7A8                       A:00 X:FF Y:00 P:26 SP:FF CYC:317 SL:110
C7A8  AD 02 20  LDA $2002 = FF                  A:00 X:FF Y:00 P:26 SP:FF CYC:326 SL:110
C7AB  29 80     AND #$80                        A:10 X:FF Y:00 P:24 SP:FF CYC:338 SL:110
C7AD  F0 F9     BEQ $C7A8                       A:00 X:FF Y:00 P:26 SP:FF CYC:  3 SL:111
C7A8  AD 02 20  LDA $2002 = FF                  A:00 X:FF Y:00 P:26 SP:FF CYC: 12 SL:111
C7AB  29 80     AND #$80                        A:10 X:FF Y:00 P:24 SP:FF CYC: 24 SL:111
C7AD  F0 F9     BEQ $C7A8                       A:00 X:FF Y:00 P:26 SP:FF CYC: 30 SL:111
C7A8  AD 02 20  LDA $2002 = FF                  A:00 X:FF Y:00 P:26 SP:FF CYC: 39 SL:111
C7AB  29 80     AND #$80                        A:10 X:FF Y:00 P:24 SP:FF CYC: 51 SL:111
C7AD  F0 F9     BEQ $C7A8                       A:00 X:FF Y:00 P:26 SP:FF CYC: 57 SL:111
C7A8  AD 02 20  LDA $2002 = FF                  A:00 X:FF Y:00 P:26 SP:FF CYC: 66 SL:111
C7AB  29 80     AND #$80                        A:10 X:FF Y:00 P:24 SP:FF CYC: 78 SL:111
C7AD  F0 F9     BEQ $C7A8                       A:00 X:FF Y:00 P:26 SP:FF CYC: 84 SL:111
C7A8  AD 02 20  LDA $2002 = FF                  A:00 X:FF Y:00 P:26 SP:FF CYC: 93 SL:111
C7AB  29 80     AND #$80                        A:10 X:FF Y:00 P:24 SP:FF CYC:105 SL:111
C7AD  F0 F9     BEQ $C7A8                       A:00 X:FF Y:00 P:26 SP:FF CYC:111 SL:111
C7A8  AD 02 20  LDA $2002 = FF                  A:00 X:FF Y:00 P:26 SP:FF CYC:120 SL:111
C7AB  29 80     AND #$80                        A:10 X:FF Y:00 P:24 SP:FF CYC:132 SL:111
C7AD  F0 F9     BEQ $C7A8                       A:00 X:FF Y:00 P:26 SP:FF CYC:138 SL:111
C7A8  AD 02 20  LDA $2002 = FF                  A:00 X:FF Y:00 P:26 SP:FF CYC:147 SL:111
C7AB  29 80     AND #$80                        A:10 X:FF Y:00 P:24 SP:FF CYC:159 SL:111
C7AD  F0 F9     BEQ $C7A8                       A:00 X:FF Y:00 P:26 SP:FF CYC:165 SL:111
C7A8  AD 02 20  LDA $2002 = FF                  A:00 X:FF Y:00 P:26 SP:FF CYC:174 SL:111
C7AB  29 80     AND #$80                        A:10 X:FF Y:00 P:24 SP:FF CYC:186 SL:111
C7AD  F0 F9     BEQ $C7A8                       A:00 X:FF Y:00 P:26 SP:FF CYC:192 SL:111
C7A8  AD 02 20  LDA $2002 = FF                  A:00 X:FF Y:00 P:26 SP:FF CYC:201 SL:111
C7AB  29 80     AND #$80                        A:10 X:FF Y:00 P:24 SP:FF CYC:213 SL:111
C7AD  F0 F9     BEQ $C7A8                       A:00 X:FF Y:00 P:26 SP:FF CYC:219 SL:111
C7A8  AD 02 20  LDA $2002 = FF                  A:00 X:FF Y:00 P:26 SP:FF CYC:228 SL:111
C7AB  29 80     AND #$80                        A:10 X:FF Y:00 P:24 SP:FF CYC:240 SL:111
C7AD  F0 F9     BEQ $C7A8                       A:00 X:FF Y:00 P:26 SP:FF CYC:246 SL:111
C7A8  AD 02 20  LDA $2002 = FF                  A:00 X:FF Y:00 P:26 SP:FF CYC:255 SL:111
C7AB  29 80     AND #$80                        A:10 X:FF Y:00 P:24 SP:FF CYC:267 SL:111
C7AD  F0 F9     BEQ $C7A8                       A:00 X:FF Y:00 P:26 SP:FF CYC:273 SL:111
C7A8  AD 02 20  LDA $2002 = FF                  A:00 X:FF Y:00 P:26 SP:FF CYC:282 SL:111
C7AB  29 80     AND #$80                        A:10 X:FF Y:00 P:24 SP:FF CYC:294 SL:111
C7AD  F0 F9     BEQ $C7A8                       A:00 X:FF Y:00 P:26 SP:FF CYC:300 SL:111
C7A8  AD 02 20  LDA $2002 = FF                  A:00 X:FF Y:00 P:26 SP:FF CYC:309 SL:111
C7AB  29 80     AND #$80                        A:10 X:FF Y:00 P:24 SP:FF CYC:321 SL:111
C7AD  F0 F9     BEQ $C7A8                       A:00 X:FF Y:00 P:26 SP:FF CYC:327 SL:111
C7A8  AD 02 20  LDA $2002 = FF                  A:00 X:FF Y:00 P:26 SP:FF CYC:336 SL:111
C7AB  29 80     AND #$80                        A:10 X:FF Y:00 P:24 SP:FF CYC:  7 SL:112
C7AD  F0 F9     BEQ $C7A8                       A:00 X:FF Y:00 P:26 SP:FF CYC: 13 SL:112
C7A8  AD 02 20  LDA $2002 = FF                  A:00 X:FF Y:00 P:26 SP:FF CYC: 22 SL:112
C7AB  29 80     AND #$80                        A:10 X:FF Y:00 P:24 SP:FF CYC: 34 SL:112
C7AD  F0 F9     BEQ $C7A8                       A:00 X:FF Y:00 P:26 SP:FF CYC: 40 SL:112
C7A8  AD 02 20  LDA $2002 = FF                  A:00 X:FF Y:00 P:26 SP:FF CYC: 49 SL:112
C7AB  29 80     AND #$80                        A:10 X:FF Y:00 P:24 SP:FF CYC: 61 SL:112
C7AD  F0 F9     BEQ $C7A8                       A:00 X:FF Y:00 P:26 SP:FF CYC: 67 SL:112
C7A8  AD 02 20  LDA $2002 = FF                  A:00 X:FF Y:00 P:26 SP:FF CYC: 76 SL:112
C7AB  29 80     AND #$80                        A:10 X:FF Y:00 P:24 SP:FF CYC: 88 SL:112
C7AD  F0 F9     BEQ $C7A8                       A:00 X:FF Y:00 P:26 SP:FF CYC: 94 SL:112
C7A8  AD 02 20  LDA $2002 = FF                  A:00 X:FF Y:00 P:26 SP:FF CYC:103 SL:112
C7AB  29 80     AND #$80                        A:10 X:FF Y:00 P:24 SP:FF CYC:115 SL:112
C7AD  F0 F9     BEQ $C7A8                       A:00 X:FF Y:00 P:26 SP:FF CYC:121 SL:112
C7A8  AD 02 20  LDA $2002 = FF                  A:00 X:FF Y:00 P:26 SP:FF CYC:130 SL:112
C7AB  29 80     AND #$80                        A:10 X:FF Y:00 P:24 SP:FF CYC:142 SL:112
C7AD  F0 F9     BEQ $C7A8                       A:00 X:FF Y:00 P:26 SP:FF CYC:148 SL:112
C7A8  AD 02 20  LDA $2002 = FF                  A:00 X:FF Y:00 P:26 SP:FF CYC:157 SL:112
C7AB  29 80     AND #$80                        A:10 X:FF Y:00 P:24 SP:FF CYC:169 SL:112
C7AD  F0 F9     BEQ $C7A8                       A:00 X:FF Y:00 P:26 SP:FF CYC:175 SL:112
C7A8  AD 02 20  LDA $2002 = FF                  A:00 X:FF Y:00 P:26 SP:FF CYC:184 SL:112
C7AB  29 80     AND #$80                        A:10 X:FF Y:00 P:24 SP:FF CYC:196 SL:112
C7AD  F0 F9     BEQ $C7A8                       A:00 X:FF Y:00 P:26 SP:FF CYC:202 SL:112
C7A8  AD 02 20  LDA $2002 = FF                  A:00 X:FF Y:00 P:26 SP:FF CYC:211 SL:112
C7AB  29 80     AND #$80                        A:10 X:FF Y:00 P:24 SP:FF CYC:223 SL:112
C7AD  F0 F9     BEQ $C7A8                       A:00 X:FF Y:00 P:26 SP:FF CYC:229 SL:112
C7A8  AD 02 20  LDA $2002 = FF                  A:00 X:FF Y:00 P:26 SP:FF CYC:238 SL:112
C7AB  29 80     AND #$80                        A:10 X:FF Y:00 P:24 SP:FF CYC:250 SL:112
C7AD  F0 F9     BEQ $C7A8                       A:00 X:FF Y:00 P:26 SP:FF CYC:256 SL:112
C7A8  AD 02 20  LDA $2002 = FF                  A:00 X:FF Y:00 P:26 SP:FF CYC:265 SL:112
C7AB  29 80     AND #$80                        A:10 X:FF Y:00 P:24 SP:FF CYC:277 SL:112
C7AD  F0 F9     BEQ $C7A8                       A:00 X:FF Y:00 P:26 SP:FF CYC:283 SL:112
C7A8  AD 02 20  LDA $2002 = FF                  A:00 X:FF Y:00 P:26 SP:FF CYC:292 SL:112
C7AB  29 80     AND #$80                        A:10 X:FF Y:00 P:24 SP:FF CYC:304 SL:112
C7AD  F0 F9     BEQ $C7A8                       A:00 X:FF Y:00 P:26 SP:FF CYC:310 SL:112
C7A8  AD 02 20  LDA $2002 = FF                  A:00 X:FF Y:00 P:26 SP:FF CYC:319 SL:112
C7AB  29 80     AND #$80                        A:10 X:FF Y:00 P:24 SP:FF CYC:331 SL:112
C7AD  F0 F9     BEQ $C7A8                       A:00 X:FF Y:00 P:26 SP:FF CYC:337 SL:112
C7A8  AD 02 20  LDA $2002 = FF                  A:00 X:FF Y:00 P:26 SP:FF CYC:  5 SL:113
C7AB  29 80     AND #$80                        A:10 X:FF Y:00 P:24 SP:FF CYC: 17 SL:113
C7AD  F0 F9     BEQ $C7A8                       A:00 X:FF Y:00 P:26 SP:FF CYC: 23 SL:113
C7A8  AD 02 20  LDA $2002 = FF                  A:00 X:FF Y:00 P:26 SP:FF CYC: 32 SL:113
C7AB  29 80     AND #$80                        A:10 X:FF Y:00 P:24 SP:FF CYC: 44 SL:113
C7AD  F0 F9     BEQ $C7A8                       A:00 X:FF Y:00 P:26 SP:FF CYC: 50 SL:113
C7A8  AD 02 20  LDA $2002 = FF                  A:00 X:FF Y:00 P:26 SP:FF CYC: 59 SL:113
C7AB  29 80     AND #$80                        A:10 X:FF Y:00 P:24 SP:FF CYC: 71 SL:113
C7AD  F0 F9     BEQ $C7A8                       A:00 X:FF Y:00 P:26 SP:FF CYC: 77 SL:113
C7A8  AD 02 20  LDA $2002 = FF                  A:00 X:FF Y:00 P:26 SP:FF CYC: 86 SL:113
C7AB  29 80     AND #$80                        A:10 X:FF Y:00 P:24 SP:FF CYC: 98 SL:113
C7AD  F0 F9     BEQ $C7A8                       A:00 X:FF Y:00 P:26 SP:FF CYC:104 SL:113
C7A8  AD 02 20  LDA $2002 = FF                  A:00 X:FF Y:00 P:26 SP:FF CYC:113 SL:113
C7AB  29 80     AND #$80                        A:10 X:FF Y:00 P:24 SP:FF CYC:125 SL:113
C7AD  F0 F9     BEQ $C7A8                       A:00 X:FF Y:00 P:26 SP:FF CYC:131 SL:113
C7A8  AD 02 20  LDA $2002 = FF                  A:00 X:FF Y:00 P:26 SP:FF CYC:140 SL:113
C7AB  29 80     AND #$80                        A:10 X:FF Y:00 P:24 SP:FF CYC:152 SL:113
C7AD  F0 F9     BEQ $C7A8                       A:00 X:FF Y:00 P:26 SP:FF CYC:158 SL:113
C7A8  AD 02 20  LDA $2002 = FF                  A:00 X:FF Y:00 P:26 SP:FF CYC:167 SL:113
C7AB  29 80     AND #$80                        A:10 X:FF Y:00 P:24 SP:FF CYC:179 SL:113
C7AD  F0 F9     BEQ $C7A8                       A:00 X:FF Y:00 P:26 SP:FF CYC:185 SL:113
C7A8  AD 02 20  LDA $2002 = FF                  A:00 X:FF Y:00 P:26 SP:FF CYC:194 SL:113
C7AB  29 80     AND #$80                        A:10 X:FF Y:00 P:24 SP:FF CYC:206 SL:113
C7AD  F0 F9     BEQ $C7A8                       A:00 X:FF Y:00 P:26 SP:FF CYC:212 SL:113
C7A8  AD 02 20  LDA $2002 = FF                  A:00 X:FF Y:00 P:26 SP:FF CYC:221 SL:113
C7AB  29 80     AND #$80                        A:10 X:FF Y:00 P:24 SP:FF CYC:233 SL:113
C7AD  F0 F9     BEQ $C7A8                       A:00 X:FF Y:00 P:26 SP:FF CYC:239 SL:113
C7A8  AD 02 20  LDA $2002 = FF                  A:00 X:FF Y:00 P:26 SP:FF CYC:248 SL:113
C7AB  29 80     AND #$80                        A:10 X:FF Y:00 P:24 SP:FF CYC:260 SL:113
C7AD  F0 F9     BEQ $C7A8                       A:00 X:FF Y:00 P:26 SP:FF CYC:266 SL:113
C7A8  AD 02 20  LDA $2002 = FF                  A:00 X:FF Y:00 P:26 SP:FF CYC:275 SL:113
C7AB  29 80     AND #$80                        A:10 X:FF Y:00 P:24 SP:FF CYC:287 SL:113
C7AD  F0 F9     BEQ $C7A8                       A:00 X:FF Y:00 P:26 SP:FF CYC:293 SL:113
C7A8  AD 02 20  LDA $2002 = FF                  A:00 X:FF Y:00 P:26 SP:FF CYC:302 SL:113
C7AB  29 80     AND #$80                        A:10 X:FF Y:00 P:24 SP:FF CYC:314 SL:113
C7AD  F0 F9     BEQ $C7A8                       A:00 X:FF Y:00 P:26 SP:FF CYC:320 SL:113
C7A8  AD 02 20  LDA $2002 = FF                  A:00 X:FF Y:00 P:26 SP:FF CYC:329 SL:113
C7AB  29 80     AND #$80                        A:10 X:FF Y:00 P:24 SP:FF CYC:  0 SL:114
C7AD  F0 F9     BEQ $C7A8                       A:00 X:FF Y:00 P:26 SP:FF CYC:  6 SL:114
C7A8  AD 02 20  LDA $2002 = FF                  A:00 X:FF Y:00 P:26 SP:FF CYC: 15 SL:114
C7AB  29 80     AND #$80                        A:10 X:FF Y:00 P:24 SP:FF CYC: 27 SL:114
C7AD  F0 F9     BEQ $C7A8                       A:00 X:FF Y:00 P:26 SP:FF CYC: 33 SL:114
C7A8  AD 02 20  LDA $2002 = FF                  A:00 X:FF Y:00 P:26 SP:FF CYC: 42 SL:114
C7AB  29 80     AND #$80                        A:10 X:FF Y:00 P:24 SP:FF CYC: 54 SL:114
C7AD  F0 F9     BEQ $C7A8                       A:00 X:FF Y:00 P:26 SP:FF CYC: 60 SL:114
C7A8  AD 02 20  LDA $2002 = FF                  A:00 X:FF Y:00 P:26 SP:FF CYC: 69 SL:114
C7AB  29 80     AND #$80                        A:10 X:FF Y:00 P:24 SP:FF CYC: 81 SL:114
C7AD  F0 F9     BEQ $C7A8                       A:00 X:FF Y:00 P:26 SP:FF CYC: 87 SL:114
C7A8  AD 02 20  LDA $2002 = FF                  A:00 X:FF Y:00 P:26 SP:FF CYC: 96 SL:114
C7AB  29 80     AND #$80                        A:10 X:FF Y:00 P:24 SP:FF CYC:108 SL:114
C7AD  F0 F9     BEQ $C7A8                       A:00 X:FF Y:00 P:26 SP:FF CYC:114 SL:114
C7A8  AD 02 20  LDA $2002 = FF                  A:00 X:FF Y:00 P:26 SP:FF CYC:123 SL:114
C7AB  29 80     AND #$80                        A:10 X:FF Y:00 P:24 SP:FF CYC:135 SL:114
C7AD  F0 F9     BEQ $C7A8                       A:00 X:FF Y:00 P:26 SP:FF CYC:141 SL:114
C7A8  AD 02 20  LDA $2002 = FF                  A:00 X:FF Y:00 P:26 SP:FF CYC:150 SL:114
C7AB  29 80     AND #$80                        A:10 X:FF Y:00 P:24 SP:FF CYC:162 SL:114
C7AD  F0 F9     BEQ $C7A8                       A:00 X:FF Y:00 P:26 SP:FF CYC:168 SL:114
C7A8  AD 02 20  LDA $2002 = FF                  A:00 X:FF Y:00 P:26 SP:FF CYC:177 SL:114
C7AB  29 80     AND #$80                        A:10 X:FF Y:00 P:24 SP:FF CYC:189 SL:114
C7AD  F0 F9     BEQ $C7A8                       A:00 X:FF Y:00 P:26 SP:FF CYC:195 SL:114
C7A8  AD 02 20  LDA $2002 = FF                  A:00 X:FF Y:00 P:26 SP:FF CYC:204 SL:114
C7AB  29 80     AND #$80                        A:10 X:FF Y:00 P:24 SP:FF CYC:216 SL:114
C7AD  F0 F9     BEQ $C7A8                       A:00 X:FF Y:00 P:26 SP:FF CYC:222 SL:114
C7A8  AD 02 20  LDA $2002 = FF                  A:00 X:FF Y:00 P:26 SP:FF CYC:231 SL:114
C7AB  29 80     AND #$80                        A:10 X:FF Y:00 P:24 SP:FF CYC:243 SL:114
C7AD  F0 F9     BEQ $C7A8                       A:00 X:FF Y:00 P:26 SP:FF CYC:249 SL:114
C7A8  AD 02 20  LDA $2002 = FF                  A:00 X:FF Y:00 P:26 SP:FF CYC:258 SL:114
C7AB  29 80     AND #$80                        A:10 X:FF Y:00 P:24 SP:FF CYC:270 SL:114
C7AD  F0 F9     BEQ $C7A8                       A:00 X:FF Y:00 P:26 SP:FF CYC:276 SL:114
C7A8  AD 02 20  LDA $2002 = FF                  A:00 X:FF Y:00 P:26 SP:FF CYC:285 SL:114
C7AB  29 80     AND #$80                        A:10 X:FF Y:00 P:24 SP:FF CYC:297 SL:114
C7AD  F0 F9     BEQ $C7A8                       A:00 X:FF Y:00 P:26 SP:FF CYC:303 SL:114
C7A8  AD 02 20  LDA $2002 = FF                  A:00 X:FF Y:00 P:26 SP:FF CYC:312 SL:114
C7AB  29 80     AND #$80                        A:10 X:FF Y:00 P:24 SP:FF CYC:324 SL:114
C7AD  F0 F9     BEQ $C7A8                       A:00 X:FF Y:00 P:26 SP:FF CYC:330 SL:114
C7A8  AD 02 20  LDA $2002 = FF                  A:00 X:FF Y:00 P:26 SP:FF CYC:339 SL:114
C7AB  29 80     AND #$80                        A:10 X:FF Y:00 P:24 SP:FF CYC: 10 SL:115
C7AD  F0 F9     BEQ $C7A8                       A:00 X:FF Y:00 P:26 SP:FF CYC: 16 SL:115
C7A8  AD 02 20  LDA $2002 = FF                  A:00 X:FF Y:00 P:26 SP:FF CYC: 25 SL:115
C7AB  29 80     AND #$80                        A:10 X:FF Y:00 P:24 SP:FF CYC: 37 SL:115
C7AD  F0 F9     BEQ $C7A8                       A:00 X:FF Y:00 P:26 SP:FF CYC: 43 SL:115
C7A8  AD 02 20  LDA $2002 = FF                  A:00 X:FF Y:00 P:26 SP:FF CYC: 52 SL:115
C7AB  29 80     AND #$80                        A:10 X:FF Y:00 P:24 SP:FF CYC: 64 SL:115
C7AD  F0 F9     BEQ $C7A8                       A:00 X:FF Y:00 P:26 SP:FF CYC: 70 SL:115
C7A8  AD 02 20  LDA $2002 = FF                  A:00 X:FF Y:00 P:26 SP:FF CYC: 79 SL:115
C7AB  29 80     AND #$80                        A:10 X:FF Y:00 P:24 SP:FF CYC: 91 SL:115
C7AD  F0 F9     BEQ $C7A8                       A:00 X:FF Y:00 P:26 SP:FF CYC: 97 SL:115
C7A8  AD 02 20  LDA $2002 = FF                  A:00 X:FF Y:00 P:26 SP:FF CYC:106 SL:115
C7AB  29 80     AND #$80                        A:10 X:FF Y:00 P:24 SP:FF CYC:118 SL:115
C7AD  F0 F9     BEQ $C7A8                       A:00 X:FF Y:00 P:26 SP:FF CYC:124 SL:115
C7A8  AD 02 20  LDA $2002 = FF                  A:00 X:FF Y:00 P:26 SP:FF CYC:133 SL:115
C7AB  29 80     AND #$80                        A:10 X:FF Y:00 P:24 SP:FF CYC:145 SL:115
C7AD  F0 F9     BEQ $C7A8                       A:00 X:FF Y:00 P:26 SP:FF CYC:151 SL:115
C7A8  AD 02 20  LDA $2002 = FF                  A:00 X:FF Y:00 P:26 SP:FF CYC:160 SL:115
C7AB  29 80     AND #$80                        A:10 X:FF Y:00 P:24 SP:FF CYC:172 SL:115
C7AD  F0 F9     BEQ $C7A8                       A:00 X:FF Y:00 P:26 SP:FF CYC:178 SL:115
C7A8  AD 02 20  LDA $2002 = FF                  A:00 X:FF Y:00 P:26 SP:FF CYC:187 SL:115
C7AB  29 80     AND #$80                        A:10 X:FF Y:00 P:24 SP:FF CYC:199 SL:115
C7AD  F0 F9     BEQ $C7A8                       A:00 X:FF Y:00 P:26 SP:FF CYC:205 SL:115
C7A8  AD 02 20  LDA $2002 = FF                  A:00 X:FF Y:00 P:26 SP:FF CYC:214 SL:115
C7AB  29 80     AND #$80                        A:10 X:FF Y:00 P:24 SP:FF CYC:226 SL:115
C7AD  F0 F9     BEQ $C7A8                       A:00 X:FF Y:00 P:26 SP:FF CYC:232 SL:115
C7A8  AD 02 20  LDA $2002 = FF                  A:00 X:FF Y:00 P:26 SP:FF CYC:241 SL:115
C7AB  29 80     AND #$80                        A:10 X:FF Y:00 P:24 SP:FF CYC:253 SL:115
C7AD  F0 F9     BEQ $C7A8                       A:00 X:FF Y:00 P:26 SP:FF CYC:259 SL:115
C7A8  AD 02 20  LDA $2002 = FF                  A:00 X:FF Y:00 P:26 SP:FF CYC:268 SL:115
C7AB  29 80     AND #$80                        A:10 X:FF Y:00 P:24 SP:FF CYC:280 SL:115
C7AD  F0 F9     BEQ $C7A8                       A:00 X:FF Y:00 P:26 SP:FF CYC:286 SL:115
C7A8  AD 02 20  LDA $2002 = FF                  A:00 X:FF Y:00 P:26 SP:FF CYC:295 SL:115
C7AB  29 80     AND #$80                        A:10 X:FF Y:00 P:24 SP:FF CYC:307 SL:115
C7AD  F0 F9     BEQ $C7A8                       A:00 X:FF Y:00 P:26 SP:FF CYC:313 SL:115
C7A8  AD 02 20  LDA $2002 = FF                  A:00 X:FF Y:00 P:26 SP:FF CYC:322 SL:115
C7AB  29 80     AND #$80                        A:10 X:FF Y:00 P:24 SP:FF CYC:334 SL:115
C7AD  F0 F9     BEQ $C7A8                       A:00 X:FF Y:00 P:26 SP:FF CYC:340 SL:115
C7A8  AD 02 20  LDA $2002 = FF                  A:00 X:FF Y:00 P:26 SP:FF CYC:  8 SL:116
C7AB  29 80     AND #$80                        A:10 X:FF Y:00 P:24 SP:FF CYC: 20 SL:116
C7AD  F0 F9     BEQ $C7A8                       A:00 X:FF Y:00 P:26 SP:FF CYC: 26 SL:116
C7A8  AD 02 20  LDA $2002 = FF                  A:00 X:FF Y:00 P:26 SP:FF CYC: 35 SL:116
C7AB  29 80     AND #$80                        A:10 X:FF Y:00 P:24 SP:FF CYC: 47 SL:116
C7AD  F0 F9     BEQ $C7A8                       A:00 X:FF Y:00 P:26 SP:FF CYC: 53 SL:116
C7A8  AD 02 20  LDA $2002 = FF                  A:00 X:FF Y:00 P:26 SP:FF CYC: 62 SL:116
C7AB  29 80     AND #$80                        A:10 X:FF Y:00 P:24 SP:FF CYC: 74 SL:116
C7AD  F0 F9     BEQ $C7A8                       A:00 X:FF Y:00 P:26 SP:FF CYC: 80 SL:116
C7A8  AD 02 20  LDA $2002 = FF                  A:00 X:FF Y:00 P:26 SP:FF CYC: 89 SL:116
C7AB  29 80     AND #$80                        A:10 X:FF Y:00 P:24 SP:FF CYC:101 SL:116
C7AD  F0 F9     BEQ $C7A8                       A:00 X:FF Y:00 P:26 SP:FF CYC:107 SL:116
C7A8  AD 02 20  LDA $2002 = FF                  A:00 X:FF Y:00 P:26 SP:FF CYC:116 SL:116
C7AB  29 80     AND #$80                        A:10 X:FF Y:00 P:24 SP:FF CYC:128 SL:116
C7AD  F0 F9     BEQ $C7A8                       A:00 X:FF Y:00 P:26 SP:FF CYC:134 SL:116
C7A8  AD 02 20  LDA $2002 = FF                  A:00 X:FF Y:00 P:26 SP:FF CYC:143 SL:116
C7AB  29 80     AND #$80                        A:10 X:FF Y:00 P:24 SP:FF CYC:155 SL:116
C7AD  F0 F9     BEQ $C7A8                       A:00 X:FF Y:00 P:26 SP:FF CYC:161 SL:116
C7A8  AD 02 20  LDA $2002 = FF                  A:00 X:FF Y:00 P:26 SP:FF CYC:170 SL:116
C7AB  29 80     AND #$80                        A:10 X:FF Y:00 P:24 SP:FF CYC:182 SL:116
C7AD  F0 F9     BEQ $C7A8                       A:00 X:FF Y:00 P:26 SP:FF CYC:188 SL:116
C7A8  AD 02 20  LDA $2002 = FF                  A:00 X:FF Y:00 P:26 SP:FF CYC:197 SL:116
C7AB  29 80     AND #$80                        A:10 X:FF Y:00 P:24 SP:FF CYC:209 SL:116
C7AD  F0 F9     BEQ $C7A8                       A:00 X:FF Y:00 P:26 SP:FF CYC:215 SL:116
C7A8  AD 02 20  LDA $2002 = FF                  A:00 X:FF Y:00 P:26 SP:FF CYC:224 SL:116
C7AB  29 80     AND #$80                        A:10 X:FF Y:00 P:24 SP:FF CYC:236 SL:116
C7AD  F0 F9     BEQ $C7A8                       A:00 X:FF Y:00 P:26 SP:FF CYC:242 SL:116
C7A8  AD 02 20  LDA $2002 = FF                  A:00 X:FF Y:00 P:26 SP:FF CYC:251 SL:116
C7AB  29 80     AND #$80                        A:10 X:FF Y:00 P:24 SP:FF CYC:263 SL:116
C7AD  F0 F9     BEQ $C7A8                       A:00 X:FF Y:00 P:26 SP:FF CYC:269 SL:116
C7A8  AD 02 20  LDA $2002 = FF                  A:00 X:FF Y:00 P:26 SP:FF CYC:278 SL:116
C7AB  29 80     AND #$80                        A:10 X:FF Y:00 P:24 SP:FF CYC:290 SL:116
C7AD  F0 F9     BEQ $C7A8                       A:00 X:FF Y:00 P:26 SP:FF CYC:296 SL:116
C7A8  AD 02 20  LDA $2002 = FF                  A:00 X:FF Y:00 P:26 SP:FF CYC:305 SL:116
C7AB  29 80     AND #$80                        A:10 X:FF Y:00 P:24 SP:FF CYC:317 SL:116
C7AD  F0 F9     BEQ $C7A8                       A:00 X:FF Y:00 P:26 SP:FF CYC:323 SL:116
C7A8  AD 02 20  LDA $2002 = FF                  A:00 X:FF Y:00 P:26 SP:FF CYC:332 SL:116
C7AB  29 80     AND #$80                        A:10 X:FF Y:00 P:24 SP:FF CYC:  3 SL:117
C7AD  F0 F9     BEQ $C7A8                       A:00 X:FF Y:00 P:26 SP:FF CYC:  9 SL:117
C7A8  AD 02 20  LDA $2002 = FF                  A:00 X:FF Y:00 P:26 SP:FF CYC: 18 SL:117
C7AB  29 80     AND #$80                        A:10 X:FF Y:00 P:24 SP:FF CYC: 30 SL:117
C7AD  F0 F9     BEQ $C7A8                       A:00 X:FF Y:00 P:26 SP:FF CYC: 36 SL:117
C7A8  AD 02 20  LDA $2002 = FF                  A:00 X:FF Y:00 P:26 SP:FF CYC: 45 SL:117
C7AB  29 80     AND #$80                        A:10 X:FF Y:00 P:24 SP:FF CYC: 57 SL:117
C7AD  F0 F9     BEQ $C7A8                       A:00 X:FF Y:00 P:26 SP:FF CYC: 63 SL:117
C7A8  AD 02 20  LDA $2002 = FF                  A:00 X:FF Y:00 P:26 SP:FF CYC: 72 SL:117
C7AB  29 80     AND #$80                        A:10 X:FF Y:00 P:24 SP:FF CYC: 84 SL:117
C7AD  F0 F9     BEQ $C7A8                       A:00 X:FF Y:00 P:26 SP:FF CYC: 90 SL:117
C7A8  AD 02 20  LDA $2002 = FF                  A:00 X:FF Y:00 P:26 SP:FF CYC: 99 SL:117
C7AB  29 80     AND #$80                        A:10 X:FF Y:00 P:24 SP:FF CYC:111 SL:117
C7AD  F0 F9     BEQ $C7A8                       A:00 X:FF Y:00 P:26 SP:FF CYC:117 SL:117
C7A8  AD 02 20  LDA $2002 = FF                  A:00 X:FF Y:00 P:26 SP:FF CYC:126 SL:117
C7AB  29 80     AND #$80                        A:10 X:FF Y:00 P:24 SP:FF CYC:138 SL:117
C7AD  F0 F9     BEQ $C7A8                       A:00 X:FF Y:00 P:26 SP:FF CYC:144 SL:117
C7A8  AD 02 20  LDA $2002 = FF                  A:00 X:FF Y:00 P:26 SP:FF CYC:153 SL:117
C7AB  29 80     AND #$80                        A:10 X:FF Y:00 P:24 SP:FF CYC:165 SL:117
C7AD  F0 F9     BEQ $C7A8                       A:00 X:FF Y:00 P:26 SP:FF CYC:171 SL:117
C7A8  AD 02 20  LDA $2002 = FF                  A:00 X:FF Y:00 P:26 SP:FF CYC:180 SL:117
C7AB  29 80     AND #$80                        A:10 X:FF Y:00 P:24 SP:FF CYC:192 SL:117
C7AD  F0 F9     BEQ $C7A8                       A:00 X:FF Y:00 P:26 SP:FF CYC:198 SL:117
C7A8  AD 02 20  LDA $2002 = FF                  A:00 X:FF Y:00 P:26 SP:FF CYC:207 SL:117
C7AB  29 80     AND #$80                        A:10 X:FF Y:00 P:24 SP:FF CYC:219 SL:117
C7AD  F0 F9     BEQ $C7A8                       A:00 X:FF Y:00 P:26 SP:FF CYC:225 SL:117
C7A8  AD 02 20  LDA $2002 = FF                  A:00 X:FF Y:00 P:26 SP:FF CYC:234 SL:117
C7AB  29 80     AND #$80                        A:10 X:FF Y:00 P:24 SP:FF CYC:246 SL:117
C7AD  F0 F9     BEQ $C7A8                       A:00 X:FF Y:00 P:26 SP:FF CYC:252 SL:117
C7A8  AD 02 20  LDA $2002 = FF                  A:00 X:FF Y:00 P:26 SP:FF CYC:261 SL:117
C7AB  29 80     AND #$80                        A:10 X:FF Y:00 P:24 SP:FF CYC:273 SL:117
C7AD  F0 F9     BEQ $C7A8                       A:00 X:FF Y:00 P:26 SP:FF CYC:279 SL:117
C7A8  AD 02 20  LDA $2002 = FF                  A:00 X:FF Y:00 P:26 SP:FF CYC:288 SL:117
C7AB  29 80     AND #$80                        A:10 X:FF Y:00 P:24 SP:FF CYC:300 SL:117
C7AD  F0 F9     BEQ $C7A8                       A:00 X:FF Y:00 P:26 SP:FF CYC:306 SL:117
C7A8  AD 02 20  LDA $2002 = FF                  A:00 X:FF Y:00 P:26 SP:FF CYC:315 SL:117
C7AB  29 80     AND #$80                        A:10 X:FF Y:00 P:24 SP:FF CYC:327 SL:117
C7AD  F0 F9     BEQ $C7A8                       A:00 X:FF Y:00 P:26 SP:FF CYC:333 SL:117
C7A8  AD 02 20  LDA $2002 = FF                  A:00 X:FF Y:00 P:26 SP:FF CYC:  1 SL:118
C7AB  29 80     AND #$80                        A:10 X:FF Y:00 P:24 SP:FF CYC: 13 SL:118
C7AD  F0 F9     BEQ $C7A8                       A:00 X:FF Y:00 P:26 SP:FF CYC: 19 SL:118
C7A8  AD 02 20  LDA $2002 = FF                  A:00 X:FF Y:00 P:26 SP:FF CYC: 28 SL:118
C7AB  29 80     AND #$80                        A:10 X:FF Y:00 P:24 SP:FF CYC: 40 SL:118
C7AD  F0 F9     BEQ $C7A8                       A:00 X:FF Y:00 P:26 SP:FF CYC: 46 SL:118
C7A8  AD 02 20  LDA $2002 = FF                  A:00 X:FF Y:00 P:26 SP:FF CYC: 55 SL:118
C7AB  29 80     AND #$80                        A:10 X:FF Y:00 P:24 SP:FF CYC: 67 SL:118
C7AD  F0 F9     BEQ $C7A8                       A:00 X:FF Y:00 P:26 SP:FF CYC: 73 SL:118
C7A8  AD 02 20  LDA $2002 = FF                  A:00 X:FF Y:00 P:26 SP:FF CYC: 82 SL:118
C7AB  29 80     AND #$80                        A:10 X:FF Y:00 P:24 SP:FF CYC: 94 SL:118
C7AD  F0 F9     BEQ $C7A8                       A:00 X:FF Y:00 P:26 SP:FF CYC:100 SL:118
C7A8  AD 02 20  LDA $2002 = FF                  A:00 X:FF Y:00 P:26 SP:FF CYC:109 SL:118
C7AB  29 80     AND #$80                        A:10 X:FF Y:00 P:24 SP:FF CYC:121 SL:118
C7AD  F0 F9     BEQ $C7A8                       A:00 X:FF Y:00 P:26 SP:FF CYC:127 SL:118
C7A8  AD 02 20  LDA $2002 = FF                  A:00 X:FF Y:00 P:26 SP:FF CYC:136 SL:118
C7AB  29 80     AND #$80                        A:10 X:FF Y:00 P:24 SP:FF CYC:148 SL:118
C7AD  F0 F9     BEQ $C7A8                       A:00 X:FF Y:00 P:26 SP:FF CYC:154 SL:118
C7A8  AD 02 20  LDA $2002 = FF                  A:00 X:FF Y:00 P:26 SP:FF CYC:163 SL:118
C7AB  29 80     AND #$80                        A:10 X:FF Y:00 P:24 SP:FF CYC:175 SL:118
C7AD  F0 F9     BEQ $C7A8                       A:00 X:FF Y:00 P:26 SP:FF CYC:181 SL:118
C7A8  AD 02 20  LDA $2002 = FF                  A:00 X:FF Y:00 P:26 SP:FF CYC:190 SL:118
C7AB  29 80     AND #$80                        A:10 X:FF Y:00 P:24 SP:FF CYC:202 SL:118
C7AD  F0 F9     BEQ $C7A8                       A:00 X:FF Y:00 P:26 SP:FF CYC:208 SL:118
C7A8  AD 02 20  LDA $2002 = FF                  A:00 X:FF Y:00 P:26 SP:FF CYC:217 SL:118
C7AB  29 80     AND #$80                        A:10 X:FF Y:00 P:24 SP:FF CYC:229 SL:118
C7AD  F0 F9     BEQ $C7A8                       A:00 X:FF Y:00 P:26 SP:FF CYC:235 SL:118
C7A8  AD 02 20  LDA $2002 = FF                  A:00 X:FF Y:00 P:26 SP:FF CYC:244 SL:118
C7AB  29 80     AND #$80                        A:10 X:FF Y:00 P:24 SP:FF CYC:256 SL:118
C7AD  F0 F9     BEQ $C7A8                       A:00 X:FF Y:00 P:26 SP:FF CYC:262 SL:118
C7A8  AD 02 20  LDA $2002 = FF                  A:00 X:FF Y:00 P:26 SP:FF CYC:271 SL:118
C7AB  29 80     AND #$80                        A:10 X:FF Y:00 P:24 SP:FF CYC:283 SL:118
C7AD  F0 F9     BEQ $C7A8                       A:00 X:FF Y:00 P:26 SP:FF CYC:289 SL:118
C7A8  AD 02 20  LDA $2002 = FF                  A:00 X:FF Y:00 P:26 SP:FF CYC:298 SL:118
C7AB  29 80     AND #$80                        A:10 X:FF Y:00 P:24 SP:FF CYC:310 SL:118
C7AD  F0 F9     BEQ $C7A8                       A:00 X:FF Y:00 P:26 SP:FF CYC:316 SL:118
C7A8  AD 02 20  LDA $2002 = FF                  A:00 X:FF Y:00 P:26 SP:FF CYC:325 SL:118
C7AB  29 80     AND #$80                        A:10 X:FF Y:00 P:24 SP:FF CYC:337 SL:118
C7AD  F0 F9     BEQ $C7A8                       A:00 X:FF Y:00 P:26 SP:FF CYC:  2 SL:119
C7A8  AD 02 20  LDA $2002 = FF                  A:00 X:FF Y:00 P:26 SP:FF CYC: 11 SL:119
C7AB  29 80     AND #$80                        A:10 X:FF Y:00 P:24 SP:FF CYC: 23 SL:119
C7AD  F0 F9     BEQ $C7A8                       A:00 X:FF Y:00 P:26 SP:FF CYC: 29 SL:119
C7A8  AD 02 20  LDA $2002 = FF                  A:00 X:FF Y:00 P:26 SP:FF CYC: 38 SL:119
C7AB  29 80     AND #$80                        A:10 X:FF Y:00 P:24 SP:FF CYC: 50 SL:119
C7AD  F0 F9     BEQ $C7A8                       A:00 X:FF Y:00 P:26 SP:FF CYC: 56 SL:119
C7A8  AD 02 20  LDA $2002 = FF                  A:00 X:FF Y:00 P:26 SP:FF CYC: 65 SL:119
C7AB  29 80     AND #$80                        A:10 X:FF Y:00 P:24 SP:FF CYC: 77 SL:119
C7AD  F0 F9     BEQ $C7A8                       A:00 X:FF Y:00 P:26 SP:FF CYC: 83 SL:119
C7A8  AD 02 20  LDA $2002 = FF                  A:00 X:FF Y:00 P:26 SP:FF CYC: 92 SL:119
C7AB  29 80     AND #$80                        A:10 X:FF Y:00 P:24 SP:FF CYC:104 SL:119
C7AD  F0 F9     BEQ $C7A8                       A:00 X:FF Y:00 P:26 SP:FF CYC:110 SL:119
C7A8  AD 02 20  LDA $2002 = FF                  A:00 X:FF Y:00 P:26 SP:FF CYC:119 SL:119
C7AB  29 80     AND #$80                        A:10 X:FF Y:00 P:24 SP:FF CYC:131 SL:119
C7AD  F0 F9     BEQ $C7A8                       A:00 X:FF Y:00 P:26 SP:FF CYC:137 SL:119
C7A8  AD 02 20  LDA $2002 = FF                  A:00 X:FF Y:00 P:26 SP:FF CYC:146 SL:119
C7AB  29 80     AND #$80                        A:10 X:FF Y:00 P:24 SP:FF CYC:158 SL:119
C7AD  F0 F9     BEQ $C7A8                       A:00 X:FF Y:00 P:26 SP:FF CYC:164 SL:119
C7A8  AD 02 20  LDA $2002 = FF                  A:00 X:FF Y:00 P:26 SP:FF CYC:173 SL:119
C7AB  29 80     AND #$80                        A:10 X:FF Y:00 P:24 SP:FF CYC:185 SL:119
C7AD  F0 F9     BEQ $C7A8                       A:00 X:FF Y:00 P:26 SP:FF CYC:191 SL:119
C7A8  AD 02 20  LDA $2002 = FF                  A:00 X:FF Y:00 P:26 SP:FF CYC:200 SL:119
C7AB  29 80     AND #$80                        A:10 X:FF Y:00 P:24 SP:FF CYC:212 SL:119
C7AD  F0 F9     BEQ $C7A8                       A:00 X:FF Y:00 P:26 SP:FF CYC:218 SL:119
C7A8  AD 02 20  LDA $2002 = FF                  A:00 X:FF Y:00 P:26 SP:FF CYC:227 SL:119
C7AB  29 80     AND #$80                        A:10 X:FF Y:00 P:24 SP:FF CYC:239 SL:119
C7AD  F0 F9     BEQ $C7A8                       A:00 X:FF Y:00 P:26 SP:FF CYC:245 SL:119
C7A8  AD 02 20  LDA $2002 = FF                  A:00 X:FF Y:00 P:26 SP:FF CYC:254 SL:119
C7AB  29 80     AND #$80                        A:10 X:FF Y:00 P:24 SP:FF CYC:266 SL:119
C7AD  F0 F9     BEQ $C7A8                       A:00 X:FF Y:00 P:26 SP:FF CYC:272 SL:119
C7A8  AD 02 20  LDA $2002 = FF                  A:00 X:FF Y:00 P:26 SP:FF CYC:281 SL:119
C7AB  29 80     AND #$80                        A:10 X:FF Y:00 P:24 SP:FF CYC:293 SL:119
C7AD  F0 F9     BEQ $C7A8                       A:00 X:FF Y:00 P:26 SP:FF CYC:299 SL:119
C7A8  AD 02 20  LDA $2002 = FF                  A:00 X:FF Y:00 P:26 SP:FF CYC:308 SL:119
C7AB  29 80     AND #$80                        A:10 X:FF Y:00 P:24 SP:FF CYC:320 SL:119
C7AD  F0 F9     BEQ $C7A8                       A:00 X:FF Y:00 P:26 SP:FF CYC:326 SL:119
C7A8  AD 02 20  LDA $2002 = FF                  A:00 X:FF Y:00 P:26 SP:FF CYC:335 SL:119
C7AB  29 80     AND #$80                        A:10 X:FF Y:00 P:24 SP:FF CYC:  6 SL:120
C7AD  F0 F9     BEQ $C7A8                       A:00 X:FF Y:00 P:26 SP:FF CYC: 12 SL:120
C7A8  AD 02 20  LDA $2002 = FF                  A:00 X:FF Y:00 P:26 SP:FF CYC: 21 SL:120
C7AB  29 80     AND #$80                        A:10 X:FF Y:00 P:24 SP:FF CYC: 33 SL:120
C7AD  F0 F9     BEQ $C7A8                       A:00 X:FF Y:00 P:26 SP:FF CYC: 39 SL:120
C7A8  AD 02 20  LDA $2002 = FF                  A:00 X:FF Y:00 P:26 SP:FF CYC: 48 SL:120
C7AB  29 80     AND #$80                        A:10 X:FF Y:00 P:24 SP:FF CYC: 60 SL:120
C7AD  F0 F9     BEQ $C7A8                       A:00 X:FF Y:00 P:26 SP:FF CYC: 66 SL:120
C7A8  AD 02 20  LDA $2002 = FF                  A:00 X:FF Y:00 P:26 SP:FF CYC: 75 SL:120
C7AB  29 80     AND #$80                        A:10 X:FF Y:00 P:24 SP:FF CYC: 87 SL:120
C7AD  F0 F9     BEQ $C7A8                       A:00 X:FF Y:00 P:26 SP:FF CYC: 93 SL:120
C7A8  AD 02 20  LDA $2002 = FF                  A:00 X:FF Y:00 P:26 SP:FF CYC:102 SL:120
C7AB  29 80     AND #$80                        A:10 X:FF Y:00 P:24 SP:FF CYC:114 SL:120
C7AD  F0 F9     BEQ $C7A8                       A:00 X:FF Y:00 P:26 SP:FF CYC:120 SL:120
C7A8  AD 02 20  LDA $2002 = FF                  A:00 X:FF Y:00 P:26 SP:FF CYC:129 SL:120
C7AB  29 80     AND #$80                        A:10 X:FF Y:00 P:24 SP:FF CYC:141 SL:120
C7AD  F0 F9     BEQ $C7A8                       A:00 X:FF Y:00 P:26 SP:FF CYC:147 SL:120
C7A8  AD 02 20  LDA $2002 = FF                  A:00 X:FF Y:00 P:26 SP:FF CYC:156 SL:120
C7AB  29 80     AND #$80                        A:10 X:FF Y:00 P:24 SP:FF CYC:168 SL:120
C7AD  F0 F9     BEQ $C7A8                       A:00 X:FF Y:00 P:26 SP:FF CYC:174 SL:120
C7A8  AD 02 20  LDA $2002 = FF                  A:00 X:FF Y:00 P:26 SP:FF CYC:183 SL:120
C7AB  29 80     AND #$80                        A:10 X:FF Y:00 P:24 SP:FF CYC:195 SL:120
C7AD  F0 F9     BEQ $C7A8                       A:00 X:FF Y:00 P:26 SP:FF CYC:201 SL:120
C7A8  AD 02 20  LDA $2002 = FF                  A:00 X:FF Y:00 P:26 SP:FF CYC:210 SL:120
C7AB  29 80     AND #$80                        A:10 X:FF Y:00 P:24 SP:FF CYC:222 SL:120
C7AD  F0 F9     BEQ $C7A8                       A:00 X:FF Y:00 P:26 SP:FF CYC:228 SL:120
C7A8  AD 02 20  LDA $2002 = FF                  A:00 X:FF Y:00 P:26 SP:FF CYC:237 SL:120
C7AB  29 80     AND #$80                        A:10 X:FF Y:00 P:24 SP:FF CYC:249 SL:120
C7AD  F0 F9     BEQ $C7A8                       A:00 X:FF Y:00 P:26 SP:FF CYC:255 SL:120
C7A8  AD 02 20  LDA $2002 = FF                  A:00 X:FF Y:00 P:26 SP:FF CYC:264 SL:120
C7AB  29 80     AND #$80                        A:10 X:FF Y:00 P:24 SP:FF CYC:276 SL:120
C7AD  F0 F9     BEQ $C7A8                       A:00 X:FF Y:00 P:26 SP:FF CYC:282 SL:120
C7A8  AD 02 20  LDA $2002 = FF                  A:00 X:FF Y:00 P:26 SP:FF CYC:291 SL:120
C7AB  29 80     AND #$80                        A:10 X:FF Y:00 P:24 SP:FF CYC:303 SL:120
C7AD  F0 F9     BEQ $C7A8                       A:00 X:FF Y:00 P:26 SP:FF CYC:309 SL:120
C7A8  AD 02 20  LDA $2002 = FF                  A:00 X:FF Y:00 P:26 SP:FF CYC:318 SL:120
C7AB  29 80     AND #$80                        A:10 X:FF Y:00 P:24 SP:FF CYC:330 SL:120
C7AD  F0 F9     BEQ $C7A8                       A:00 X:FF Y:00 P:26 SP:FF CYC:336 SL:120
C7A8  AD 02 20  LDA $2002 = FF                  A:00 X:FF Y:00 P:26 SP:FF CYC:  4 SL:121
C7AB  29 80     AND #$80                        A:10 X:FF Y:00 P:24 SP:FF CYC: 16 SL:121
C7AD  F0 F9     BEQ $C7A8                       A:00 X:FF Y:00 P:26 SP:FF CYC: 22 SL:121
C7A8  AD 02 20  LDA $2002 = FF                  A:00 X:FF Y:00 P:26 SP:FF CYC: 31 SL:121
C7AB  29 80     AND #$80                        A:10 X:FF Y:00 P:24 SP:FF CYC: 43 SL:121
C7AD  F0 F9     BEQ $C7A8                       A:00 X:FF Y:00 P:26 SP:FF CYC: 49 SL:121
C7A8  AD 02 20  LDA $2002 = FF                  A:00 X:FF Y:00 P:26 SP:FF CYC: 58 SL:121
C7AB  29 80     AND #$80                        A:10 X:FF Y:00 P:24 SP:FF CYC: 70 SL:121
C7AD  F0 F9     BEQ $C7A8                       A:00 X:FF Y:00 P:26 SP:FF CYC: 76 SL:121
C7A8  AD 02 20  LDA $2002 = FF                  A:00 X:FF Y:00 P:26 SP:FF CYC: 85 SL:121
C7AB  29 80     AND #$80                        A:10 X:FF Y:00 P:24 SP:FF CYC: 97 SL:121
C7AD  F0 F9     BEQ $C7A8                       A:00 X:FF Y:00 P:26 SP:FF CYC:103 SL:121
C7A8  AD 02 20  LDA $2002 = FF                  A:00 X:FF Y:00 P:26 SP:FF CYC:112 SL:121
C7AB  29 80     AND #$80                        A:10 X:FF Y:00 P:24 SP:FF CYC:124 SL:121
C7AD  F0 F9     BEQ $C7A8                       A:00 X:FF Y:00 P:26 SP:FF CYC:130 SL:121
C7A8  AD 02 20  LDA $2002 = FF                  A:00 X:FF Y:00 P:26 SP:FF CYC:139 SL:121
C7AB  29 80     AND #$80                        A:10 X:FF Y:00 P:24 SP:FF CYC:151 SL:121
C7AD  F0 F9     BEQ $C7A8                       A:00 X:FF Y:00 P:26 SP:FF CYC:157 SL:121
C7A8  AD 02 20  LDA $2002 = FF                  A:00 X:FF Y:00 P:26 SP:FF CYC:166 SL:121
C7AB  29 80     AND #$80                        A:10 X:FF Y:00 P:24 SP:FF CYC:178 SL:121
C7AD  F0 F9     BEQ $C7A8                       A:00 X:FF Y:00 P:26 SP:FF CYC:184 SL:121
C7A8  AD 02 20  LDA $2002 = FF                  A:00 X:FF Y:00 P:26 SP:FF CYC:193 SL:121
C7AB  29 80     AND #$80                        A:10 X:FF Y:00 P:24 SP:FF CYC:205 SL:121
C7AD  F0 F9     BEQ $C7A8                       A:00 X:FF Y:00 P:26 SP:FF CYC:211 SL:121
C7A8  AD 02 20  LDA $2002 = FF                  A:00 X:FF Y:00 P:26 SP:FF CYC:220 SL:121
C7AB  29 80     AND #$80                        A:10 X:FF Y:00 P:24 SP:FF CYC:232 SL:121
C7AD  F0 F9     BEQ $C7A8                       A:00 X:FF Y:00 P:26 SP:FF CYC:238 SL:121
C7A8  AD 02 20  LDA $2002 = FF                  A:00 X:FF Y:00 P:26 SP:FF CYC:247 SL:121
C7AB  29 80     AND #$80                        A:10 X:FF Y:00 P:24 SP:FF CYC:259 SL:121
C7AD  F0 F9     BEQ $C7A8                       A:00 X:FF Y:00 P:26 SP:FF CYC:265 SL:121
C7A8  AD 02 20  LDA $2002 = FF                  A:00 X:FF Y:00 P:26 SP:FF CYC:274 SL:121
C7AB  29 80     AND #$80                        A:10 X:FF Y:00 P:24 SP:FF CYC:286 SL:121
C7AD  F0 F9     BEQ $C7A8                       A:00 X:FF Y:00 P:26 SP:FF CYC:292 SL:121
C7A8  AD 02 20  LDA $2002 = FF                  A:00 X:FF Y:00 P:26 SP:FF CYC:301 SL:121
C7AB  29 80     AND #$80                        A:10 X:FF Y:00 P:24 SP:FF CYC:313 SL:121
C7AD  F0 F9     BEQ $C7A8                       A:00 X:FF Y:00 P:26 SP:FF CYC:319 SL:121
C7A8  AD 02 20  LDA $2002 = FF                  A:00 X:FF Y:00 P:26 SP:FF CYC:328 SL:121
C7AB  29 80     AND #$80                        A:10 X:FF Y:00 P:24 SP:FF CYC:340 SL:121
C7AD  F0 F9     BEQ $C7A8                       A:00 X:FF Y:00 P:26 SP:FF CYC:  5 SL:122
C7A8  AD 02 20  LDA $2002 = FF                  A:00 X:FF Y:00 P:26 SP:FF CYC: 14 SL:122
C7AB  29 80     AND #$80                        A:10 X:FF Y:00 P:24 SP:FF CYC: 26 SL:122
C7AD  F0 F9     BEQ $C7A8                       A:00 X:FF Y:00 P:26 SP:FF CYC: 32 SL:122
C7A8  AD 02 20  LDA $2002 = FF                  A:00 X:FF Y:00 P:26 SP:FF CYC: 41 SL:122
C7AB  29 80     AND #$80                        A:10 X:FF Y:00 P:24 SP:FF CYC: 53 SL:122
C7AD  F0 F9     BEQ $C7A8                       A:00 X:FF Y:00 P:26 SP:FF CYC: 59 SL:122
C7A8  AD 02 20  LDA $2002 = FF                  A:00 X:FF Y:00 P:26 SP:FF CYC: 68 SL:122
C7AB  29 80     AND #$80                        A:10 X:FF Y:00 P:24 SP:FF CYC: 80 SL:122
C7AD  F0 F9     BEQ $C7A8                       A:00 X:FF Y:00 P:26 SP:FF CYC: 86 SL:122
C7A8  AD 02 20  LDA $2002 = FF                  A:00 X:FF Y:00 P:26 SP:FF CYC: 95 SL:122
C7AB  29 80     AND #$80                        A:10 X:FF Y:00 P:24 SP:FF CYC:107 SL:122
C7AD  F0 F9     BEQ $C7A8                       A:00 X:FF Y:00 P:26 SP:FF CYC:113 SL:122
C7A8  AD 02 20  LDA $2002 = FF                  A:00 X:FF Y:00 P:26 SP:FF CYC:122 SL:122
C7AB  29 80     AND #$80                        A:10 X:FF Y:00 P:24 SP:FF CYC:134 SL:122
C7AD  F0 F9     BEQ $C7A8                       A:00 X:FF Y:00 P:26 SP:FF CYC:140 SL:122
C7A8  AD 02 20  LDA $2002 = FF                  A:00 X:FF Y:00 P:26 SP:FF CYC:149 SL:122
C7AB  29 80     AND #$80                        A:10 X:FF Y:00 P:24 SP:FF CYC:161 SL:122
C7AD  F0 F9     BEQ $C7A8                       A:00 X:FF Y:00 P:26 SP:FF CYC:167 SL:122
C7A8  AD 02 20  LDA $2002 = FF                  A:00 X:FF Y:00 P:26 SP:FF CYC:176 SL:122
C7AB  29 80     AND #$80                        A:10 X:FF Y:00 P:24 SP:FF CYC:188 SL:122
C7AD  F0 F9     BEQ $C7A8                       A:00 X:FF Y:00 P:26 SP:FF CYC:194 SL:122
C7A8  AD 02 20  LDA $2002 = FF                  A:00 X:FF Y:00 P:26 SP:FF CYC:203 SL:122
C7AB  29 80     AND #$80                        A:10 X:FF Y:00 P:24 SP:FF CYC:215 SL:122
C7AD  F0 F9     BEQ $C7A8                       A:00 X:FF Y:00 P:26 SP:FF CYC:221 SL:122
C7A8  AD 02 20  LDA $2002 = FF                  A:00 X:FF Y:00 P:26 SP:FF CYC:230 SL:122
C7AB  29 80     AND #$80                        A:10 X:FF Y:00 P:24 SP:FF CYC:242 SL:122
C7AD  F0 F9     BEQ $C7A8                       A:00 X:FF Y:00 P:26 SP:FF CYC:248 SL:122
C7A8  AD 02 20  LDA $2002 = FF                  A:00 X:FF Y:00 P:26 SP:FF CYC:257 SL:122
C7AB  29 80     AND #$80                        A:10 X:FF Y:00 P:24 SP:FF CYC:269 SL:122
C7AD  F0 F9     BEQ $C7A8                       A:00 X:FF Y:00 P:26 SP:FF CYC:275 SL:122
C7A8  AD 02 20  LDA $2002 = FF                  A:00 X:FF Y:00 P:26 SP:FF CYC:284 SL:122
C7AB  29 80     AND #$80                        A:10 X:FF Y:00 P:24 SP:FF CYC:296 SL:122
C7AD  F0 F9     BEQ $C7A8                       A:00 X:FF Y:00 P:26 SP:FF CYC:302 SL:122
C7A8  AD 02 20  LDA $2002 = FF                  A:00 X:FF Y:00 P:26 SP:FF CYC:311 SL:122
C7AB  29 80     AND #$80                        A:10 X:FF Y:00 P:24 SP:FF CYC:323 SL:122
C7AD  F0 F9     BEQ $C7A8                       A:00 X:FF Y:00 P:26 SP:FF CYC:329 SL:122
C7A8  AD 02 20  LDA $2002 = FF                  A:00 X:FF Y:00 P:26 SP:FF CYC:338 SL:122
C7AB  29 80     AND #$80                        A:10 X:FF Y:00 P:24 SP:FF CYC:  9 SL:123
C7AD  F0 F9     BEQ $C7A8                       A:00 X:FF Y:00 P:26 SP:FF CYC: 15 SL:123
C7A8  AD 02 20  LDA $2002 = FF                  A:00 X:FF Y:00 P:26 SP:FF CYC: 24 SL:123
C7AB  29 80     AND #$80                        A:10 X:FF Y:00 P:24 SP:FF CYC: 36 SL:123
C7AD  F0 F9     BEQ $C7A8                       A:00 X:FF Y:00 P:26 SP:FF CYC: 42 SL:123
C7A8  AD 02 20  LDA $2002 = FF                  A:00 X:FF Y:00 P:26 SP:FF CYC: 51 SL:123
C7AB  29 80     AND #$80                        A:10 X:FF Y:00 P:24 SP:FF CYC: 63 SL:123
C7AD  F0 F9     BEQ $C7A8                       A:00 X:FF Y:00 P:26 SP:FF CYC: 69 SL:123
C7A8  AD 02 20  LDA $2002 = FF                  A:00 X:FF Y:00 P:26 SP:FF CYC: 78 SL:123
C7AB  29 80     AND #$80                        A:10 X:FF Y:00 P:24 SP:FF CYC: 90 SL:123
C7AD  F0 F9     BEQ $C7A8                       A:00 X:FF Y:00 P:26 SP:FF CYC: 96 SL:123
C7A8  AD 02 20  LDA $2002 = FF                  A:00 X:FF Y:00 P:26 SP:FF CYC:105 SL:123
C7AB  29 80     AND #$80                        A:10 X:FF Y:00 P:24 SP:FF CYC:117 SL:123
C7AD  F0 F9     BEQ $C7A8                       A:00 X:FF Y:00 P:26 SP:FF CYC:123 SL:123
C7A8  AD 02 20  LDA $2002 = FF                  A:00 X:FF Y:00 P:26 SP:FF CYC:132 SL:123
C7AB  29 80     AND #$80                        A:10 X:FF Y:00 P:24 SP:FF CYC:144 SL:123
C7AD  F0 F9     BEQ $C7A8                       A:00 X:FF Y:00 P:26 SP:FF CYC:150 SL:123
C7A8  AD 02 20  LDA $2002 = FF                  A:00 X:FF Y:00 P:26 SP:FF CYC:159 SL:123
C7AB  29 80     AND #$80                        A:10 X:FF Y:00 P:24 SP:FF CYC:171 SL:123
C7AD  F0 F9     BEQ $C7A8                       A:00 X:FF Y:00 P:26 SP:FF CYC:177 SL:123
C7A8  AD 02 20  LDA $2002 = FF                  A:00 X:FF Y:00 P:26 SP:FF CYC:186 SL:123
C7AB  29 80     AND #$80                        A:10 X:FF Y:00 P:24 SP:FF CYC:198 SL:123
C7AD  F0 F9     BEQ $C7A8                       A:00 X:FF Y:00 P:26 SP:FF CYC:204 SL:123
C7A8  AD 02 20  LDA $2002 = FF                  A:00 X:FF Y:00 P:26 SP:FF CYC:213 SL:123
C7AB  29 80     AND #$80                        A:10 X:FF Y:00 P:24 SP:FF CYC:225 SL:123
C7AD  F0 F9     BEQ $C7A8                       A:00 X:FF Y:00 P:26 SP:FF CYC:231 SL:123
C7A8  AD 02 20  LDA $2002 = FF                  A:00 X:FF Y:00 P:26 SP:FF CYC:240 SL:123
C7AB  29 80     AND #$80                        A:10 X:FF Y:00 P:24 SP:FF CYC:252 SL:123
C7AD  F0 F9     BEQ $C7A8                       A:00 X:FF Y:00 P:26 SP:FF CYC:258 SL:123
C7A8  AD 02 20  LDA $2002 = FF                  A:00 X:FF Y:00 P:26 SP:FF CYC:267 SL:123
C7AB  29 80     AND #$80                        A:10 X:FF Y:00 P:24 SP:FF CYC:279 SL:123
C7AD  F0 F9     BEQ $C7A8                       A:00 X:FF Y:00 P:26 SP:FF CYC:285 SL:123
C7A8  AD 02 20  LDA $2002 = FF                  A:00 X:FF Y:00 P:26 SP:FF CYC:294 SL:123
C7AB  29 80     AND #$80                        A:10 X:FF Y:00 P:24 SP:FF CYC:306 SL:123
C7AD  F0 F9     BEQ $C7A8                       A:00 X:FF Y:00 P:26 SP:FF CYC:312 SL:123
C7A8  AD 02 20  LDA $2002 = FF                  A:00 X:FF Y:00 P:26 SP:FF CYC:321 SL:123
C7AB  29 80     AND #$80                        A:10 X:FF Y:00 P:24 SP:FF CYC:333 SL:123
C7AD  F0 F9     BEQ $C7A8                       A:00 X:FF Y:00 P:26 SP:FF CYC:339 SL:123
C7A8  AD 02 20  LDA $2002 = FF                  A:00 X:FF Y:00 P:26 SP:FF CYC:  7 SL:124
C7AB  29 80     AND #$80                        A:10 X:FF Y:00 P:24 SP:FF CYC: 19 SL:124
C7AD  F0 F9     BEQ $C7A8                       A:00 X:FF Y:00 P:26 SP:FF CYC: 25 SL:124
C7A8  AD 02 20  LDA $2002 = FF                  A:00 X:FF Y:00 P:26 SP:FF CYC: 34 SL:124
C7AB  29 80     AND #$80                        A:10 X:FF Y:00 P:24 SP:FF CYC: 46 SL:124
C7AD  F0 F9     BEQ $C7A8                       A:00 X:FF Y:00 P:26 SP:FF CYC: 52 SL:124
C7A8  AD 02 20  LDA $2002 = FF                  A:00 X:FF Y:00 P:26 SP:FF CYC: 61 SL:124
C7AB  29 80     AND #$80                        A:10 X:FF Y:00 P:24 SP:FF CYC: 73 SL:124
C7AD  F0 F9     BEQ $C7A8                       A:00 X:FF Y:00 P:26 SP:FF CYC: 79 SL:124
C7A8  AD 02 20  LDA $2002 = FF                  A:00 X:FF Y:00 P:26 SP:FF CYC: 88 SL:124
C7AB  29 80     AND #$80                        A:10 X:FF Y:00 P:24 SP:FF CYC:100 SL:124
C7AD  F0 F9     BEQ $C7A8                       A:00 X:FF Y:00 P:26 SP:FF CYC:106 SL:124
C7A8  AD 02 20  LDA $2002 = FF                  A:00 X:FF Y:00 P:26 SP:FF CYC:115 SL:124
C7AB  29 80     AND #$80                        A:10 X:FF Y:00 P:24 SP:FF CYC:127 SL:124
C7AD  F0 F9     BEQ $C7A8                       A:00 X:FF Y:00 P:26 SP:FF CYC:133 SL:124
C7A8  AD 02 20  LDA $2002 = FF                  A:00 X:FF Y:00 P:26 SP:FF CYC:142 SL:124
C7AB  29 80     AND #$80                        A:10 X:FF Y:00 P:24 SP:FF CYC:154 SL:124
C7AD  F0 F9     BEQ $C7A8                       A:00 X:FF Y:00 P:26 SP:FF CYC:160 SL:124
C7A8  AD 02 20  LDA $2002 = FF                  A:00 X:FF Y:00 P:26 SP:FF CYC:169 SL:124
C7AB  29 80     AND #$80                        A:10 X:FF Y:00 P:24 SP:FF CYC:181 SL:124
C7AD  F0 F9     BEQ $C7A8                       A:00 X:FF Y:00 P:26 SP:FF CYC:187 SL:124
C7A8  AD 02 20  LDA $2002 = FF                  A:00 X:FF Y:00 P:26 SP:FF CYC:196 SL:124
C7AB  29 80     AND #$80                        A:10 X:FF Y:00 P:24 SP:FF CYC:208 SL:124
C7AD  F0 F9     BEQ $C7A8                       A:00 X:FF Y:00 P:26 SP:FF CYC:214 SL:124
C7A8  AD 02 20  LDA $2002 = FF                  A:00 X:FF Y:00 P:26 SP:FF CYC:223 SL:124
C7AB  29 80     AND #$80                        A:10 X:FF Y:00 P:24 SP:FF CYC:235 SL:124
C7AD  F0 F9     BEQ $C7A8                       A:00 X:FF Y:00 P:26 SP:FF CYC:241 SL:124
C7A8  AD 02 20  LDA $2002 = FF                  A:00 X:FF Y:00 P:26 SP:FF CYC:250 SL:124
C7AB  29 80     AND #$80                        A:10 X:FF Y:00 P:24 SP:FF CYC:262 SL:124
C7AD  F0 F9     BEQ $C7A8                       A:00 X:FF Y:00 P:26 SP:FF CYC:268 SL:124
C7A8  AD 02 20  LDA $2002 = FF                  A:00 X:FF Y:00 P:26 SP:FF CYC:277 SL:124
C7AB  29 80     AND #$80                        A:10 X:FF Y:00 P:24 SP:FF CYC:289 SL:124
C7AD  F0 F9     BEQ $C7A8                       A:00 X:FF Y:00 P:26 SP:FF CYC:295 SL:124
C7A8  AD 02 20  LDA $2002 = FF                  A:00 X:FF Y:00 P:26 SP:FF CYC:304 SL:124
C7AB  29 80     AND #$80                        A:10 X:FF Y:00 P:24 SP:FF CYC:316 SL:124
C7AD  F0 F9     BEQ $C7A8                       A:00 X:FF Y:00 P:26 SP:FF CYC:322 SL:124
C7A8  AD 02 20  LDA $2002 = FF                  A:00 X:FF Y:00 P:26 SP:FF CYC:331 SL:124
C7AB  29 80     AND #$80                        A:10 X:FF Y:00 P:24 SP:FF CYC:  2 SL:125
C7AD  F0 F9     BEQ $C7A8                       A:00 X:FF Y:00 P:26 SP:FF CYC:  8 SL:125
C7A8  AD 02 20  LDA $2002 = FF                  A:00 X:FF Y:00 P:26 SP:FF CYC: 17 SL:125
C7AB  29 80     AND #$80                        A:10 X:FF Y:00 P:24 SP:FF CYC: 29 SL:125
C7AD  F0 F9     BEQ $C7A8                       A:00 X:FF Y:00 P:26 SP:FF CYC: 35 SL:125
C7A8  AD 02 20  LDA $2002 = FF                  A:00 X:FF Y:00 P:26 SP:FF CYC: 44 SL:125
C7AB  29 80     AND #$80                        A:10 X:FF Y:00 P:24 SP:FF CYC: 56 SL:125
C7AD  F0 F9     BEQ $C7A8                       A:00 X:FF Y:00 P:26 SP:FF CYC: 62 SL:125
C7A8  AD 02 20  LDA $2002 = FF                  A:00 X:FF Y:00 P:26 SP:FF CYC: 71 SL:125
C7AB  29 80     AND #$80                        A:10 X:FF Y:00 P:24 SP:FF CYC: 83 SL:125
C7AD  F0 F9     BEQ $C7A8                       A:00 X:FF Y:00 P:26 SP:FF CYC: 89 SL:125
C7A8  AD 02 20  LDA $2002 = FF                  A:00 X:FF Y:00 P:26 SP:FF CYC: 98 SL:125
C7AB  29 80     AND #$80                        A:10 X:FF Y:00 P:24 SP:FF CYC:110 SL:125
C7AD  F0 F9     BEQ $C7A8                       A:00 X:FF Y:00 P:26 SP:FF CYC:116 SL:125
C7A8  AD 02 20  LDA $2002 = FF                  A:00 X:FF Y:00 P:26 SP:FF CYC:125 SL:125
C7AB  29 80     AND #$80                        A:10 X:FF Y:00 P:24 SP:FF CYC:137 SL:125
C7AD  F0 F9     BEQ $C7A8                       A:00 X:FF Y:00 P:26 SP:FF CYC:143 SL:125
C7A8  AD 02 20  LDA $2002 = FF                  A:00 X:FF Y:00 P:26 SP:FF CYC:152 SL:125
C7AB  29 80     AND #$80                        A:10 X:FF Y:00 P:24 SP:FF CYC:164 SL:125
C7AD  F0 F9     BEQ $C7A8                       A:00 X:FF Y:00 P:26 SP:FF CYC:170 SL:125
C7A8  AD 02 20  LDA $2002 = FF                  A:00 X:FF Y:00 P:26 SP:FF CYC:179 SL:125
C7AB  29 80     AND #$80                        A:10 X:FF Y:00 P:24 SP:FF CYC:191 SL:125
C7AD  F0 F9     BEQ $C7A8                       A:00 X:FF Y:00 P:26 SP:FF CYC:197 SL:125
C7A8  AD 02 20  LDA $2002 = FF                  A:00 X:FF Y:00 P:26 SP:FF CYC:206 SL:125
C7AB  29 80     AND #$80                        A:10 X:FF Y:00 P:24 SP:FF CYC:218 SL:125
C7AD  F0 F9     BEQ $C7A8                       A:00 X:FF Y:00 P:26 SP:FF CYC:224 SL:125
C7A8  AD 02 20  LDA $2002 = FF                  A:00 X:FF Y:00 P:26 SP:FF CYC:233 SL:125
C7AB  29 80     AND #$80                        A:10 X:FF Y:00 P:24 SP:FF CYC:245 SL:125
C7AD  F0 F9     BEQ $C7A8                       A:00 X:FF Y:00 P:26 SP:FF CYC:251 SL:125
C7A8  AD 02 20  LDA $2002 = FF                  A:00 X:FF Y:00 P:26 SP:FF CYC:260 SL:125
C7AB  29 80     AND #$80                        A:10 X:FF Y:00 P:24 SP:FF CYC:272 SL:125
C7AD  F0 F9     BEQ $C7A8                       A:00 X:FF Y:00 P:26 SP:FF CYC:278 SL:125
C7A8  AD 02 20  LDA $2002 = FF                  A:00 X:FF Y:00 P:26 SP:FF CYC:287 SL:125
C7AB  29 80     AND #$80                        A:10 X:FF Y:00 P:24 SP:FF CYC:299 SL:125
C7AD  F0 F9     BEQ $C7A8                       A:00 X:FF Y:00 P:26 SP:FF CYC:305 SL:125
C7A8  AD 02 20  LDA $2002 = FF                  A:00 X:FF Y:00 P:26 SP:FF CYC:314 SL:125
C7AB  29 80     AND #$80                        A:10 X:FF Y:00 P:24 SP:FF CYC:326 SL:125
C7AD  F0 F9     BEQ $C7A8                       A:00 X:FF Y:00 P:26 SP:FF CYC:332 SL:125
C7A8  AD 02 20  LDA $2002 = FF                  A:00 X:FF Y:00 P:26 SP:FF CYC:  0 SL:126
C7AB  29 80     AND #$80                        A:10 X:FF Y:00 P:24 SP:FF CYC: 12 SL:126
C7AD  F0 F9     BEQ $C7A8                       A:00 X:FF Y:00 P:26 SP:FF CYC: 18 SL:126
C7A8  AD 02 20  LDA $2002 = FF                  A:00 X:FF Y:00 P:26 SP:FF CYC: 27 SL:126
C7AB  29 80     AND #$80                        A:10 X:FF Y:00 P:24 SP:FF CYC: 39 SL:126
C7AD  F0 F9     BEQ $C7A8                       A:00 X:FF Y:00 P:26 SP:FF CYC: 45 SL:126
C7A8  AD 02 20  LDA $2002 = FF                  A:00 X:FF Y:00 P:26 SP:FF CYC: 54 SL:126
C7AB  29 80     AND #$80                        A:10 X:FF Y:00 P:24 SP:FF CYC: 66 SL:126
C7AD  F0 F9     BEQ $C7A8                       A:00 X:FF Y:00 P:26 SP:FF CYC: 72 SL:126
C7A8  AD 02 20  LDA $2002 = FF                  A:00 X:FF Y:00 P:26 SP:FF CYC: 81 SL:126
C7AB  29 80     AND #$80                        A:10 X:FF Y:00 P:24 SP:FF CYC: 93 SL:126
C7AD  F0 F9     BEQ $C7A8                       A:00 X:FF Y:00 P:26 SP:FF CYC: 99 SL:126
C7A8  AD 02 20  LDA $2002 = FF                  A:00 X:FF Y:00 P:26 SP:FF CYC:108 SL:126
C7AB  29 80     AND #$80                        A:10 X:FF Y:00 P:24 SP:FF CYC:120 SL:126
C7AD  F0 F9     BEQ $C7A8                       A:00 X:FF Y:00 P:26 SP:FF CYC:126 SL:126
C7A8  AD 02 20  LDA $2002 = FF                  A:00 X:FF Y:00 P:26 SP:FF CYC:135 SL:126
C7AB  29 80     AND #$80                        A:10 X:FF Y:00 P:24 SP:FF CYC:147 SL:126
C7AD  F0 F9     BEQ $C7A8                       A:00 X:FF Y:00 P:26 SP:FF CYC:153 SL:126
C7A8  AD 02 20  LDA $2002 = FF                  A:00 X:FF Y:00 P:26 SP:FF CYC:162 SL:126
C7AB  29 80     AND #$80                        A:10 X:FF Y:00 P:24 SP:FF CYC:174 SL:126
C7AD  F0 F9     BEQ $C7A8                       A:00 X:FF Y:00 P:26 SP:FF CYC:180 SL:126
C7A8  AD 02 20  LDA $2002 = FF                  A:00 X:FF Y:00 P:26 SP:FF CYC:189 SL:126
C7AB  29 80     AND #$80                        A:10 X:FF Y:00 P:24 SP:FF CYC:201 SL:126
C7AD  F0 F9     BEQ $C7A8                       A:00 X:FF Y:00 P:26 SP:FF CYC:207 SL:126
C7A8  AD 02 20  LDA $2002 = FF                  A:00 X:FF Y:00 P:26 SP:FF CYC:216 SL:126
C7AB  29 80     AND #$80                        A:10 X:FF Y:00 P:24 SP:FF CYC:228 SL:126
C7AD  F0 F9     BEQ $C7A8                       A:00 X:FF Y:00 P:26 SP:FF CYC:234 SL:126
C7A8  AD 02 20  LDA $2002 = FF                  A:00 X:FF Y:00 P:26 SP:FF CYC:243 SL:126
C7AB  29 80     AND #$80                        A:10 X:FF Y:00 P:24 SP:FF CYC:255 SL:126
C7AD  F0 F9     BEQ $C7A8                       A:00 X:FF Y:00 P:26 SP:FF CYC:261 SL:126
C7A8  AD 02 20  LDA $2002 = FF                  A:00 X:FF Y:00 P:26 SP:FF CYC:270 SL:126
C7AB  29 80     AND #$80                        A:10 X:FF Y:00 P:24 SP:FF CYC:282 SL:126
C7AD  F0 F9     BEQ $C7A8                       A:00 X:FF Y:00 P:26 SP:FF CYC:288 SL:126
C7A8  AD 02 20  LDA $2002 = FF                  A:00 X:FF Y:00 P:26 SP:FF CYC:297 SL:126
C7AB  29 80     AND #$80                        A:10 X:FF Y:00 P:24 SP:FF CYC:309 SL:126
C7AD  F0 F9     BEQ $C7A8                       A:00 X:FF Y:00 P:26 SP:FF CYC:315 SL:126
C7A8  AD 02 20  LDA $2002 = FF                  A:00 X:FF Y:00 P:26 SP:FF CYC:324 SL:126
C7AB  29 80     AND #$80                        A:10 X:FF Y:00 P:24 SP:FF CYC:336 SL:126
C7AD  F0 F9     BEQ $C7A8                       A:00 X:FF Y:00 P:26 SP:FF CYC:  1 SL:127
C7A8  AD 02 20  LDA $2002 = FF                  A:00 X:FF Y:00 P:26 SP:FF CYC: 10 SL:127
C7AB  29 80     AND #$80                        A:10 X:FF Y:00 P:24 SP:FF CYC: 22 SL:127
C7AD  F0 F9     BEQ $C7A8                       A:00 X:FF Y:00 P:26 SP:FF CYC: 28 SL:127
C7A8  AD 02 20  LDA $2002 = FF                  A:00 X:FF Y:00 P:26 SP:FF CYC: 37 SL:127
C7AB  29 80     AND #$80                        A:10 X:FF Y:00 P:24 SP:FF CYC: 49 SL:127
C7AD  F0 F9     BEQ $C7A8                       A:00 X:FF Y:00 P:26 SP:FF CYC: 55 SL:127
C7A8  AD 02 20  LDA $2002 = FF                  A:00 X:FF Y:00 P:26 SP:FF CYC: 64 SL:127
C7AB  29 80     AND #$80                        A:10 X:FF Y:00 P:24 SP:FF CYC: 76 SL:127
C7AD  F0 F9     BEQ $C7A8                       A:00 X:FF Y:00 P:26 SP:FF CYC: 82 SL:127
C7A8  AD 02 20  LDA $2002 = FF                  A:00 X:FF Y:00 P:26 SP:FF CYC: 91 SL:127
C7AB  29 80     AND #$80                        A:10 X:FF Y:00 P:24 SP:FF CYC:103 SL:127
C7AD  F0 F9     BEQ $C7A8                       A:00 X:FF Y:00 P:26 SP:FF CYC:109 SL:127
C7A8  AD 02 20  LDA $2002 = FF                  A:00 X:FF Y:00 P:26 SP:FF CYC:118 SL:127
C7AB  29 80     AND #$80                        A:10 X:FF Y:00 P:24 SP:FF CYC:130 SL:127
C7AD  F0 F9     BEQ $C7A8                       A:00 X:FF Y:00 P:26 SP:FF CYC:136 SL:127
C7A8  AD 02 20  LDA $2002 = FF                  A:00 X:FF Y:00 P:26 SP:FF CYC:145 SL:127
C7AB  29 80     AND #$80                        A:10 X:FF Y:00 P:24 SP:FF CYC:157 SL:127
C7AD  F0 F9     BEQ $C7A8                       A:00 X:FF Y:00 P:26 SP:FF CYC:163 SL:127
C7A8  AD 02 20  LDA $2002 = FF                  A:00 X:FF Y:00 P:26 SP:FF CYC:172 SL:127
C7AB  29 80     AND #$80                        A:10 X:FF Y:00 P:24 SP:FF CYC:184 SL:127
C7AD  F0 F9     BEQ $C7A8                       A:00 X:FF Y:00 P:26 SP:FF CYC:190 SL:127
C7A8  AD 02 20  LDA $2002 = FF                  A:00 X:FF Y:00 P:26 SP:FF CYC:199 SL:127
C7AB  29 80     AND #$80                        A:10 X:FF Y:00 P:24 SP:FF CYC:211 SL:127
C7AD  F0 F9     BEQ $C7A8                       A:00 X:FF Y:00 P:26 SP:FF CYC:217 SL:127
C7A8  AD 02 20  LDA $2002 = FF                  A:00 X:FF Y:00 P:26 SP:FF CYC:226 SL:127
C7AB  29 80     AND #$80                        A:10 X:FF Y:00 P:24 SP:FF CYC:238 SL:127
C7AD  F0 F9     BEQ $C7A8                       A:00 X:FF Y:00 P:26 SP:FF CYC:244 SL:127
C7A8  AD 02 20  LDA $2002 = FF                  A:00 X:FF Y:00 P:26 SP:FF CYC:253 SL:127
C7AB  29 80     AND #$80                        A:10 X:FF Y:00 P:24 SP:FF CYC:265 SL:127
C7AD  F0 F9     BEQ $C7A8                       A:00 X:FF Y:00 P:26 SP:FF CYC:271 SL:127
C7A8  AD 02 20  LDA $2002 = FF                  A:00 X:FF Y:00 P:26 SP:FF CYC:280 SL:127
C7AB  29 80     AND #$80                        A:10 X:FF Y:00 P:24 SP:FF CYC:292 SL:127
C7AD  F0 F9     BEQ $C7A8                       A:00 X:FF Y:00 P:26 SP:FF CYC:298 SL:127
C7A8  AD 02 20  LDA $2002 = FF                  A:00 X:FF Y:00 P:26 SP:FF CYC:307 SL:127
C7AB  29 80     AND #$80                        A:10 X:FF Y:00 P:24 SP:FF CYC:319 SL:127
C7AD  F0 F9     BEQ $C7A8                       A:00 X:FF Y:00 P:26 SP:FF CYC:325 SL:127
C7A8  AD 02 20  LDA $2002 = FF                  A:00 X:FF Y:00 P:26 SP:FF CYC:334 SL:127
C7AB  29 80     AND #$80                        A:10 X:FF Y:00 P:24 SP:FF CYC:  5 SL:128
C7AD  F0 F9     BEQ $C7A8                       A:00 X:FF Y:00 P:26 SP:FF CYC: 11 SL:128
C7A8  AD 02 20  LDA $2002 = FF                  A:00 X:FF Y:00 P:26 SP:FF CYC: 20 SL:128
C7AB  29 80     AND #$80                        A:10 X:FF Y:00 P:24 SP:FF CYC: 32 SL:128
C7AD  F0 F9     BEQ $C7A8                       A:00 X:FF Y:00 P:26 SP:FF CYC: 38 SL:128
C7A8  AD 02 20  LDA $2002 = FF                  A:00 X:FF Y:00 P:26 SP:FF CYC: 47 SL:128
C7AB  29 80     AND #$80                        A:10 X:FF Y:00 P:24 SP:FF CYC: 59 SL:128
C7AD  F0 F9     BEQ $C7A8                       A:00 X:FF Y:00 P:26 SP:FF CYC: 65 SL:128
C7A8  AD 02 20  LDA $2002 = FF                  A:00 X:FF Y:00 P:26 SP:FF CYC: 74 SL:128
C7AB  29 80     AND #$80                        A:10 X:FF Y:00 P:24 SP:FF CYC: 86 SL:128
C7AD  F0 F9     BEQ $C7A8                       A:00 X:FF Y:00 P:26 SP:FF CYC: 92 SL:128
C7A8  AD 02 20  LDA $2002 = FF                  A:00 X:FF Y:00 P:26 SP:FF CYC:101 SL:128
C7AB  29 80     AND #$80                        A:10 X:FF Y:00 P:24 SP:FF CYC:113 SL:128
C7AD  F0 F9     BEQ $C7A8                       A:00 X:FF Y:00 P:26 SP:FF CYC:119 SL:128
C7A8  AD 02 20  LDA $2002 = FF                  A:00 X:FF Y:00 P:26 SP:FF CYC:128 SL:128
C7AB  29 80     AND #$80                        A:10 X:FF Y:00 P:24 SP:FF CYC:140 SL:128
C7AD  F0 F9     BEQ $C7A8                       A:00 X:FF Y:00 P:26 SP:FF CYC:146 SL:128
C7A8  AD 02 20  LDA $2002 = FF                  A:00 X:FF Y:00 P:26 SP:FF CYC:155 SL:128
C7AB  29 80     AND #$80                        A:10 X:FF Y:00 P:24 SP:FF CYC:167 SL:128
C7AD  F0 F9     BEQ $C7A8                       A:00 X:FF Y:00 P:26 SP:FF CYC:173 SL:128
C7A8  AD 02 20  LDA $2002 = FF                  A:00 X:FF Y:00 P:26 SP:FF CYC:182 SL:128
C7AB  29 80     AND #$80                        A:10 X:FF Y:00 P:24 SP:FF CYC:194 SL:128
C7AD  F0 F9     BEQ $C7A8                       A:00 X:FF Y:00 P:26 SP:FF CYC:200 SL:128
C7A8  AD 02 20  LDA $2002 = FF                  A:00 X:FF Y:00 P:26 SP:FF CYC:209 SL:128
C7AB  29 80     AND #$80                        A:10 X:FF Y:00 P:24 SP:FF CYC:221 SL:128
C7AD  F0 F9     BEQ $C7A8                       A:00 X:FF Y:00 P:26 SP:FF CYC:227 SL:128
C7A8  AD 02 20  LDA $2002 = FF                  A:00 X:FF Y:00 P:26 SP:FF CYC:236 SL:128
C7AB  29 80     AND #$80                        A:10 X:FF Y:00 P:24 SP:FF CYC:248 SL:128
C7AD  F0 F9     BEQ $C7A8                       A:00 X:FF Y:00 P:26 SP:FF CYC:254 SL:128
C7A8  AD 02 20  LDA $2002 = FF                  A:00 X:FF Y:00 P:26 SP:FF CYC:263 SL:128
C7AB  29 80     AND #$80                        A:10 X:FF Y:00 P:24 SP:FF CYC:275 SL:128
C7AD  F0 F9     BEQ $C7A8                       A:00 X:FF Y:00 P:26 SP:FF CYC:281 SL:128
C7A8  AD 02 20  LDA $2002 = FF                  A:00 X:FF Y:00 P:26 SP:FF CYC:290 SL:128
C7AB  29 80     AND #$80                        A:10 X:FF Y:00 P:24 SP:FF CYC:302 SL:128
C7AD  F0 F9     BEQ $C7A8                       A:00 X:FF Y:00 P:26 SP:FF CYC:308 SL:128
C7A8  AD 02 20  LDA $2002 = FF                  A:00 X:FF Y:00 P:26 SP:FF CYC:317 SL:128
C7AB  29 80     AND #$80                        A:10 X:FF Y:00 P:24 SP:FF CYC:329 SL:128
C7AD  F0 F9     BEQ $C7A8                       A:00 X:FF Y:00 P:26 SP:FF CYC:335 SL:128
C7A8  AD 02 20  LDA $2002 = FF                  A:00 X:FF Y:00 P:26 SP:FF CYC:  3 SL:129
C7AB  29 80     AND #$80                        A:10 X:FF Y:00 P:24 SP:FF CYC: 15 SL:129
C7AD  F0 F9     BEQ $C7A8                       A:00 X:FF Y:00 P:26 SP:FF CYC: 21 SL:129
C7A8  AD 02 20  LDA $2002 = FF                  A:00 X:FF Y:00 P:26 SP:FF CYC: 30 SL:129
C7AB  29 80     AND #$80                        A:10 X:FF Y:00 P:24 SP:FF CYC: 42 SL:129
C7AD  F0 F9     BEQ $C7A8                       A:00 X:FF Y:00 P:26 SP:FF CYC: 48 SL:129
C7A8  AD 02 20  LDA $2002 = FF                  A:00 X:FF Y:00 P:26 SP:FF CYC: 57 SL:129
C7AB  29 80     AND #$80                        A:10 X:FF Y:00 P:24 SP:FF CYC: 69 SL:129
C7AD  F0 F9     BEQ $C7A8                       A:00 X:FF Y:00 P:26 SP:FF CYC: 75 SL:129
C7A8  AD 02 20  LDA $2002 = FF                  A:00 X:FF Y:00 P:26 SP:FF CYC: 84 SL:129
C7AB  29 80     AND #$80                        A:10 X:FF Y:00 P:24 SP:FF CYC: 96 SL:129
C7AD  F0 F9     BEQ $C7A8                       A:00 X:FF Y:00 P:26 SP:FF CYC:102 SL:129
C7A8  AD 02 20  LDA $2002 = FF                  A:00 X:FF Y:00 P:26 SP:FF CYC:111 SL:129
C7AB  29 80     AND #$80                        A:10 X:FF Y:00 P:24 SP:FF CYC:123 SL:129
C7AD  F0 F9     BEQ $C7A8                       A:00 X:FF Y:00 P:26 SP:FF CYC:129 SL:129
C7A8  AD 02 20  LDA $2002 = FF                  A:00 X:FF Y:00 P:26 SP:FF CYC:138 SL:129
C7AB  29 80     AND #$80                        A:10 X:FF Y:00 P:24 SP:FF CYC:150 SL:129
C7AD  F0 F9     BEQ $C7A8                       A:00 X:FF Y:00 P:26 SP:FF CYC:156 SL:129
C7A8  AD 02 20  LDA $2002 = FF                  A:00 X:FF Y:00 P:26 SP:FF CYC:165 SL:129
C7AB  29 80     AND #$80                        A:10 X:FF Y:00 P:24 SP:FF CYC:177 SL:129
C7AD  F0 F9     BEQ $C7A8                       A:00 X:FF Y:00 P:26 SP:FF CYC:183 SL:129
C7A8  AD 02 20  LDA $2002 = FF                  A:00 X:FF Y:00 P:26 SP:FF CYC:192 SL:129
C7AB  29 80     AND #$80                        A:10 X:FF Y:00 P:24 SP:FF CYC:204 SL:129
C7AD  F0 F9     BEQ $C7A8                       A:00 X:FF Y:00 P:26 SP:FF CYC:210 SL:129
C7A8  AD 02 20  LDA $2002 = FF                  A:00 X:FF Y:00 P:26 SP:FF CYC:219 SL:129
C7AB  29 80     AND #$80                        A:10 X:FF Y:00 P:24 SP:FF CYC:231 SL:129
C7AD  F0 F9     BEQ $C7A8                       A:00 X:FF Y:00 P:26 SP:FF CYC:237 SL:129
C7A8  AD 02 20  LDA $2002 = FF                  A:00 X:FF Y:00 P:26 SP:FF CYC:246 SL:129
C7AB  29 80     AND #$80                        A:10 X:FF Y:00 P:24 SP:FF CYC:258 SL:129
C7AD  F0 F9     BEQ $C7A8                       A:00 X:FF Y:00 P:26 SP:FF CYC:264 SL:129
C7A8  AD 02 20  LDA $2002 = FF                  A:00 X:FF Y:00 P:26 SP:FF CYC:273 SL:129
C7AB  29 80     AND #$80                        A:10 X:FF Y:00 P:24 SP:FF CYC:285 SL:129
C7AD  F0 F9     BEQ $C7A8                       A:00 X:FF Y:00 P:26 SP:FF CYC:291 SL:129
C7A8  AD 02 20  LDA $2002 = FF                  A:00 X:FF Y:00 P:26 SP:FF CYC:300 SL:129
C7AB  29 80     AND #$80                        A:10 X:FF Y:00 P:24 SP:FF CYC:312 SL:129
C7AD  F0 F9     BEQ $C7A8                       A:00 X:FF Y:00 P:26 SP:FF CYC:318 SL:129
C7A8  AD 02 20  LDA $2002 = FF                  A:00 X:FF Y:00 P:26 SP:FF CYC:327 SL:129
C7AB  29 80     AND #$80                        A:10 X:FF Y:00 P:24 SP:FF CYC:339 SL:129
C7AD  F0 F9     BEQ $C7A8                       A:00 X:FF Y:00 P:26 SP:FF CYC:  4 SL:130
C7A8  AD 02 20  LDA $2002 = FF                  A:00 X:FF Y:00 P:26 SP:FF CYC: 13 SL:130
C7AB  29 80     AND #$80                        A:10 X:FF Y:00 P:24 SP:FF CYC: 25 SL:130
C7AD  F0 F9     BEQ $C7A8                       A:00 X:FF Y:00 P:26 SP:FF CYC: 31 SL:130
C7A8  AD 02 20  LDA $2002 = FF                  A:00 X:FF Y:00 P:26 SP:FF CYC: 40 SL:130
C7AB  29 80     AND #$80                        A:10 X:FF Y:00 P:24 SP:FF CYC: 52 SL:130
C7AD  F0 F9     BEQ $C7A8                       A:00 X:FF Y:00 P:26 SP:FF CYC: 58 SL:130
C7A8  AD 02 20  LDA $2002 = FF                  A:00 X:FF Y:00 P:26 SP:FF CYC: 67 SL:130
C7AB  29 80     AND #$80                        A:10 X:FF Y:00 P:24 SP:FF CYC: 79 SL:130
C7AD  F0 F9     BEQ $C7A8                       A:00 X:FF Y:00 P:26 SP:FF CYC: 85 SL:130
C7A8  AD 02 20  LDA $2002 = FF                  A:00 X:FF Y:00 P:26 SP:FF CYC: 94 SL:130
C7AB  29 80     AND #$80                        A:10 X:FF Y:00 P:24 SP:FF CYC:106 SL:130
C7AD  F0 F9     BEQ $C7A8                       A:00 X:FF Y:00 P:26 SP:FF CYC:112 SL:130
C7A8  AD 02 20  LDA $2002 = FF                  A:00 X:FF Y:00 P:26 SP:FF CYC:121 SL:130
C7AB  29 80     AND #$80                        A:10 X:FF Y:00 P:24 SP:FF CYC:133 SL:130
C7AD  F0 F9     BEQ $C7A8                       A:00 X:FF Y:00 P:26 SP:FF CYC:139 SL:130
C7A8  AD 02 20  LDA $2002 = FF                  A:00 X:FF Y:00 P:26 SP:FF CYC:148 SL:130
C7AB  29 80     AND #$80                        A:10 X:FF Y:00 P:24 SP:FF CYC:160 SL:130
C7AD  F0 F9     BEQ $C7A8                       A:00 X:FF Y:00 P:26 SP:FF CYC:166 SL:130
C7A8  AD 02 20  LDA $2002 = FF                  A:00 X:FF Y:00 P:26 SP:FF CYC:175 SL:130
C7AB  29 80     AND #$80                        A:10 X:FF Y:00 P:24 SP:FF CYC:187 SL:130
C7AD  F0 F9     BEQ $C7A8                       A:00 X:FF Y:00 P:26 SP:FF CYC:193 SL:130
C7A8  AD 02 20  LDA $2002 = FF                  A:00 X:FF Y:00 P:26 SP:FF CYC:202 SL:130
C7AB  29 80     AND #$80                        A:10 X:FF Y:00 P:24 SP:FF CYC:214 SL:130
C7AD  F0 F9     BEQ $C7A8                       A:00 X:FF Y:00 P:26 SP:FF CYC:220 SL:130
C7A8  AD 02 20  LDA $2002 = FF                  A:00 X:FF Y:00 P:26 SP:FF CYC:229 SL:130
C7AB  29 80     AND #$80                        A:10 X:FF Y:00 P:24 SP:FF CYC:241 SL:130
C7AD  F0 F9     BEQ $C7A8                       A:00 X:FF Y:00 P:26 SP:FF CYC:247 SL:130
C7A8  AD 02 20  LDA $2002 = FF                  A:00 X:FF Y:00 P:26 SP:FF CYC:256 SL:130
C7AB  29 80     AND #$80                        A:10 X:FF Y:00 P:24 SP:FF CYC:268 SL:130
C7AD  F0 F9     BEQ $C7A8                       A:00 X:FF Y:00 P:26 SP:FF CYC:274 SL:130
C7A8  AD 02 20  LDA $2002 = FF                  A:00 X:FF Y:00 P:26 SP:FF CYC:283 SL:130
C7AB  29 80     AND #$80                        A:10 X:FF Y:00 P:24 SP:FF CYC:295 SL:130
C7AD  F0 F9     BEQ $C7A8                       A:00 X:FF Y:00 P:26 SP:FF CYC:301 SL:130
C7A8  AD 02 20  LDA $2002 = FF                  A:00 X:FF Y:00 P:26 SP:FF CYC:310 SL:130
C7AB  29 80     AND #$80                        A:10 X:FF Y:00 P:24 SP:FF CYC:322 SL:130
C7AD  F0 F9     BEQ $C7A8                       A:00 X:FF Y:00 P:26 SP:FF CYC:328 SL:130
C7A8  AD 02 20  LDA $2002 = FF                  A:00 X:FF Y:00 P:26 SP:FF CYC:337 SL:130
C7AB  29 80     AND #$80                        A:10 X:FF Y:00 P:24 SP:FF CYC:  8 SL:131
C7AD  F0 F9     BEQ $C7A8                       A:00 X:FF Y:00 P:26 SP:FF CYC: 14 SL:131
C7A8  AD 02 20  LDA $2002 = FF                  A:00 X:FF Y:00 P:26 SP:FF CYC: 23 SL:131
C7AB  29 80     AND #$80                        A:10 X:FF Y:00 P:24 SP:FF CYC: 35 SL:131
C7AD  F0 F9     BEQ $C7A8                       A:00 X:FF Y:00 P:26 SP:FF CYC: 41 SL:131
C7A8  AD 02 20  LDA $2002 = FF                  A:00 X:FF Y:00 P:26 SP:FF CYC: 50 SL:131
C7AB  29 80     AND #$80                        A:10 X:FF Y:00 P:24 SP:FF CYC: 62 SL:131
C7AD  F0 F9     BEQ $C7A8                       A:00 X:FF Y:00 P:26 SP:FF CYC: 68 SL:131
C7A8  AD 02 20  LDA $2002 = FF                  A:00 X:FF Y:00 P:26 SP:FF CYC: 77 SL:131
C7AB  29 80     AND #$80                        A:10 X:FF Y:00 P:24 SP:FF CYC: 89 SL:131
C7AD  F0 F9     BEQ $C7A8                       A:00 X:FF Y:00 P:26 SP:FF CYC: 95 SL:131
C7A8  AD 02 20  LDA $2002 = FF                  A:00 X:FF Y:00 P:26 SP:FF CYC:104 SL:131
C7AB  29 80     AND #$80                        A:10 X:FF Y:00 P:24 SP:FF CYC:116 SL:131
C7AD  F0 F9     BEQ $C7A8                       A:00 X:FF Y:00 P:26 SP:FF CYC:122 SL:131
C7A8  AD 02 20  LDA $2002 = FF                  A:00 X:FF Y:00 P:26 SP:FF CYC:131 SL:131
C7AB  29 80     AND #$80                        A:10 X:FF Y:00 P:24 SP:FF CYC:143 SL:131
C7AD  F0 F9     BEQ $C7A8                       A:00 X:FF Y:00 P:26 SP:FF CYC:149 SL:131
C7A8  AD 02 20  LDA $2002 = FF                  A:00 X:FF Y:00 P:26 SP:FF CYC:158 SL:131
C7AB  29 80     AND #$80                        A:10 X:FF Y:00 P:24 SP:FF CYC:170 SL:131
C7AD  F0 F9     BEQ $C7A8                       A:00 X:FF Y:00 P:26 SP:FF CYC:176 SL:131
C7A8  AD 02 20  LDA $2002 = FF                  A:00 X:FF Y:00 P:26 SP:FF CYC:185 SL:131
C7AB  29 80     AND #$80                        A:10 X:FF Y:00 P:24 SP:FF CYC:197 SL:131
C7AD  F0 F9     BEQ $C7A8                       A:00 X:FF Y:00 P:26 SP:FF CYC:203 SL:131
C7A8  AD 02 20  LDA $2002 = FF                  A:00 X:FF Y:00 P:26 SP:FF CYC:212 SL:131
C7AB  29 80     AND #$80                        A:10 X:FF Y:00 P:24 SP:FF CYC:224 SL:131
C7AD  F0 F9     BEQ $C7A8                       A:00 X:FF Y:00 P:26 SP:FF CYC:230 SL:131
C7A8  AD 02 20  LDA $2002 = FF                  A:00 X:FF Y:00 P:26 SP:FF CYC:239 SL:131
C7AB  29 80     AND #$80                        A:10 X:FF Y:00 P:24 SP:FF CYC:251 SL:131
C7AD  F0 F9     BEQ $C7A8                       A:00 X:FF Y:00 P:26 SP:FF CYC:257 SL:131
C7A8  AD 02 20  LDA $2002 = FF                  A:00 X:FF Y:00 P:26 SP:FF CYC:266 SL:131
C7AB  29 80     AND #$80                        A:10 X:FF Y:00 P:24 SP:FF CYC:278 SL:131
C7AD  F0 F9     BEQ $C7A8                       A:00 X:FF Y:00 P:26 SP:FF CYC:284 SL:131
C7A8  AD 02 20  LDA $2002 = FF                  A:00 X:FF Y:00 P:26 SP:FF CYC:293 SL:131
C7AB  29 80     AND #$80                        A:10 X:FF Y:00 P:24 SP:FF CYC:305 SL:131
C7AD  F0 F9     BEQ $C7A8                       A:00 X:FF Y:00 P:26 SP:FF CYC:311 SL:131
C7A8  AD 02 20  LDA $2002 = FF                  A:00 X:FF Y:00 P:26 SP:FF CYC:320 SL:131
C7AB  29 80     AND #$80                        A:10 X:FF Y:00 P:24 SP:FF CYC:332 SL:131
C7AD  F0 F9     BEQ $C7A8                       A:00 X:FF Y:00 P:26 SP:FF CYC:338 SL:131
C7A8  AD 02 20  LDA $2002 = FF                  A:00 X:FF Y:00 P:26 SP:FF CYC:  6 SL:132
C7AB  29 80     AND #$80                        A:10 X:FF Y:00 P:24 SP:FF CYC: 18 SL:132
C7AD  F0 F9     BEQ $C7A8                       A:00 X:FF Y:00 P:26 SP:FF CYC: 24 SL:132
C7A8  AD 02 20  LDA $2002 = FF                  A:00 X:FF Y:00 P:26 SP:FF CYC: 33 SL:132
C7AB  29 80     AND #$80                        A:10 X:FF Y:00 P:24 SP:FF CYC: 45 SL:132
C7AD  F0 F9     BEQ $C7A8                       A:00 X:FF Y:00 P:26 SP:FF CYC: 51 SL:132
C7A8  AD 02 20  LDA $2002 = FF                  A:00 X:FF Y:00 P:26 SP:FF CYC: 60 SL:132
C7AB  29 80     AND #$80                        A:10 X:FF Y:00 P:24 SP:FF CYC: 72 SL:132
C7AD  F0 F9     BEQ $C7A8                       A:00 X:FF Y:00 P:26 SP:FF CYC: 78 SL:132
C7A8  AD 02 20  LDA $2002 = FF                  A:00 X:FF Y:00 P:26 SP:FF CYC: 87 SL:132
C7AB  29 80     AND #$80                        A:10 X:FF Y:00 P:24 SP:FF CYC: 99 SL:132
C7AD  F0 F9     BEQ $C7A8                       A:00 X:FF Y:00 P:26 SP:FF CYC:105 SL:132
C7A8  AD 02 20  LDA $2002 = FF                  A:00 X:FF Y:00 P:26 SP:FF CYC:114 SL:132
C7AB  29 80     AND #$80                        A:10 X:FF Y:00 P:24 SP:FF CYC:126 SL:132
C7AD  F0 F9     BEQ $C7A8                       A:00 X:FF Y:00 P:26 SP:FF CYC:132 SL:132
C7A8  AD 02 20  LDA $2002 = FF                  A:00 X:FF Y:00 P:26 SP:FF CYC:141 SL:132
C7AB  29 80     AND #$80                        A:10 X:FF Y:00 P:24 SP:FF CYC:153 SL:132
C7AD  F0 F9     BEQ $C7A8                       A:00 X:FF Y:00 P:26 SP:FF CYC:159 SL:132
C7A8  AD 02 20  LDA $2002 = FF                  A:00 X:FF Y:00 P:26 SP:FF CYC:168 SL:132
C7AB  29 80     AND #$80                        A:10 X:FF Y:00 P:24 SP:FF CYC:180 SL:132
C7AD  F0 F9     BEQ $C7A8                       A:00 X:FF Y:00 P:26 SP:FF CYC:186 SL:132
C7A8  AD 02 20  LDA $2002 = FF                  A:00 X:FF Y:00 P:26 SP:FF CYC:195 SL:132
C7AB  29 80     AND #$80                        A:10 X:FF Y:00 P:24 SP:FF CYC:207 SL:132
C7AD  F0 F9     BEQ $C7A8                       A:00 X:FF Y:00 P:26 SP:FF CYC:213 SL:132
C7A8  AD 02 20  LDA $2002 = FF                  A:00 X:FF Y:00 P:26 SP:FF CYC:222 SL:132
C7AB  29 80     AND #$80                        A:10 X:FF Y:00 P:24 SP:FF CYC:234 SL:132
C7AD  F0 F9     BEQ $C7A8                       A:00 X:FF Y:00 P:26 SP:FF CYC:240 SL:132
C7A8  AD 02 20  LDA $2002 = FF                  A:00 X:FF Y:00 P:26 SP:FF CYC:249 SL:132
C7AB  29 80     AND #$80                        A:10 X:FF Y:00 P:24 SP:FF CYC:261 SL:132
C7AD  F0 F9     BEQ $C7A8                       A:00 X:FF Y:00 P:26 SP:FF CYC:267 SL:132
C7A8  AD 02 20  LDA $2002 = FF                  A:00 X:FF Y:00 P:26 SP:FF CYC:276 SL:132
C7AB  29 80     AND #$80                        A:10 X:FF Y:00 P:24 SP:FF CYC:288 SL:132
C7AD  F0 F9     BEQ $C7A8                       A:00 X:FF Y:00 P:26 SP:FF CYC:294 SL:132
C7A8  AD 02 20  LDA $2002 = FF                  A:00 X:FF Y:00 P:26 SP:FF CYC:303 SL:132
C7AB  29 80     AND #$80                        A:10 X:FF Y:00 P:24 SP:FF CYC:315 SL:132
C7AD  F0 F9     BEQ $C7A8                       A:00 X:FF Y:00 P:26 SP:FF CYC:321 SL:132
C7A8  AD 02 20  LDA $2002 = FF                  A:00 X:FF Y:00 P:26 SP:FF CYC:330 SL:132
C7AB  29 80     AND #$80                        A:10 X:FF Y:00 P:24 SP:FF CYC:  1 SL:133
C7AD  F0 F9     BEQ $C7A8                       A:00 X:FF Y:00 P:26 SP:FF CYC:  7 SL:133
C7A8  AD 02 20  LDA $2002 = FF                  A:00 X:FF Y:00 P:26 SP:FF CYC: 16 SL:133
C7AB  29 80     AND #$80                        A:10 X:FF Y:00 P:24 SP:FF CYC: 28 SL:133
C7AD  F0 F9     BEQ $C7A8                       A:00 X:FF Y:00 P:26 SP:FF CYC: 34 SL:133
C7A8  AD 02 20  LDA $2002 = FF                  A:00 X:FF Y:00 P:26 SP:FF CYC: 43 SL:133
C7AB  29 80     AND #$80                        A:10 X:FF Y:00 P:24 SP:FF CYC: 55 SL:133
C7AD  F0 F9     BEQ $C7A8                       A:00 X:FF Y:00 P:26 SP:FF CYC: 61 SL:133
C7A8  AD 02 20  LDA $2002 = FF                  A:00 X:FF Y:00 P:26 SP:FF CYC: 70 SL:133
C7AB  29 80     AND #$80                        A:10 X:FF Y:00 P:24 SP:FF CYC: 82 SL:133
C7AD  F0 F9     BEQ $C7A8                       A:00 X:FF Y:00 P:26 SP:FF CYC: 88 SL:133
C7A8  AD 02 20  LDA $2002 = FF                  A:00 X:FF Y:00 P:26 SP:FF CYC: 97 SL:133
C7AB  29 80     AND #$80                        A:10 X:FF Y:00 P:24 SP:FF CYC:109 SL:133
C7AD  F0 F9     BEQ $C7A8                       A:00 X:FF Y:00 P:26 SP:FF CYC:115 SL:133
C7A8  AD 02 20  LDA $2002 = FF                  A:00 X:FF Y:00 P:26 SP:FF CYC:124 SL:133
C7AB  29 80     AND #$80                        A:10 X:FF Y:00 P:24 SP:FF CYC:136 SL:133
C7AD  F0 F9     BEQ $C7A8                       A:00 X:FF Y:00 P:26 SP:FF CYC:142 SL:133
C7A8  AD 02 20  LDA $2002 = FF                  A:00 X:FF Y:00 P:26 SP:FF CYC:151 SL:133
C7AB  29 80     AND #$80                        A:10 X:FF Y:00 P:24 SP:FF CYC:163 SL:133
C7AD  F0 F9     BEQ $C7A8                       A:00 X:FF Y:00 P:26 SP:FF CYC:169 SL:133
C7A8  AD 02 20  LDA $2002 = FF                  A:00 X:FF Y:00 P:26 SP:FF CYC:178 SL:133
C7AB  29 80     AND #$80                        A:10 X:FF Y:00 P:24 SP:FF CYC:190 SL:133
C7AD  F0 F9     BEQ $C7A8                       A:00 X:FF Y:00 P:26 SP:FF CYC:196 SL:133
C7A8  AD 02 20  LDA $2002 = FF                  A:00 X:FF Y:00 P:26 SP:FF CYC:205 SL:133
C7AB  29 80     AND #$80                        A:10 X:FF Y:00 P:24 SP:FF CYC:217 SL:133
C7AD  F0 F9     BEQ $C7A8                       A:00 X:FF Y:00 P:26 SP:FF CYC:223 SL:133
C7A8  AD 02 20  LDA $2002 = FF                  A:00 X:FF Y:00 P:26 SP:FF CYC:232 SL:133
C7AB  29 80     AND #$80                        A:10 X:FF Y:00 P:24 SP:FF CYC:244 SL:133
C7AD  F0 F9     BEQ $C7A8                       A:00 X:FF Y:00 P:26 SP:FF CYC:250 SL:133
C7A8  AD 02 20  LDA $2002 = FF                  A:00 X:FF Y:00 P:26 SP:FF CYC:259 SL:133
C7AB  29 80     AND #$80                        A:10 X:FF Y:00 P:24 SP:FF CYC:271 SL:133
C7AD  F0 F9     BEQ $C7A8                       A:00 X:FF Y:00 P:26 SP:FF CYC:277 SL:133
C7A8  AD 02 20  LDA $2002 = FF                  A:00 X:FF Y:00 P:26 SP:FF CYC:286 SL:133
C7AB  29 80     AND #$80                        A:10 X:FF Y:00 P:24 SP:FF CYC:298 SL:133
C7AD  F0 F9     BEQ $C7A8                       A:00 X:FF Y:00 P:26 SP:FF CYC:304 SL:133
C7A8  AD 02 20  LDA $2002 = FF                  A:00 X:FF Y:00 P:26 SP:FF CYC:313 SL:133
C7AB  29 80     AND #$80                        A:10 X:FF Y:00 P:24 SP:FF CYC:325 SL:133
C7AD  F0 F9     BEQ $C7A8                       A:00 X:FF Y:00 P:26 SP:FF CYC:331 SL:133
C7A8  AD 02 20  LDA $2002 = FF                  A:00 X:FF Y:00 P:26 SP:FF CYC:340 SL:133
C7AB  29 80     AND #$80                        A:10 X:FF Y:00 P:24 SP:FF CYC: 11 SL:134
C7AD  F0 F9     BEQ $C7A8                       A:00 X:FF Y:00 P:26 SP:FF CYC: 17 SL:134
C7A8  AD 02 20  LDA $2002 = FF                  A:00 X:FF Y:00 P:26 SP:FF CYC: 26 SL:134
C7AB  29 80     AND #$80                        A:10 X:FF Y:00 P:24 SP:FF CYC: 38 SL:134
C7AD  F0 F9     BEQ $C7A8                       A:00 X:FF Y:00 P:26 SP:FF CYC: 44 SL:134
C7A8  AD 02 20  LDA $2002 = FF                  A:00 X:FF Y:00 P:26 SP:FF CYC: 53 SL:134
C7AB  29 80     AND #$80                        A:10 X:FF Y:00 P:24 SP:FF CYC: 65 SL:134
C7AD  F0 F9     BEQ $C7A8                       A:00 X:FF Y:00 P:26 SP:FF CYC: 71 SL:134
C7A8  AD 02 20  LDA $2002 = FF                  A:00 X:FF Y:00 P:26 SP:FF CYC: 80 SL:134
C7AB  29 80     AND #$80                        A:10 X:FF Y:00 P:24 SP:FF CYC: 92 SL:134
C7AD  F0 F9     BEQ $C7A8                       A:00 X:FF Y:00 P:26 SP:FF CYC: 98 SL:134
C7A8  AD 02 20  LDA $2002 = FF                  A:00 X:FF Y:00 P:26 SP:FF CYC:107 SL:134
C7AB  29 80     AND #$80                        A:10 X:FF Y:00 P:24 SP:FF CYC:119 SL:134
C7AD  F0 F9     BEQ $C7A8                       A:00 X:FF Y:00 P:26 SP:FF CYC:125 SL:134
C7A8  AD 02 20  LDA $2002 = FF                  A:00 X:FF Y:00 P:26 SP:FF CYC:134 SL:134
C7AB  29 80     AND #$80                        A:10 X:FF Y:00 P:24 SP:FF CYC:146 SL:134
C7AD  F0 F9     BEQ $C7A8                       A:00 X:FF Y:00 P:26 SP:FF CYC:152 SL:134
C7A8  AD 02 20  LDA $2002 = FF                  A:00 X:FF Y:00 P:26 SP:FF CYC:161 SL:134
C7AB  29 80     AND #$80                        A:10 X:FF Y:00 P:24 SP:FF CYC:173 SL:134
C7AD  F0 F9     BEQ $C7A8                       A:00 X:FF Y:00 P:26 SP:FF CYC:179 SL:134
C7A8  AD 02 20  LDA $2002 = FF                  A:00 X:FF Y:00 P:26 SP:FF CYC:188 SL:134
C7AB  29 80     AND #$80                        A:10 X:FF Y:00 P:24 SP:FF CYC:200 SL:134
C7AD  F0 F9     BEQ $C7A8                       A:00 X:FF Y:00 P:26 SP:FF CYC:206 SL:134
C7A8  AD 02 20  LDA $2002 = FF                  A:00 X:FF Y:00 P:26 SP:FF CYC:215 SL:134
C7AB  29 80     AND #$80                        A:10 X:FF Y:00 P:24 SP:FF CYC:227 SL:134
C7AD  F0 F9     BEQ $C7A8                       A:00 X:FF Y:00 P:26 SP:FF CYC:233 SL:134
C7A8  AD 02 20  LDA $2002 = FF                  A:00 X:FF Y:00 P:26 SP:FF CYC:242 SL:134
C7AB  29 80     AND #$80                        A:10 X:FF Y:00 P:24 SP:FF CYC:254 SL:134
C7AD  F0 F9     BEQ $C7A8                       A:00 X:FF Y:00 P:26 SP:FF CYC:260 SL:134
C7A8  AD 02 20  LDA $2002 = FF                  A:00 X:FF Y:00 P:26 SP:FF CYC:269 SL:134
C7AB  29 80     AND #$80                        A:10 X:FF Y:00 P:24 SP:FF CYC:281 SL:134
C7AD  F0 F9     BEQ $C7A8                       A:00 X:FF Y:00 P:26 SP:FF CYC:287 SL:134
C7A8  AD 02 20  LDA $2002 = FF                  A:00 X:FF Y:00 P:26 SP:FF CYC:296 SL:134
C7AB  29 80     AND #$80                        A:10 X:FF Y:00 P:24 SP:FF CYC:308 SL:134
C7AD  F0 F9     BEQ $C7A8                       A:00 X:FF Y:00 P:26 SP:FF CYC:314 SL:134
C7A8  AD 02 20  LDA $2002 = FF                  A:00 X:FF Y:00 P:26 SP:FF CYC:323 SL:134
C7AB  29 80     AND #$80                        A:10 X:FF Y:00 P:24 SP:FF CYC:335 SL:134
C7AD  F0 F9     BEQ $C7A8                       A:00 X:FF Y:00 P:26 SP:FF CYC:  0 SL:135
C7A8  AD 02 20  LDA $2002 = FF                  A:00 X:FF Y:00 P:26 SP:FF CYC:  9 SL:135
C7AB  29 80     AND #$80                        A:10 X:FF Y:00 P:24 SP:FF CYC: 21 SL:135
C7AD  F0 F9     BEQ $C7A8                       A:00 X:FF Y:00 P:26 SP:FF CYC: 27 SL:135
C7A8  AD 02 20  LDA $2002 = FF                  A:00 X:FF Y:00 P:26 SP:FF CYC: 36 SL:135
C7AB  29 80     AND #$80                        A:10 X:FF Y:00 P:24 SP:FF CYC: 48 SL:135
C7AD  F0 F9     BEQ $C7A8                       A:00 X:FF Y:00 P:26 SP:FF CYC: 54 SL:135
C7A8  AD 02 20  LDA $2002 = FF                  A:00 X:FF Y:00 P:26 SP:FF CYC: 63 SL:135
C7AB  29 80     AND #$80                        A:10 X:FF Y:00 P:24 SP:FF CYC: 75 SL:135
C7AD  F0 F9     BEQ $C7A8                       A:00 X:FF Y:00 P:26 SP:FF CYC: 81 SL:135
C7A8  AD 02 20  LDA $2002 = FF                  A:00 X:FF Y:00 P:26 SP:FF CYC: 90 SL:135
C7AB  29 80     AND #$80                        A:10 X:FF Y:00 P:24 SP:FF CYC:102 SL:135
C7AD  F0 F9     BEQ $C7A8                       A:00 X:FF Y:00 P:26 SP:FF CYC:108 SL:135
C7A8  AD 02 20  LDA $2002 = FF                  A:00 X:FF Y:00 P:26 SP:FF CYC:117 SL:135
C7AB  29 80     AND #$80                        A:10 X:FF Y:00 P:24 SP:FF CYC:129 SL:135
C7AD  F0 F9     BEQ $C7A8                       A:00 X:FF Y:00 P:26 SP:FF CYC:135 SL:135
C7A8  AD 02 20  LDA $2002 = FF                  A:00 X:FF Y:00 P:26 SP:FF CYC:144 SL:135
C7AB  29 80     AND #$80                        A:10 X:FF Y:00 P:24 SP:FF CYC:156 SL:135
C7AD  F0 F9     BEQ $C7A8                       A:00 X:FF Y:00 P:26 SP:FF CYC:162 SL:135
C7A8  AD 02 20  LDA $2002 = FF                  A:00 X:FF Y:00 P:26 SP:FF CYC:171 SL:135
C7AB  29 80     AND #$80                        A:10 X:FF Y:00 P:24 SP:FF CYC:183 SL:135
C7AD  F0 F9     BEQ $C7A8                       A:00 X:FF Y:00 P:26 SP:FF CYC:189 SL:135
C7A8  AD 02 20  LDA $2002 = FF                  A:00 X:FF Y:00 P:26 SP:FF CYC:198 SL:135
C7AB  29 80     AND #$80                        A:10 X:FF Y:00 P:24 SP:FF CYC:210 SL:135
C7AD  F0 F9     BEQ $C7A8                       A:00 X:FF Y:00 P:26 SP:FF CYC:216 SL:135
C7A8  AD 02 20  LDA $2002 = FF                  A:00 X:FF Y:00 P:26 SP:FF CYC:225 SL:135
C7AB  29 80     AND #$80                        A:10 X:FF Y:00 P:24 SP:FF CYC:237 SL:135
C7AD  F0 F9     BEQ $C7A8                       A:00 X:FF Y:00 P:26 SP:FF CYC:243 SL:135
C7A8  AD 02 20  LDA $2002 = FF                  A:00 X:FF Y:00 P:26 SP:FF CYC:252 SL:135
C7AB  29 80     AND #$80                        A:10 X:FF Y:00 P:24 SP:FF CYC:264 SL:135
C7AD  F0 F9     BEQ $C7A8                       A:00 X:FF Y:00 P:26 SP:FF CYC:270 SL:135
C7A8  AD 02 20  LDA $2002 = FF                  A:00 X:FF Y:00 P:26 SP:FF CYC:279 SL:135
C7AB  29 80     AND #$80                        A:10 X:FF Y:00 P:24 SP:FF CYC:291 SL:135
C7AD  F0 F9     BEQ $C7A8                       A:00 X:FF Y:00 P:26 SP:FF CYC:297 SL:135
C7A8  AD 02 20  LDA $2002 = FF                  A:00 X:FF Y:00 P:26 SP:FF CYC:306 SL:135
C7AB  29 80     AND #$80                        A:10 X:FF Y:00 P:24 SP:FF CYC:318 SL:135
C7AD  F0 F9     BEQ $C7A8                       A:00 X:FF Y:00 P:26 SP:FF CYC:324 SL:135
C7A8  AD 02 20  LDA $2002 = FF                  A:00 X:FF Y:00 P:26 SP:FF CYC:333 SL:135
C7AB  29 80     AND #$80                        A:10 X:FF Y:00 P:24 SP:FF CYC:  4 SL:136
C7AD  F0 F9     BEQ $C7A8                       A:00 X:FF Y:00 P:26 SP:FF CYC: 10 SL:136
C7A8  AD 02 20  LDA $2002 = FF                  A:00 X:FF Y:00 P:26 SP:FF CYC: 19 SL:136
C7AB  29 80     AND #$80                        A:10 X:FF Y:00 P:24 SP:FF CYC: 31 SL:136
C7AD  F0 F9     BEQ $C7A8                       A:00 X:FF Y:00 P:26 SP:FF CYC: 37 SL:136
C7A8  AD 02 20  LDA $2002 = FF                  A:00 X:FF Y:00 P:26 SP:FF CYC: 46 SL:136
C7AB  29 80     AND #$80                        A:10 X:FF Y:00 P:24 SP:FF CYC: 58 SL:136
C7AD  F0 F9     BEQ $C7A8                       A:00 X:FF Y:00 P:26 SP:FF CYC: 64 SL:136
C7A8  AD 02 20  LDA $2002 = FF                  A:00 X:FF Y:00 P:26 SP:FF CYC: 73 SL:136
C7AB  29 80     AND #$80                        A:10 X:FF Y:00 P:24 SP:FF CYC: 85 SL:136
C7AD  F0 F9     BEQ $C7A8                       A:00 X:FF Y:00 P:26 SP:FF CYC: 91 SL:136
C7A8  AD 02 20  LDA $2002 = FF                  A:00 X:FF Y:00 P:26 SP:FF CYC:100 SL:136
C7AB  29 80     AND #$80                        A:10 X:FF Y:00 P:24 SP:FF CYC:112 SL:136
C7AD  F0 F9     BEQ $C7A8                       A:00 X:FF Y:00 P:26 SP:FF CYC:118 SL:136
C7A8  AD 02 20  LDA $2002 = FF                  A:00 X:FF Y:00 P:26 SP:FF CYC:127 SL:136
C7AB  29 80     AND #$80                        A:10 X:FF Y:00 P:24 SP:FF CYC:139 SL:136
C7AD  F0 F9     BEQ $C7A8                       A:00 X:FF Y:00 P:26 SP:FF CYC:145 SL:136
C7A8  AD 02 20  LDA $2002 = FF                  A:00 X:FF Y:00 P:26 SP:FF CYC:154 SL:136
C7AB  29 80     AND #$80                        A:10 X:FF Y:00 P:24 SP:FF CYC:166 SL:136
C7AD  F0 F9     BEQ $C7A8                       A:00 X:FF Y:00 P:26 SP:FF CYC:172 SL:136
C7A8  AD 02 20  LDA $2002 = FF                  A:00 X:FF Y:00 P:26 SP:FF CYC:181 SL:136
C7AB  29 80     AND #$80                        A:10 X:FF Y:00 P:24 SP:FF CYC:193 SL:136
C7AD  F0 F9     BEQ $C7A8                       A:00 X:FF Y:00 P:26 SP:FF CYC:199 SL:136
C7A8  AD 02 20  LDA $2002 = FF                  A:00 X:FF Y:00 P:26 SP:FF CYC:208 SL:136
C7AB  29 80     AND #$80                        A:10 X:FF Y:00 P:24 SP:FF CYC:220 SL:136
C7AD  F0 F9     BEQ $C7A8                       A:00 X:FF Y:00 P:26 SP:FF CYC:226 SL:136
C7A8  AD 02 20  LDA $2002 = FF                  A:00 X:FF Y:00 P:26 SP:FF CYC:235 SL:136
C7AB  29 80     AND #$80                        A:10 X:FF Y:00 P:24 SP:FF CYC:247 SL:136
C7AD  F0 F9     BEQ $C7A8                       A:00 X:FF Y:00 P:26 SP:FF CYC:253 SL:136
C7A8  AD 02 20  LDA $2002 = FF                  A:00 X:FF Y:00 P:26 SP:FF CYC:262 SL:136
C7AB  29 80     AND #$80                        A:10 X:FF Y:00 P:24 SP:FF CYC:274 SL:136
C7AD  F0 F9     BEQ $C7A8                       A:00 X:FF Y:00 P:26 SP:FF CYC:280 SL:136
C7A8  AD 02 20  LDA $2002 = FF                  A:00 X:FF Y:00 P:26 SP:FF CYC:289 SL:136
C7AB  29 80     AND #$80                        A:10 X:FF Y:00 P:24 SP:FF CYC:301 SL:136
C7AD  F0 F9     BEQ $C7A8                       A:00 X:FF Y:00 P:26 SP:FF CYC:307 SL:136
C7A8  AD 02 20  LDA $2002 = FF                  A:00 X:FF Y:00 P:26 SP:FF CYC:316 SL:136
C7AB  29 80     AND #$80                        A:10 X:FF Y:00 P:24 SP:FF CYC:328 SL:136
C7AD  F0 F9     BEQ $C7A8                       A:00 X:FF Y:00 P:26 SP:FF CYC:334 SL:136
C7A8  AD 02 20  LDA $2002 = FF                  A:00 X:FF Y:00 P:26 SP:FF CYC:  2 SL:137
C7AB  29 80     AND #$80                        A:10 X:FF Y:00 P:24 SP:FF CYC: 14 SL:137
C7AD  F0 F9     BEQ $C7A8                       A:00 X:FF Y:00 P:26 SP:FF CYC: 20 SL:137
C7A8  AD 02 20  LDA $2002 = FF                  A:00 X:FF Y:00 P:26 SP:FF CYC: 29 SL:137
C7AB  29 80     AND #$80                        A:10 X:FF Y:00 P:24 SP:FF CYC: 41 SL:137
C7AD  F0 F9     BEQ $C7A8                       A:00 X:FF Y:00 P:26 SP:FF CYC: 47 SL:137
C7A8  AD 02 20  LDA $2002 = FF                  A:00 X:FF Y:00 P:26 SP:FF CYC: 56 SL:137
C7AB  29 80     AND #$80                        A:10 X:FF Y:00 P:24 SP:FF CYC: 68 SL:137
C7AD  F0 F9     BEQ $C7A8                       A:00 X:FF Y:00 P:26 SP:FF CYC: 74 SL:137
C7A8  AD 02 20  LDA $2002 = FF                  A:00 X:FF Y:00 P:26 SP:FF CYC: 83 SL:137
C7AB  29 80     AND #$80                        A:10 X:FF Y:00 P:24 SP:FF CYC: 95 SL:137
C7AD  F0 F9     BEQ $C7A8                       A:00 X:FF Y:00 P:26 SP:FF CYC:101 SL:137
C7A8  AD 02 20  LDA $2002 = FF                  A:00 X:FF Y:00 P:26 SP:FF CYC:110 SL:137
C7AB  29 80     AND #$80                        A:10 X:FF Y:00 P:24 SP:FF CYC:122 SL:137
C7AD  F0 F9     BEQ $C7A8                       A:00 X:FF Y:00 P:26 SP:FF CYC:128 SL:137
C7A8  AD 02 20  LDA $2002 = FF                  A:00 X:FF Y:00 P:26 SP:FF CYC:137 SL:137
C7AB  29 80     AND #$80                        A:10 X:FF Y:00 P:24 SP:FF CYC:149 SL:137
C7AD  F0 F9     BEQ $C7A8                       A:00 X:FF Y:00 P:26 SP:FF CYC:155 SL:137
C7A8  AD 02 20  LDA $2002 = FF                  A:00 X:FF Y:00 P:26 SP:FF CYC:164 SL:137
C7AB  29 80     AND #$80                        A:10 X:FF Y:00 P:24 SP:FF CYC:176 SL:137
C7AD  F0 F9     BEQ $C7A8                       A:00 X:FF Y:00 P:26 SP:FF CYC:182 SL:137
C7A8  AD 02 20  LDA $2002 = FF                  A:00 X:FF Y:00 P:26 SP:FF CYC:191 SL:137
C7AB  29 80     AND #$80                        A:10 X:FF Y:00 P:24 SP:FF CYC:203 SL:137
C7AD  F0 F9     BEQ $C7A8                       A:00 X:FF Y:00 P:26 SP:FF CYC:209 SL:137
C7A8  AD 02 20  LDA $2002 = FF                  A:00 X:FF Y:00 P:26 SP:FF CYC:218 SL:137
C7AB  29 80     AND #$80                        A:10 X:FF Y:00 P:24 SP:FF CYC:230 SL:137
C7AD  F0 F9     BEQ $C7A8                       A:00 X:FF Y:00 P:26 SP:FF CYC:236 SL:137
C7A8  AD 02 20  LDA $2002 = FF                  A:00 X:FF Y:00 P:26 SP:FF CYC:245 SL:137
C7AB  29 80     AND #$80                        A:10 X:FF Y:00 P:24 SP:FF CYC:257 SL:137
C7AD  F0 F9     BEQ $C7A8                       A:00 X:FF Y:00 P:26 SP:FF CYC:263 SL:137
C7A8  AD 02 20  LDA $2002 = FF                  A:00 X:FF Y:00 P:26 SP:FF CYC:272 SL:137
C7AB  29 80     AND #$80                        A:10 X:FF Y:00 P:24 SP:FF CYC:284 SL:137
C7AD  F0 F9     BEQ $C7A8                       A:00 X:FF Y:00 P:26 SP:FF CYC:290 SL:137
C7A8  AD 02 20  LDA $2002 = FF                  A:00 X:FF Y:00 P:26 SP:FF CYC:299 SL:137
C7AB  29 80     AND #$80                        A:10 X:FF Y:00 P:24 SP:FF CYC:311 SL:137
C7AD  F0 F9     BEQ $C7A8                       A:00 X:FF Y:00 P:26 SP:FF CYC:317 SL:137
C7A8  AD 02 20  LDA $2002 = FF                  A:00 X:FF Y:00 P:26 SP:FF CYC:326 SL:137
C7AB  29 80     AND #$80                        A:10 X:FF Y:00 P:24 SP:FF CYC:338 SL:137
C7AD  F0 F9     BEQ $C7A8                       A:00 X:FF Y:00 P:26 SP:FF CYC:  3 SL:138
C7A8  AD 02 20  LDA $2002 = FF                  A:00 X:FF Y:00 P:26 SP:FF CYC: 12 SL:138
C7AB  29 80     AND #$80                        A:10 X:FF Y:00 P:24 SP:FF CYC: 24 SL:138
C7AD  F0 F9     BEQ $C7A8                       A:00 X:FF Y:00 P:26 SP:FF CYC: 30 SL:138
C7A8  AD 02 20  LDA $2002 = FF                  A:00 X:FF Y:00 P:26 SP:FF CYC: 39 SL:138
C7AB  29 80     AND #$80                        A:10 X:FF Y:00 P:24 SP:FF CYC: 51 SL:138
C7AD  F0 F9     BEQ $C7A8                       A:00 X:FF Y:00 P:26 SP:FF CYC: 57 SL:138
C7A8  AD 02 20  LDA $2002 = FF                  A:00 X:FF Y:00 P:26 SP:FF CYC: 66 SL:138
C7AB  29 80     AND #$80                        A:10 X:FF Y:00 P:24 SP:FF CYC: 78 SL:138
C7AD  F0 F9     BEQ $C7A8                       A:00 X:FF Y:00 P:26 SP:FF CYC: 84 SL:138
C7A8  AD 02 20  LDA $2002 = FF                  A:00 X:FF Y:00 P:26 SP:FF CYC: 93 SL:138
C7AB  29 80     AND #$80                        A:10 X:FF Y:00 P:24 SP:FF CYC:105 SL:138
C7AD  F0 F9     BEQ $C7A8                       A:00 X:FF Y:00 P:26 SP:FF CYC:111 SL:138
C7A8  AD 02 20  LDA $2002 = FF                  A:00 X:FF Y:00 P:26 SP:FF CYC:120 SL:138
C7AB  29 80     AND #$80                        A:10 X:FF Y:00 P:24 SP:FF CYC:132 SL:138
C7AD  F0 F9     BEQ $C7A8                       A:00 X:FF Y:00 P:26 SP:FF CYC:138 SL:138
C7A8  AD 02 20  LDA $2002 = FF                  A:00 X:FF Y:00 P:26 SP:FF CYC:147 SL:138
C7AB  29 80     AND #$80                        A:10 X:FF Y:00 P:24 SP:FF CYC:159 SL:138
C7AD  F0 F9     BEQ $C7A8                       A:00 X:FF Y:00 P:26 SP:FF CYC:165 SL:138
C7A8  AD 02 20  LDA $2002 = FF                  A:00 X:FF Y:00 P:26 SP:FF CYC:174 SL:138
C7AB  29 80     AND #$80                        A:10 X:FF Y:00 P:24 SP:FF CYC:186 SL:138
C7AD  F0 F9     BEQ $C7A8                       A:00 X:FF Y:00 P:26 SP:FF CYC:192 SL:138
C7A8  AD 02 20  LDA $2002 = FF                  A:00 X:FF Y:00 P:26 SP:FF CYC:201 SL:138
C7AB  29 80     AND #$80                        A:10 X:FF Y:00 P:24 SP:FF CYC:213 SL:138
C7AD  F0 F9     BEQ $C7A8                       A:00 X:FF Y:00 P:26 SP:FF CYC:219 SL:138
C7A8  AD 02 20  LDA $2002 = FF                  A:00 X:FF Y:00 P:26 SP:FF CYC:228 SL:138
C7AB  29 80     AND #$80                        A:10 X:FF Y:00 P:24 SP:FF CYC:240 SL:138
C7AD  F0 F9     BEQ $C7A8                       A:00 X:FF Y:00 P:26 SP:FF CYC:246 SL:138
C7A8  AD 02 20  LDA $2002 = FF                  A:00 X:FF Y:00 P:26 SP:FF CYC:255 SL:138
C7AB  29 80     AND #$80                        A:10 X:FF Y:00 P:24 SP:FF CYC:267 SL:138
C7AD  F0 F9     BEQ $C7A8                       A:00 X:FF Y:00 P:26 SP:FF CYC:273 SL:138
C7A8  AD 02 20  LDA $2002 = FF                  A:00 X:FF Y:00 P:26 SP:FF CYC:282 SL:138
C7AB  29 80     AND #$80                        A:10 X:FF Y:00 P:24 SP:FF CYC:294 SL:138
C7AD  F0 F9     BEQ $C7A8                       A:00 X:FF Y:00 P:26 SP:FF CYC:300 SL:138
C7A8  AD 02 20  LDA $2002 = FF                  A:00 X:FF Y:00 P:26 SP:FF CYC:309 SL:138
C7AB  29 80     AND #$80                        A:10 X:FF Y:00 P:24 SP:FF CYC:321 SL:138
C7AD  F0 F9     BEQ $C7A8                       A:00 X:FF Y:00 P:26 SP:FF CYC:327 SL:138
C7A8  AD 02 20  LDA $2002 = FF                  A:00 X:FF Y:00 P:26 SP:FF CYC:336 SL:138
C7AB  29 80     AND #$80                        A:10 X:FF Y:00 P:24 SP:FF CYC:  7 SL:139
C7AD  F0 F9     BEQ $C7A8                       A:00 X:FF Y:00 P:26 SP:FF CYC: 13 SL:139
C7A8  AD 02 20  LDA $2002 = FF                  A:00 X:FF Y:00 P:26 SP:FF CYC: 22 SL:139
C7AB  29 80     AND #$80                        A:10 X:FF Y:00 P:24 SP:FF CYC: 34 SL:139
C7AD  F0 F9     BEQ $C7A8                       A:00 X:FF Y:00 P:26 SP:FF CYC: 40 SL:139
C7A8  AD 02 20  LDA $2002 = FF                  A:00 X:FF Y:00 P:26 SP:FF CYC: 49 SL:139
C7AB  29 80     AND #$80                        A:10 X:FF Y:00 P:24 SP:FF CYC: 61 SL:139
C7AD  F0 F9     BEQ $C7A8                       A:00 X:FF Y:00 P:26 SP:FF CYC: 67 SL:139
C7A8  AD 02 20  LDA $2002 = FF                  A:00 X:FF Y:00 P:26 SP:FF CYC: 76 SL:139
C7AB  29 80     AND #$80                        A:10 X:FF Y:00 P:24 SP:FF CYC: 88 SL:139
C7AD  F0 F9     BEQ $C7A8                       A:00 X:FF Y:00 P:26 SP:FF CYC: 94 SL:139
C7A8  AD 02 20  LDA $2002 = FF                  A:00 X:FF Y:00 P:26 SP:FF CYC:103 SL:139
C7AB  29 80     AND #$80                        A:10 X:FF Y:00 P:24 SP:FF CYC:115 SL:139
C7AD  F0 F9     BEQ $C7A8                       A:00 X:FF Y:00 P:26 SP:FF CYC:121 SL:139
C7A8  AD 02 20  LDA $2002 = FF                  A:00 X:FF Y:00 P:26 SP:FF CYC:130 SL:139
C7AB  29 80     AND #$80                        A:10 X:FF Y:00 P:24 SP:FF CYC:142 SL:139
C7AD  F0 F9     BEQ $C7A8                       A:00 X:FF Y:00 P:26 SP:FF CYC:148 SL:139
C7A8  AD 02 20  LDA $2002 = FF                  A:00 X:FF Y:00 P:26 SP:FF CYC:157 SL:139
C7AB  29 80     AND #$80                        A:10 X:FF Y:00 P:24 SP:FF CYC:169 SL:139
C7AD  F0 F9     BEQ $C7A8                       A:00 X:FF Y:00 P:26 SP:FF CYC:175 SL:139
C7A8  AD 02 20  LDA $2002 = FF                  A:00 X:FF Y:00 P:26 SP:FF CYC:184 SL:139
C7AB  29 80     AND #$80                        A:10 X:FF Y:00 P:24 SP:FF CYC:196 SL:139
C7AD  F0 F9     BEQ $C7A8                       A:00 X:FF Y:00 P:26 SP:FF CYC:202 SL:139
C7A8  AD 02 20  LDA $2002 = FF                  A:00 X:FF Y:00 P:26 SP:FF CYC:211 SL:139
C7AB  29 80     AND #$80                        A:10 X:FF Y:00 P:24 SP:FF CYC:223 SL:139
C7AD  F0 F9     BEQ $C7A8                       A:00 X:FF Y:00 P:26 SP:FF CYC:229 SL:139
C7A8  AD 02 20  LDA $2002 = FF                  A:00 X:FF Y:00 P:26 SP:FF CYC:238 SL:139
C7AB  29 80     AND #$80                        A:10 X:FF Y:00 P:24 SP:FF CYC:250 SL:139
C7AD  F0 F9     BEQ $C7A8                       A:00 X:FF Y:00 P:26 SP:FF CYC:256 SL:139
C7A8  AD 02 20  LDA $2002 = FF                  A:00 X:FF Y:00 P:26 SP:FF CYC:265 SL:139
C7AB  29 80     AND #$80                        A:10 X:FF Y:00 P:24 SP:FF CYC:277 SL:139
C7AD  F0 F9     BEQ $C7A8                       A:00 X:FF Y:00 P:26 SP:FF CYC:283 SL:139
C7A8  AD 02 20  LDA $2002 = FF                  A:00 X:FF Y:00 P:26 SP:FF CYC:292 SL:139
C7AB  29 80     AND #$80                        A:10 X:FF Y:00 P:24 SP:FF CYC:304 SL:139
C7AD  F0 F9     BEQ $C7A8                       A:00 X:FF Y:00 P:26 SP:FF CYC:310 SL:139
C7A8  AD 02 20  LDA $2002 = FF                  A:00 X:FF Y:00 P:26 SP:FF CYC:319 SL:139
C7AB  29 80     AND #$80                        A:10 X:FF Y:00 P:24 SP:FF CYC:331 SL:139
C7AD  F0 F9     BEQ $C7A8                       A:00 X:FF Y:00 P:26 SP:FF CYC:337 SL:139
C7A8  AD 02 20  LDA $2002 = FF                  A:00 X:FF Y:00 P:26 SP:FF CYC:  5 SL:140
C7AB  29 80     AND #$80                        A:10 X:FF Y:00 P:24 SP:FF CYC: 17 SL:140
C7AD  F0 F9     BEQ $C7A8                       A:00 X:FF Y:00 P:26 SP:FF CYC: 23 SL:140
C7A8  AD 02 20  LDA $2002 = FF                  A:00 X:FF Y:00 P:26 SP:FF CYC: 32 SL:140
C7AB  29 80     AND #$80                        A:10 X:FF Y:00 P:24 SP:FF CYC: 44 SL:140
C7AD  F0 F9     BEQ $C7A8                       A:00 X:FF Y:00 P:26 SP:FF CYC: 50 SL:140
C7A8  AD 02 20  LDA $2002 = FF                  A:00 X:FF Y:00 P:26 SP:FF CYC: 59 SL:140
C7AB  29 80     AND #$80                        A:10 X:FF Y:00 P:24 SP:FF CYC: 71 SL:140
C7AD  F0 F9     BEQ $C7A8                       A:00 X:FF Y:00 P:26 SP:FF CYC: 77 SL:140
C7A8  AD 02 20  LDA $2002 = FF                  A:00 X:FF Y:00 P:26 SP:FF CYC: 86 SL:140
C7AB  29 80     AND #$80                        A:10 X:FF Y:00 P:24 SP:FF CYC: 98 SL:140
C7AD  F0 F9     BEQ $C7A8                       A:00 X:FF Y:00 P:26 SP:FF CYC:104 SL:140
C7A8  AD 02 20  LDA $2002 = FF                  A:00 X:FF Y:00 P:26 SP:FF CYC:113 SL:140
C7AB  29 80     AND #$80                        A:10 X:FF Y:00 P:24 SP:FF CYC:125 SL:140
C7AD  F0 F9     BEQ $C7A8                       A:00 X:FF Y:00 P:26 SP:FF CYC:131 SL:140
C7A8  AD 02 20  LDA $2002 = FF                  A:00 X:FF Y:00 P:26 SP:FF CYC:140 SL:140
C7AB  29 80     AND #$80                        A:10 X:FF Y:00 P:24 SP:FF CYC:152 SL:140
C7AD  F0 F9     BEQ $C7A8                       A:00 X:FF Y:00 P:26 SP:FF CYC:158 SL:140
C7A8  AD 02 20  LDA $2002 = FF                  A:00 X:FF Y:00 P:26 SP:FF CYC:167 SL:140
C7AB  29 80     AND #$80                        A:10 X:FF Y:00 P:24 SP:FF CYC:179 SL:140
C7AD  F0 F9     BEQ $C7A8                       A:00 X:FF Y:00 P:26 SP:FF CYC:185 SL:140
C7A8  AD 02 20  LDA $2002 = FF                  A:00 X:FF Y:00 P:26 SP:FF CYC:194 SL:140
C7AB  29 80     AND #$80                        A:10 X:FF Y:00 P:24 SP:FF CYC:206 SL:140
C7AD  F0 F9     BEQ $C7A8                       A:00 X:FF Y:00 P:26 SP:FF CYC:212 SL:140
C7A8  AD 02 20  LDA $2002 = FF                  A:00 X:FF Y:00 P:26 SP:FF CYC:221 SL:140
C7AB  29 80     AND #$80                        A:10 X:FF Y:00 P:24 SP:FF CYC:233 SL:140
C7AD  F0 F9     BEQ $C7A8                       A:00 X:FF Y:00 P:26 SP:FF CYC:239 SL:140
C7A8  AD 02 20  LDA $2002 = FF                  A:00 X:FF Y:00 P:26 SP:FF CYC:248 SL:140
C7AB  29 80     AND #$80                        A:10 X:FF Y:00 P:24 SP:FF CYC:260 SL:140
C7AD  F0 F9     BEQ $C7A8                       A:00 X:FF Y:00 P:26 SP:FF CYC:266 SL:140
C7A8  AD 02 20  LDA $2002 = FF                  A:00 X:FF Y:00 P:26 SP:FF CYC:275 SL:140
C7AB  29 80     AND #$80                        A:10 X:FF Y:00 P:24 SP:FF CYC:287 SL:140
C7AD  F0 F9     BEQ $C7A8                       A:00 X:FF Y:00 P:26 SP:FF CYC:293 SL:140
C7A8  AD 02 20  LDA $2002 = FF                  A:00 X:FF Y:00 P:26 SP:FF CYC:302 SL:140
C7AB  29 80     AND #$80                        A:10 X:FF Y:00 P:24 SP:FF CYC:314 SL:140
C7AD  F0 F9     BEQ $C7A8                       A:00 X:FF Y:00 P:26 SP:FF CYC:320 SL:140
C7A8  AD 02 20  LDA $2002 = FF                  A:00 X:FF Y:00 P:26 SP:FF CYC:329 SL:140
C7AB  29 80     AND #$80                        A:10 X:FF Y:00 P:24 SP:FF CYC:  0 SL:141
C7AD  F0 F9     BEQ $C7A8                       A:00 X:FF Y:00 P:26 SP:FF CYC:  6 SL:141
C7A8  AD 02 20  LDA $2002 = FF                  A:00 X:FF Y:00 P:26 SP:FF CYC: 15 SL:141
C7AB  29 80     AND #$80                        A:10 X:FF Y:00 P:24 SP:FF CYC: 27 SL:141
C7AD  F0 F9     BEQ $C7A8                       A:00 X:FF Y:00 P:26 SP:FF CYC: 33 SL:141
C7A8  AD 02 20  LDA $2002 = FF                  A:00 X:FF Y:00 P:26 SP:FF CYC: 42 SL:141
C7AB  29 80     AND #$80                        A:10 X:FF Y:00 P:24 SP:FF CYC: 54 SL:141
C7AD  F0 F9     BEQ $C7A8                       A:00 X:FF Y:00 P:26 SP:FF CYC: 60 SL:141
C7A8  AD 02 20  LDA $2002 = FF                  A:00 X:FF Y:00 P:26 SP:FF CYC: 69 SL:141
C7AB  29 80     AND #$80                        A:10 X:FF Y:00 P:24 SP:FF CYC: 81 SL:141
C7AD  F0 F9     BEQ $C7A8                       A:00 X:FF Y:00 P:26 SP:FF CYC: 87 SL:141
C7A8  AD 02 20  LDA $2002 = FF                  A:00 X:FF Y:00 P:26 SP:FF CYC: 96 SL:141
C7AB  29 80     AND #$80                        A:10 X:FF Y:00 P:24 SP:FF CYC:108 SL:141
C7AD  F0 F9     BEQ $C7A8                       A:00 X:FF Y:00 P:26 SP:FF CYC:114 SL:141
C7A8  AD 02 20  LDA $2002 = FF                  A:00 X:FF Y:00 P:26 SP:FF CYC:123 SL:141
C7AB  29 80     AND #$80                        A:10 X:FF Y:00 P:24 SP:FF CYC:135 SL:141
C7AD  F0 F9     BEQ $C7A8                       A:00 X:FF Y:00 P:26 SP:FF CYC:141 SL:141
C7A8  AD 02 20  LDA $2002 = FF                  A:00 X:FF Y:00 P:26 SP:FF CYC:150 SL:141
C7AB  29 80     AND #$80                        A:10 X:FF Y:00 P:24 SP:FF CYC:162 SL:141
C7AD  F0 F9     BEQ $C7A8                       A:00 X:FF Y:00 P:26 SP:FF CYC:168 SL:141
C7A8  AD 02 20  LDA $2002 = FF                  A:00 X:FF Y:00 P:26 SP:FF CYC:177 SL:141
C7AB  29 80     AND #$80                        A:10 X:FF Y:00 P:24 SP:FF CYC:189 SL:141
C7AD  F0 F9     BEQ $C7A8                       A:00 X:FF Y:00 P:26 SP:FF CYC:195 SL:141
C7A8  AD 02 20  LDA $2002 = FF                  A:00 X:FF Y:00 P:26 SP:FF CYC:204 SL:141
C7AB  29 80     AND #$80                        A:10 X:FF Y:00 P:24 SP:FF CYC:216 SL:141
C7AD  F0 F9     BEQ $C7A8                       A:00 X:FF Y:00 P:26 SP:FF CYC:222 SL:141
C7A8  AD 02 20  LDA $2002 = FF                  A:00 X:FF Y:00 P:26 SP:FF CYC:231 SL:141
C7AB  29 80     AND #$80                        A:10 X:FF Y:00 P:24 SP:FF CYC:243 SL:141
C7AD  F0 F9     BEQ $C7A8                       A:00 X:FF Y:00 P:26 SP:FF CYC:249 SL:141
C7A8  AD 02 20  LDA $2002 = FF                  A:00 X:FF Y:00 P:26 SP:FF CYC:258 SL:141
C7AB  29 80     AND #$80                        A:10 X:FF Y:00 P:24 SP:FF CYC:270 SL:141
C7AD  F0 F9     BEQ $C7A8                       A:00 X:FF Y:00 P:26 SP:FF CYC:276 SL:141
C7A8  AD 02 20  LDA $2002 = FF                  A:00 X:FF Y:00 P:26 SP:FF CYC:285 SL:141
C7AB  29 80     AND #$80                        A:10 X:FF Y:00 P:24 SP:FF CYC:297 SL:141
C7AD  F0 F9     BEQ $C7A8                       A:00 X:FF Y:00 P:26 SP:FF CYC:303 SL:141
C7A8  AD 02 20  LDA $2002 = FF                  A:00 X:FF Y:00 P:26 SP:FF CYC:312 SL:141
C7AB  29 80     AND #$80                        A:10 X:FF Y:00 P:24 SP:FF CYC:324 SL:141
C7AD  F0 F9     BEQ $C7A8                       A:00 X:FF Y:00 P:26 SP:FF CYC:330 SL:141
C7A8  AD 02 20  LDA $2002 = FF                  A:00 X:FF Y:00 P:26 SP:FF CYC:339 SL:141
C7AB  29 80     AND #$80                        A:10 X:FF Y:00 P:24 SP:FF CYC: 10 SL:142
C7AD  F0 F9     BEQ $C7A8                       A:00 X:FF Y:00 P:26 SP:FF CYC: 16 SL:142
C7A8  AD 02 20  LDA $2002 = FF                  A:00 X:FF Y:00 P:26 SP:FF CYC: 25 SL:142
C7AB  29 80     AND #$80                        A:10 X:FF Y:00 P:24 SP:FF CYC: 37 SL:142
C7AD  F0 F9     BEQ $C7A8                       A:00 X:FF Y:00 P:26 SP:FF CYC: 43 SL:142
C7A8  AD 02 20  LDA $2002 = FF                  A:00 X:FF Y:00 P:26 SP:FF CYC: 52 SL:142
C7AB  29 80     AND #$80                        A:10 X:FF Y:00 P:24 SP:FF CYC: 64 SL:142
C7AD  F0 F9     BEQ $C7A8                       A:00 X:FF Y:00 P:26 SP:FF CYC: 70 SL:142
C7A8  AD 02 20  LDA $2002 = FF                  A:00 X:FF Y:00 P:26 SP:FF CYC: 79 SL:142
C7AB  29 80     AND #$80                        A:10 X:FF Y:00 P:24 SP:FF CYC: 91 SL:142
C7AD  F0 F9     BEQ $C7A8                       A:00 X:FF Y:00 P:26 SP:FF CYC: 97 SL:142
C7A8  AD 02 20  LDA $2002 = FF                  A:00 X:FF Y:00 P:26 SP:FF CYC:106 SL:142
C7AB  29 80     AND #$80                        A:10 X:FF Y:00 P:24 SP:FF CYC:118 SL:142
C7AD  F0 F9     BEQ $C7A8                       A:00 X:FF Y:00 P:26 SP:FF CYC:124 SL:142
C7A8  AD 02 20  LDA $2002 = FF                  A:00 X:FF Y:00 P:26 SP:FF CYC:133 SL:142
C7AB  29 80     AND #$80                        A:10 X:FF Y:00 P:24 SP:FF CYC:145 SL:142
C7AD  F0 F9     BEQ $C7A8                       A:00 X:FF Y:00 P:26 SP:FF CYC:151 SL:142
C7A8  AD 02 20  LDA $2002 = FF                  A:00 X:FF Y:00 P:26 SP:FF CYC:160 SL:142
C7AB  29 80     AND #$80                        A:10 X:FF Y:00 P:24 SP:FF CYC:172 SL:142
C7AD  F0 F9     BEQ $C7A8                       A:00 X:FF Y:00 P:26 SP:FF CYC:178 SL:142
C7A8  AD 02 20  LDA $2002 = FF                  A:00 X:FF Y:00 P:26 SP:FF CYC:187 SL:142
C7AB  29 80     AND #$80                        A:10 X:FF Y:00 P:24 SP:FF CYC:199 SL:142
C7AD  F0 F9     BEQ $C7A8                       A:00 X:FF Y:00 P:26 SP:FF CYC:205 SL:142
C7A8  AD 02 20  LDA $2002 = FF                  A:00 X:FF Y:00 P:26 SP:FF CYC:214 SL:142
C7AB  29 80     AND #$80                        A:10 X:FF Y:00 P:24 SP:FF CYC:226 SL:142
C7AD  F0 F9     BEQ $C7A8                       A:00 X:FF Y:00 P:26 SP:FF CYC:232 SL:142
C7A8  AD 02 20  LDA $2002 = FF                  A:00 X:FF Y:00 P:26 SP:FF CYC:241 SL:142
C7AB  29 80     AND #$80                        A:10 X:FF Y:00 P:24 SP:FF CYC:253 SL:142
C7AD  F0 F9     BEQ $C7A8                       A:00 X:FF Y:00 P:26 SP:FF CYC:259 SL:142
C7A8  AD 02 20  LDA $2002 = FF                  A:00 X:FF Y:00 P:26 SP:FF CYC:268 SL:142
C7AB  29 80     AND #$80                        A:10 X:FF Y:00 P:24 SP:FF CYC:280 SL:142
C7AD  F0 F9     BEQ $C7A8                       A:00 X:FF Y:00 P:26 SP:FF CYC:286 SL:142
C7A8  AD 02 20  LDA $2002 = FF                  A:00 X:FF Y:00 P:26 SP:FF CYC:295 SL:142
C7AB  29 80     AND #$80                        A:10 X:FF Y:00 P:24 SP:FF CYC:307 SL:142
C7AD  F0 F9     BEQ $C7A8                       A:00 X:FF Y:00 P:26 SP:FF CYC:313 SL:142
C7A8  AD 02 20  LDA $2002 = FF                  A:00 X:FF Y:00 P:26 SP:FF CYC:322 SL:142
C7AB  29 80     AND #$80                        A:10 X:FF Y:00 P:24 SP:FF CYC:334 SL:142
C7AD  F0 F9     BEQ $C7A8                       A:00 X:FF Y:00 P:26 SP:FF CYC:340 SL:142
C7A8  AD 02 20  LDA $2002 = FF                  A:00 X:FF Y:00 P:26 SP:FF CYC:  8 SL:143
C7AB  29 80     AND #$80                        A:10 X:FF Y:00 P:24 SP:FF CYC: 20 SL:143
C7AD  F0 F9     BEQ $C7A8                       A:00 X:FF Y:00 P:26 SP:FF CYC: 26 SL:143
C7A8  AD 02 20  LDA $2002 = FF                  A:00 X:FF Y:00 P:26 SP:FF CYC: 35 SL:143
C7AB  29 80     AND #$80                        A:10 X:FF Y:00 P:24 SP:FF CYC: 47 SL:143
C7AD  F0 F9     BEQ $C7A8                       A:00 X:FF Y:00 P:26 SP:FF CYC: 53 SL:143
C7A8  AD 02 20  LDA $2002 = FF                  A:00 X:FF Y:00 P:26 SP:FF CYC: 62 SL:143
C7AB  29 80     AND #$80                        A:10 X:FF Y:00 P:24 SP:FF CYC: 74 SL:143
C7AD  F0 F9     BEQ $C7A8                       A:00 X:FF Y:00 P:26 SP:FF CYC: 80 SL:143
C7A8  AD 02 20  LDA $2002 = FF                  A:00 X:FF Y:00 P:26 SP:FF CYC: 89 SL:143
C7AB  29 80     AND #$80                        A:10 X:FF Y:00 P:24 SP:FF CYC:101 SL:143
C7AD  F0 F9     BEQ $C7A8                       A:00 X:FF Y:00 P:26 SP:FF CYC:107 SL:143
C7A8  AD 02 20  LDA $2002 = FF                  A:00 X:FF Y:00 P:26 SP:FF CYC:116 SL:143
C7AB  29 80     AND #$80                        A:10 X:FF Y:00 P:24 SP:FF CYC:128 SL:143
C7AD  F0 F9     BEQ $C7A8                       A:00 X:FF Y:00 P:26 SP:FF CYC:134 SL:143
C7A8  AD 02 20  LDA $2002 = FF                  A:00 X:FF Y:00 P:26 SP:FF CYC:143 SL:143
C7AB  29 80     AND #$80                        A:10 X:FF Y:00 P:24 SP:FF CYC:155 SL:143
C7AD  F0 F9     BEQ $C7A8                       A:00 X:FF Y:00 P:26 SP:FF CYC:161 SL:143
C7A8  AD 02 20  LDA $2002 = FF                  A:00 X:FF Y:00 P:26 SP:FF CYC:170 SL:143
C7AB  29 80     AND #$80                        A:10 X:FF Y:00 P:24 SP:FF CYC:182 SL:143
C7AD  F0 F9     BEQ $C7A8                       A:00 X:FF Y:00 P:26 SP:FF CYC:188 SL:143
C7A8  AD 02 20  LDA $2002 = FF                  A:00 X:FF Y:00 P:26 SP:FF CYC:197 SL:143
C7AB  29 80     AND #$80                        A:10 X:FF Y:00 P:24 SP:FF CYC:209 SL:143
C7AD  F0 F9     BEQ $C7A8                       A:00 X:FF Y:00 P:26 SP:FF CYC:215 SL:143
C7A8  AD 02 20  LDA $2002 = FF                  A:00 X:FF Y:00 P:26 SP:FF CYC:224 SL:143
C7AB  29 80     AND #$80                        A:10 X:FF Y:00 P:24 SP:FF CYC:236 SL:143
C7AD  F0 F9     BEQ $C7A8                       A:00 X:FF Y:00 P:26 SP:FF CYC:242 SL:143
C7A8  AD 02 20  LDA $2002 = FF                  A:00 X:FF Y:00 P:26 SP:FF CYC:251 SL:143
C7AB  29 80     AND #$80                        A:10 X:FF Y:00 P:24 SP:FF CYC:263 SL:143
C7AD  F0 F9     BEQ $C7A8                       A:00 X:FF Y:00 P:26 SP:FF CYC:269 SL:143
C7A8  AD 02 20  LDA $2002 = FF                  A:00 X:FF Y:00 P:26 SP:FF CYC:278 SL:143
C7AB  29 80     AND #$80                        A:10 X:FF Y:00 P:24 SP:FF CYC:290 SL:143
C7AD  F0 F9     BEQ $C7A8                       A:00 X:FF Y:00 P:26 SP:FF CYC:296 SL:143
C7A8  AD 02 20  LDA $2002 = FF                  A:00 X:FF Y:00 P:26 SP:FF CYC:305 SL:143
C7AB  29 80     AND #$80                        A:10 X:FF Y:00 P:24 SP:FF CYC:317 SL:143
C7AD  F0 F9     BEQ $C7A8                       A:00 X:FF Y:00 P:26 SP:FF CYC:323 SL:143
C7A8  AD 02 20  LDA $2002 = FF                  A:00 X:FF Y:00 P:26 SP:FF CYC:332 SL:143
C7AB  29 80     AND #$80                        A:10 X:FF Y:00 P:24 SP:FF CYC:  3 SL:144
C7AD  F0 F9     BEQ $C7A8                       A:00 X:FF Y:00 P:26 SP:FF CYC:  9 SL:144
C7A8  AD 02 20  LDA $2002 = FF                  A:00 X:FF Y:00 P:26 SP:FF CYC: 18 SL:144
C7AB  29 80     AND #$80                        A:10 X:FF Y:00 P:24 SP:FF CYC: 30 SL:144
C7AD  F0 F9     BEQ $C7A8                       A:00 X:FF Y:00 P:26 SP:FF CYC: 36 SL:144
C7A8  AD 02 20  LDA $2002 = FF                  A:00 X:FF Y:00 P:26 SP:FF CYC: 45 SL:144
C7AB  29 80     AND #$80                        A:10 X:FF Y:00 P:24 SP:FF CYC: 57 SL:144
C7AD  F0 F9     BEQ $C7A8                       A:00 X:FF Y:00 P:26 SP:FF CYC: 63 SL:144
C7A8  AD 02 20  LDA $2002 = FF                  A:00 X:FF Y:00 P:26 SP:FF CYC: 72 SL:144
C7AB  29 80     AND #$80                        A:10 X:FF Y:00 P:24 SP:FF CYC: 84 SL:144
C7AD  F0 F9     BEQ $C7A8                       A:00 X:FF Y:00 P:26 SP:FF CYC: 90 SL:144
C7A8  AD 02 20  LDA $2002 = FF                  A:00 X:FF Y:00 P:26 SP:FF CYC: 99 SL:144
C7AB  29 80     AND #$80                        A:10 X:FF Y:00 P:24 SP:FF CYC:111 SL:144
C7AD  F0 F9     BEQ $C7A8                       A:00 X:FF Y:00 P:26 SP:FF CYC:117 SL:144
C7A8  AD 02 20  LDA $2002 = FF                  A:00 X:FF Y:00 P:26 SP:FF CYC:126 SL:144
C7AB  29 80     AND #$80                        A:10 X:FF Y:00 P:24 SP:FF CYC:138 SL:144
C7AD  F0 F9     BEQ $C7A8                       A:00 X:FF Y:00 P:26 SP:FF CYC:144 SL:144
C7A8  AD 02 20  LDA $2002 = FF                  A:00 X:FF Y:00 P:26 SP:FF CYC:153 SL:144
C7AB  29 80     AND #$80                        A:10 X:FF Y:00 P:24 SP:FF CYC:165 SL:144
C7AD  F0 F9     BEQ $C7A8                       A:00 X:FF Y:00 P:26 SP:FF CYC:171 SL:144
C7A8  AD 02 20  LDA $2002 = FF                  A:00 X:FF Y:00 P:26 SP:FF CYC:180 SL:144
C7AB  29 80     AND #$80                        A:10 X:FF Y:00 P:24 SP:FF CYC:192 SL:144
C7AD  F0 F9     BEQ $C7A8                       A:00 X:FF Y:00 P:26 SP:FF CYC:198 SL:144
C7A8  AD 02 20  LDA $2002 = FF                  A:00 X:FF Y:00 P:26 SP:FF CYC:207 SL:144
C7AB  29 80     AND #$80                        A:10 X:FF Y:00 P:24 SP:FF CYC:219 SL:144
C7AD  F0 F9     BEQ $C7A8                       A:00 X:FF Y:00 P:26 SP:FF CYC:225 SL:144
C7A8  AD 02 20  LDA $2002 = FF                  A:00 X:FF Y:00 P:26 SP:FF CYC:234 SL:144
C7AB  29 80     AND #$80                        A:10 X:FF Y:00 P:24 SP:FF CYC:246 SL:144
C7AD  F0 F9     BEQ $C7A8                       A:00 X:FF Y:00 P:26 SP:FF CYC:252 SL:144
C7A8  AD 02 20  LDA $2002 = FF                  A:00 X:FF Y:00 P:26 SP:FF CYC:261 SL:144
C7AB  29 80     AND #$80                        A:10 X:FF Y:00 P:24 SP:FF CYC:273 SL:144
C7AD  F0 F9     BEQ $C7A8                       A:00 X:FF Y:00 P:26 SP:FF CYC:279 SL:144
C7A8  AD 02 20  LDA $2002 = FF                  A:00 X:FF Y:00 P:26 SP:FF CYC:288 SL:144
C7AB  29 80     AND #$80                        A:10 X:FF Y:00 P:24 SP:FF CYC:300 SL:144
C7AD  F0 F9     BEQ $C7A8                       A:00 X:FF Y:00 P:26 SP:FF CYC:306 SL:144
C7A8  AD 02 20  LDA $2002 = FF                  A:00 X:FF Y:00 P:26 SP:FF CYC:315 SL:144
C7AB  29 80     AND #$80                        A:10 X:FF Y:00 P:24 SP:FF CYC:327 SL:144
C7AD  F0 F9     BEQ $C7A8                       A:00 X:FF Y:00 P:26 SP:FF CYC:333 SL:144
C7A8  AD 02 20  LDA $2002 = FF                  A:00 X:FF Y:00 P:26 SP:FF CYC:  1 SL:145
C7AB  29 80     AND #$80                        A:10 X:FF Y:00 P:24 SP:FF CYC: 13 SL:145
C7AD  F0 F9     BEQ $C7A8                       A:00 X:FF Y:00 P:26 SP:FF CYC: 19 SL:145
C7A8  AD 02 20  LDA $2002 = FF                  A:00 X:FF Y:00 P:26 SP:FF CYC: 28 SL:145
C7AB  29 80     AND #$80                        A:10 X:FF Y:00 P:24 SP:FF CYC: 40 SL:145
C7AD  F0 F9     BEQ $C7A8                       A:00 X:FF Y:00 P:26 SP:FF CYC: 46 SL:145
C7A8  AD 02 20  LDA $2002 = FF                  A:00 X:FF Y:00 P:26 SP:FF CYC: 55 SL:145
C7AB  29 80     AND #$80                        A:10 X:FF Y:00 P:24 SP:FF CYC: 67 SL:145
C7AD  F0 F9     BEQ $C7A8                       A:00 X:FF Y:00 P:26 SP:FF CYC: 73 SL:145
C7A8  AD 02 20  LDA $2002 = FF                  A:00 X:FF Y:00 P:26 SP:FF CYC: 82 SL:145
C7AB  29 80     AND #$80                        A:10 X:FF Y:00 P:24 SP:FF CYC: 94 SL:145
C7AD  F0 F9     BEQ $C7A8                       A:00 X:FF Y:00 P:26 SP:FF CYC:100 SL:145
C7A8  AD 02 20  LDA $2002 = FF                  A:00 X:FF Y:00 P:26 SP:FF CYC:109 SL:145
C7AB  29 80     AND #$80                        A:10 X:FF Y:00 P:24 SP:FF CYC:121 SL:145
C7AD  F0 F9     BEQ $C7A8                       A:00 X:FF Y:00 P:26 SP:FF CYC:127 SL:145
C7A8  AD 02 20  LDA $2002 = FF                  A:00 X:FF Y:00 P:26 SP:FF CYC:136 SL:145
C7AB  29 80     AND #$80                        A:10 X:FF Y:00 P:24 SP:FF CYC:148 SL:145
C7AD  F0 F9     BEQ $C7A8                       A:00 X:FF Y:00 P:26 SP:FF CYC:154 SL:145
C7A8  AD 02 20  LDA $2002 = FF                  A:00 X:FF Y:00 P:26 SP:FF CYC:163 SL:145
C7AB  29 80     AND #$80                        A:10 X:FF Y:00 P:24 SP:FF CYC:175 SL:145
C7AD  F0 F9     BEQ $C7A8                       A:00 X:FF Y:00 P:26 SP:FF CYC:181 SL:145
C7A8  AD 02 20  LDA $2002 = FF                  A:00 X:FF Y:00 P:26 SP:FF CYC:190 SL:145
C7AB  29 80     AND #$80                        A:10 X:FF Y:00 P:24 SP:FF CYC:202 SL:145
C7AD  F0 F9     BEQ $C7A8                       A:00 X:FF Y:00 P:26 SP:FF CYC:208 SL:145
C7A8  AD 02 20  LDA $2002 = FF                  A:00 X:FF Y:00 P:26 SP:FF CYC:217 SL:145
C7AB  29 80     AND #$80                        A:10 X:FF Y:00 P:24 SP:FF CYC:229 SL:145
C7AD  F0 F9     BEQ $C7A8                       A:00 X:FF Y:00 P:26 SP:FF CYC:235 SL:145
C7A8  AD 02 20  LDA $2002 = FF                  A:00 X:FF Y:00 P:26 SP:FF CYC:244 SL:145
C7AB  29 80     AND #$80                        A:10 X:FF Y:00 P:24 SP:FF CYC:256 SL:145
C7AD  F0 F9     BEQ $C7A8                       A:00 X:FF Y:00 P:26 SP:FF CYC:262 SL:145
C7A8  AD 02 20  LDA $2002 = FF                  A:00 X:FF Y:00 P:26 SP:FF CYC:271 SL:145
C7AB  29 80     AND #$80                        A:10 X:FF Y:00 P:24 SP:FF CYC:283 SL:145
C7AD  F0 F9     BEQ $C7A8                       A:00 X:FF Y:00 P:26 SP:FF CYC:289 SL:145
C7A8  AD 02 20  LDA $2002 = FF                  A:00 X:FF Y:00 P:26 SP:FF CYC:298 SL:145
C7AB  29 80     AND #$80                        A:10 X:FF Y:00 P:24 SP:FF CYC:310 SL:145
C7AD  F0 F9     BEQ $C7A8                       A:00 X:FF Y:00 P:26 SP:FF CYC:316 SL:145
C7A8  AD 02 20  LDA $2002 = FF                  A:00 X:FF Y:00 P:26 SP:FF CYC:325 SL:145
C7AB  29 80     AND #$80                        A:10 X:FF Y:00 P:24 SP:FF CYC:337 SL:145
C7AD  F0 F9     BEQ $C7A8                       A:00 X:FF Y:00 P:26 SP:FF CYC:  2 SL:146
C7A8  AD 02 20  LDA $2002 = FF                  A:00 X:FF Y:00 P:26 SP:FF CYC: 11 SL:146
C7AB  29 80     AND #$80                        A:10 X:FF Y:00 P:24 SP:FF CYC: 23 SL:146
C7AD  F0 F9     BEQ $C7A8                       A:00 X:FF Y:00 P:26 SP:FF CYC: 29 SL:146
C7A8  AD 02 20  LDA $2002 = FF                  A:00 X:FF Y:00 P:26 SP:FF CYC: 38 SL:146
C7AB  29 80     AND #$80                        A:10 X:FF Y:00 P:24 SP:FF CYC: 50 SL:146
C7AD  F0 F9     BEQ $C7A8                       A:00 X:FF Y:00 P:26 SP:FF CYC: 56 SL:146
C7A8  AD 02 20  LDA $2002 = FF                  A:00 X:FF Y:00 P:26 SP:FF CYC: 65 SL:146
C7AB  29 80     AND #$80                        A:10 X:FF Y:00 P:24 SP:FF CYC: 77 SL:146
C7AD  F0 F9     BEQ $C7A8                       A:00 X:FF Y:00 P:26 SP:FF CYC: 83 SL:146
C7A8  AD 02 20  LDA $2002 = FF                  A:00 X:FF Y:00 P:26 SP:FF CYC: 92 SL:146
C7AB  29 80     AND #$80                        A:10 X:FF Y:00 P:24 SP:FF CYC:104 SL:146
C7AD  F0 F9     BEQ $C7A8                       A:00 X:FF Y:00 P:26 SP:FF CYC:110 SL:146
C7A8  AD 02 20  LDA $2002 = FF                  A:00 X:FF Y:00 P:26 SP:FF CYC:119 SL:146
C7AB  29 80     AND #$80                        A:10 X:FF Y:00 P:24 SP:FF CYC:131 SL:146
C7AD  F0 F9     BEQ $C7A8                       A:00 X:FF Y:00 P:26 SP:FF CYC:137 SL:146
C7A8  AD 02 20  LDA $2002 = FF                  A:00 X:FF Y:00 P:26 SP:FF CYC:146 SL:146
C7AB  29 80     AND #$80                        A:10 X:FF Y:00 P:24 SP:FF CYC:158 SL:146
C7AD  F0 F9     BEQ $C7A8                       A:00 X:FF Y:00 P:26 SP:FF CYC:164 SL:146
C7A8  AD 02 20  LDA $2002 = FF                  A:00 X:FF Y:00 P:26 SP:FF CYC:173 SL:146
C7AB  29 80     AND #$80                        A:10 X:FF Y:00 P:24 SP:FF CYC:185 SL:146
C7AD  F0 F9     BEQ $C7A8                       A:00 X:FF Y:00 P:26 SP:FF CYC:191 SL:146
C7A8  AD 02 20  LDA $2002 = FF                  A:00 X:FF Y:00 P:26 SP:FF CYC:200 SL:146
C7AB  29 80     AND #$80                        A:10 X:FF Y:00 P:24 SP:FF CYC:212 SL:146
C7AD  F0 F9     BEQ $C7A8                       A:00 X:FF Y:00 P:26 SP:FF CYC:218 SL:146
C7A8  AD 02 20  LDA $2002 = FF                  A:00 X:FF Y:00 P:26 SP:FF CYC:227 SL:146
C7AB  29 80     AND #$80                        A:10 X:FF Y:00 P:24 SP:FF CYC:239 SL:146
C7AD  F0 F9     BEQ $C7A8                       A:00 X:FF Y:00 P:26 SP:FF CYC:245 SL:146
C7A8  AD 02 20  LDA $2002 = FF                  A:00 X:FF Y:00 P:26 SP:FF CYC:254 SL:146
C7AB  29 80     AND #$80                        A:10 X:FF Y:00 P:24 SP:FF CYC:266 SL:146
C7AD  F0 F9     BEQ $C7A8                       A:00 X:FF Y:00 P:26 SP:FF CYC:272 SL:146
C7A8  AD 02 20  LDA $2002 = FF                  A:00 X:FF Y:00 P:26 SP:FF CYC:281 SL:146
C7AB  29 80     AND #$80                        A:10 X:FF Y:00 P:24 SP:FF CYC:293 SL:146
C7AD  F0 F9     BEQ $C7A8                       A:00 X:FF Y:00 P:26 SP:FF CYC:299 SL:146
C7A8  AD 02 20  LDA $2002 = FF                  A:00 X:FF Y:00 P:26 SP:FF CYC:308 SL:146
C7AB  29 80     AND #$80                        A:10 X:FF Y:00 P:24 SP:FF CYC:320 SL:146
C7AD  F0 F9     BEQ $C7A8                       A:00 X:FF Y:00 P:26 SP:FF CYC:326 SL:146
C7A8  AD 02 20  LDA $2002 = FF                  A:00 X:FF Y:00 P:26 SP:FF CYC:335 SL:146
C7AB  29 80     AND #$80                        A:10 X:FF Y:00 P:24 SP:FF CYC:  6 SL:147
C7AD  F0 F9     BEQ $C7A8                       A:00 X:FF Y:00 P:26 SP:FF CYC: 12 SL:147
C7A8  AD 02 20  LDA $2002 = FF                  A:00 X:FF Y:00 P:26 SP:FF CYC: 21 SL:147
C7AB  29 80     AND #$80                        A:10 X:FF Y:00 P:24 SP:FF CYC: 33 SL:147
C7AD  F0 F9     BEQ $C7A8                       A:00 X:FF Y:00 P:26 SP:FF CYC: 39 SL:147
C7A8  AD 02 20  LDA $2002 = FF                  A:00 X:FF Y:00 P:26 SP:FF CYC: 48 SL:147
C7AB  29 80     AND #$80                        A:10 X:FF Y:00 P:24 SP:FF CYC: 60 SL:147
C7AD  F0 F9     BEQ $C7A8                       A:00 X:FF Y:00 P:26 SP:FF CYC: 66 SL:147
C7A8  AD 02 20  LDA $2002 = FF                  A:00 X:FF Y:00 P:26 SP:FF CYC: 75 SL:147
C7AB  29 80     AND #$80                        A:10 X:FF Y:00 P:24 SP:FF CYC: 87 SL:147
C7AD  F0 F9     BEQ $C7A8                       A:00 X:FF Y:00 P:26 SP:FF CYC: 93 SL:147
C7A8  AD 02 20  LDA $2002 = FF                  A:00 X:FF Y:00 P:26 SP:FF CYC:102 SL:147
C7AB  29 80     AND #$80                        A:10 X:FF Y:00 P:24 SP:FF CYC:114 SL:147
C7AD  F0 F9     BEQ $C7A8                       A:00 X:FF Y:00 P:26 SP:FF CYC:120 SL:147
C7A8  AD 02 20  LDA $2002 = FF                  A:00 X:FF Y:00 P:26 SP:FF CYC:129 SL:147
C7AB  29 80     AND #$80                        A:10 X:FF Y:00 P:24 SP:FF CYC:141 SL:147
C7AD  F0 F9     BEQ $C7A8                       A:00 X:FF Y:00 P:26 SP:FF CYC:147 SL:147
C7A8  AD 02 20  LDA $2002 = FF                  A:00 X:FF Y:00 P:26 SP:FF CYC:156 SL:147
C7AB  29 80     AND #$80                        A:10 X:FF Y:00 P:24 SP:FF CYC:168 SL:147
C7AD  F0 F9     BEQ $C7A8                       A:00 X:FF Y:00 P:26 SP:FF CYC:174 SL:147
C7A8  AD 02 20  LDA $2002 = FF                  A:00 X:FF Y:00 P:26 SP:FF CYC:183 SL:147
C7AB  29 80     AND #$80                        A:10 X:FF Y:00 P:24 SP:FF CYC:195 SL:147
C7AD  F0 F9     BEQ $C7A8                       A:00 X:FF Y:00 P:26 SP:FF CYC:201 SL:147
C7A8  AD 02 20  LDA $2002 = FF                  A:00 X:FF Y:00 P:26 SP:FF CYC:210 SL:147
C7AB  29 80     AND #$80                        A:10 X:FF Y:00 P:24 SP:FF CYC:222 SL:147
C7AD  F0 F9     BEQ $C7A8                       A:00 X:FF Y:00 P:26 SP:FF CYC:228 SL:147
C7A8  AD 02 20  LDA $2002 = FF                  A:00 X:FF Y:00 P:26 SP:FF CYC:237 SL:147
C7AB  29 80     AND #$80                        A:10 X:FF Y:00 P:24 SP:FF CYC:249 SL:147
C7AD  F0 F9     BEQ $C7A8                       A:00 X:FF Y:00 P:26 SP:FF CYC:255 SL:147
C7A8  AD 02 20  LDA $2002 = FF                  A:00 X:FF Y:00 P:26 SP:FF CYC:264 SL:147
C7AB  29 80     AND #$80                        A:10 X:FF Y:00 P:24 SP:FF CYC:276 SL:147
C7AD  F0 F9     BEQ $C7A8                       A:00 X:FF Y:00 P:26 SP:FF CYC:282 SL:147
C7A8  AD 02 20  LDA $2002 = FF                  A:00 X:FF Y:00 P:26 SP:FF CYC:291 SL:147
C7AB  29 80     AND #$80                        A:10 X:FF Y:00 P:24 SP:FF CYC:303 SL:147
C7AD  F0 F9     BEQ $C7A8                       A:00 X:FF Y:00 P:26 SP:FF CYC:309 SL:147
C7A8  AD 02 20  LDA $2002 = FF                  A:00 X:FF Y:00 P:26 SP:FF CYC:318 SL:147
C7AB  29 80     AND #$80                        A:10 X:FF Y:00 P:24 SP:FF CYC:330 SL:147
C7AD  F0 F9     BEQ $C7A8                       A:00 X:FF Y:00 P:26 SP:FF CYC:336 SL:147
C7A8  AD 02 20  LDA $2002 = FF                  A:00 X:FF Y:00 P:26 SP:FF CYC:  4 SL:148
C7AB  29 80     AND #$80                        A:10 X:FF Y:00 P:24 SP:FF CYC: 16 SL:148
C7AD  F0 F9     BEQ $C7A8                       A:00 X:FF Y:00 P:26 SP:FF CYC: 22 SL:148
C7A8  AD 02 20  LDA $2002 = FF                  A:00 X:FF Y:00 P:26 SP:FF CYC: 31 SL:148
C7AB  29 80     AND #$80                        A:10 X:FF Y:00 P:24 SP:FF CYC: 43 SL:148
C7AD  F0 F9     BEQ $C7A8                       A:00 X:FF Y:00 P:26 SP:FF CYC: 49 SL:148
C7A8  AD 02 20  LDA $2002 = FF                  A:00 X:FF Y:00 P:26 SP:FF CYC: 58 SL:148
C7AB  29 80     AND #$80                        A:10 X:FF Y:00 P:24 SP:FF CYC: 70 SL:148
C7AD  F0 F9     BEQ $C7A8                       A:00 X:FF Y:00 P:26 SP:FF CYC: 76 SL:148
C7A8  AD 02 20  LDA $2002 = FF                  A:00 X:FF Y:00 P:26 SP:FF CYC: 85 SL:148
C7AB  29 80     AND #$80                        A:10 X:FF Y:00 P:24 SP:FF CYC: 97 SL:148
C7AD  F0 F9     BEQ $C7A8                       A:00 X:FF Y:00 P:26 SP:FF CYC:103 SL:148
C7A8  AD 02 20  LDA $2002 = FF                  A:00 X:FF Y:00 P:26 SP:FF CYC:112 SL:148
C7AB  29 80     AND #$80                        A:10 X:FF Y:00 P:24 SP:FF CYC:124 SL:148
C7AD  F0 F9     BEQ $C7A8                       A:00 X:FF Y:00 P:26 SP:FF CYC:130 SL:148
C7A8  AD 02 20  LDA $2002 = FF                  A:00 X:FF Y:00 P:26 SP:FF CYC:139 SL:148
C7AB  29 80     AND #$80                        A:10 X:FF Y:00 P:24 SP:FF CYC:151 SL:148
C7AD  F0 F9     BEQ $C7A8                       A:00 X:FF Y:00 P:26 SP:FF CYC:157 SL:148
C7A8  AD 02 20  LDA $2002 = FF                  A:00 X:FF Y:00 P:26 SP:FF CYC:166 SL:148
C7AB  29 80     AND #$80                        A:10 X:FF Y:00 P:24 SP:FF CYC:178 SL:148
C7AD  F0 F9     BEQ $C7A8                       A:00 X:FF Y:00 P:26 SP:FF CYC:184 SL:148
C7A8  AD 02 20  LDA $2002 = FF                  A:00 X:FF Y:00 P:26 SP:FF CYC:193 SL:148
C7AB  29 80     AND #$80                        A:10 X:FF Y:00 P:24 SP:FF CYC:205 SL:148
C7AD  F0 F9     BEQ $C7A8                       A:00 X:FF Y:00 P:26 SP:FF CYC:211 SL:148
C7A8  AD 02 20  LDA $2002 = FF                  A:00 X:FF Y:00 P:26 SP:FF CYC:220 SL:148
C7AB  29 80     AND #$80                        A:10 X:FF Y:00 P:24 SP:FF CYC:232 SL:148
C7AD  F0 F9     BEQ $C7A8                       A:00 X:FF Y:00 P:26 SP:FF CYC:238 SL:148
C7A8  AD 02 20  LDA $2002 = FF                  A:00 X:FF Y:00 P:26 SP:FF CYC:247 SL:148
C7AB  29 80     AND #$80                        A:10 X:FF Y:00 P:24 SP:FF CYC:259 SL:148
C7AD  F0 F9     BEQ $C7A8                       A:00 X:FF Y:00 P:26 SP:FF CYC:265 SL:148
C7A8  AD 02 20  LDA $2002 = FF                  A:00 X:FF Y:00 P:26 SP:FF CYC:274 SL:148
C7AB  29 80     AND #$80                        A:10 X:FF Y:00 P:24 SP:FF CYC:286 SL:148
C7AD  F0 F9     BEQ $C7A8                       A:00 X:FF Y:00 P:26 SP:FF CYC:292 SL:148
C7A8  AD 02 20  LDA $2002 = FF                  A:00 X:FF Y:00 P:26 SP:FF CYC:301 SL:148
C7AB  29 80     AND #$80                        A:10 X:FF Y:00 P:24 SP:FF CYC:313 SL:148
C7AD  F0 F9     BEQ $C7A8                       A:00 X:FF Y:00 P:26 SP:FF CYC:319 SL:148
C7A8  AD 02 20  LDA $2002 = FF                  A:00 X:FF Y:00 P:26 SP:FF CYC:328 SL:148
C7AB  29 80     AND #$80                        A:10 X:FF Y:00 P:24 SP:FF CYC:340 SL:148
C7AD  F0 F9     BEQ $C7A8                       A:00 X:FF Y:00 P:26 SP:FF CYC:  5 SL:149
C7A8  AD 02 20  LDA $2002 = FF                  A:00 X:FF Y:00 P:26 SP:FF CYC: 14 SL:149
C7AB  29 80     AND #$80                        A:10 X:FF Y:00 P:24 SP:FF CYC: 26 SL:149
C7AD  F0 F9     BEQ $C7A8                       A:00 X:FF Y:00 P:26 SP:FF CYC: 32 SL:149
C7A8  AD 02 20  LDA $2002 = FF                  A:00 X:FF Y:00 P:26 SP:FF CYC: 41 SL:149
C7AB  29 80     AND #$80                        A:10 X:FF Y:00 P:24 SP:FF CYC: 53 SL:149
C7AD  F0 F9     BEQ $C7A8                       A:00 X:FF Y:00 P:26 SP:FF CYC: 59 SL:149
C7A8  AD 02 20  LDA $2002 = FF                  A:00 X:FF Y:00 P:26 SP:FF CYC: 68 SL:149
C7AB  29 80     AND #$80                        A:10 X:FF Y:00 P:24 SP:FF CYC: 80 SL:149
C7AD  F0 F9     BEQ $C7A8                       A:00 X:FF Y:00 P:26 SP:FF CYC: 86 SL:149
C7A8  AD 02 20  LDA $2002 = FF                  A:00 X:FF Y:00 P:26 SP:FF CYC: 95 SL:149
C7AB  29 80     AND #$80                        A:10 X:FF Y:00 P:24 SP:FF CYC:107 SL:149
C7AD  F0 F9     BEQ $C7A8                       A:00 X:FF Y:00 P:26 SP:FF CYC:113 SL:149
C7A8  AD 02 20  LDA $2002 = FF                  A:00 X:FF Y:00 P:26 SP:FF CYC:122 SL:149
C7AB  29 80     AND #$80                        A:10 X:FF Y:00 P:24 SP:FF CYC:134 SL:149
C7AD  F0 F9     BEQ $C7A8                       A:00 X:FF Y:00 P:26 SP:FF CYC:140 SL:149
C7A8  AD 02 20  LDA $2002 = FF                  A:00 X:FF Y:00 P:26 SP:FF CYC:149 SL:149
C7AB  29 80     AND #$80                        A:10 X:FF Y:00 P:24 SP:FF CYC:161 SL:149
C7AD  F0 F9     BEQ $C7A8                       A:00 X:FF Y:00 P:26 SP:FF CYC:167 SL:149
C7A8  AD 02 20  LDA $2002 = FF                  A:00 X:FF Y:00 P:26 SP:FF CYC:176 SL:149
C7AB  29 80     AND #$80                        A:10 X:FF Y:00 P:24 SP:FF CYC:188 SL:149
C7AD  F0 F9     BEQ $C7A8                       A:00 X:FF Y:00 P:26 SP:FF CYC:194 SL:149
C7A8  AD 02 20  LDA $2002 = FF                  A:00 X:FF Y:00 P:26 SP:FF CYC:203 SL:149
C7AB  29 80     AND #$80                        A:10 X:FF Y:00 P:24 SP:FF CYC:215 SL:149
C7AD  F0 F9     BEQ $C7A8                       A:00 X:FF Y:00 P:26 SP:FF CYC:221 SL:149
C7A8  AD 02 20  LDA $2002 = FF                  A:00 X:FF Y:00 P:26 SP:FF CYC:230 SL:149
C7AB  29 80     AND #$80                        A:10 X:FF Y:00 P:24 SP:FF CYC:242 SL:149
C7AD  F0 F9     BEQ $C7A8                       A:00 X:FF Y:00 P:26 SP:FF CYC:248 SL:149
C7A8  AD 02 20  LDA $2002 = FF                  A:00 X:FF Y:00 P:26 SP:FF CYC:257 SL:149
C7AB  29 80     AND #$80                        A:10 X:FF Y:00 P:24 SP:FF CYC:269 SL:149
C7AD  F0 F9     BEQ $C7A8                       A:00 X:FF Y:00 P:26 SP:FF CYC:275 SL:149
C7A8  AD 02 20  LDA $2002 = FF                  A:00 X:FF Y:00 P:26 SP:FF CYC:284 SL:149
C7AB  29 80     AND #$80                        A:10 X:FF Y:00 P:24 SP:FF CYC:296 SL:149
C7AD  F0 F9     BEQ $C7A8                       A:00 X:FF Y:00 P:26 SP:FF CYC:302 SL:149
C7A8  AD 02 20  LDA $2002 = FF                  A:00 X:FF Y:00 P:26 SP:FF CYC:311 SL:149
C7AB  29 80     AND #$80                        A:10 X:FF Y:00 P:24 SP:FF CYC:323 SL:149
C7AD  F0 F9     BEQ $C7A8                       A:00 X:FF Y:00 P:26 SP:FF CYC:329 SL:149
C7A8  AD 02 20  LDA $2002 = FF                  A:00 X:FF Y:00 P:26 SP:FF CYC:338 SL:149
C7AB  29 80     AND #$80                        A:10 X:FF Y:00 P:24 SP:FF CYC:  9 SL:150
C7AD  F0 F9     BEQ $C7A8                       A:00 X:FF Y:00 P:26 SP:FF CYC: 15 SL:150
C7A8  AD 02 20  LDA $2002 = FF                  A:00 X:FF Y:00 P:26 SP:FF CYC: 24 SL:150
C7AB  29 80     AND #$80                        A:10 X:FF Y:00 P:24 SP:FF CYC: 36 SL:150
C7AD  F0 F9     BEQ $C7A8                       A:00 X:FF Y:00 P:26 SP:FF CYC: 42 SL:150
C7A8  AD 02 20  LDA $2002 = FF                  A:00 X:FF Y:00 P:26 SP:FF CYC: 51 SL:150
C7AB  29 80     AND #$80                        A:10 X:FF Y:00 P:24 SP:FF CYC: 63 SL:150
C7AD  F0 F9     BEQ $C7A8                       A:00 X:FF Y:00 P:26 SP:FF CYC: 69 SL:150
C7A8  AD 02 20  LDA $2002 = FF                  A:00 X:FF Y:00 P:26 SP:FF CYC: 78 SL:150
C7AB  29 80     AND #$80                        A:10 X:FF Y:00 P:24 SP:FF CYC: 90 SL:150
C7AD  F0 F9     BEQ $C7A8                       A:00 X:FF Y:00 P:26 SP:FF CYC: 96 SL:150
C7A8  AD 02 20  LDA $2002 = FF                  A:00 X:FF Y:00 P:26 SP:FF CYC:105 SL:150
C7AB  29 80     AND #$80                        A:10 X:FF Y:00 P:24 SP:FF CYC:117 SL:150
C7AD  F0 F9     BEQ $C7A8                       A:00 X:FF Y:00 P:26 SP:FF CYC:123 SL:150
C7A8  AD 02 20  LDA $2002 = FF                  A:00 X:FF Y:00 P:26 SP:FF CYC:132 SL:150
C7AB  29 80     AND #$80                        A:10 X:FF Y:00 P:24 SP:FF CYC:144 SL:150
C7AD  F0 F9     BEQ $C7A8                       A:00 X:FF Y:00 P:26 SP:FF CYC:150 SL:150
C7A8  AD 02 20  LDA $2002 = FF                  A:00 X:FF Y:00 P:26 SP:FF CYC:159 SL:150
C7AB  29 80     AND #$80                        A:10 X:FF Y:00 P:24 SP:FF CYC:171 SL:150
C7AD  F0 F9     BEQ $C7A8                       A:00 X:FF Y:00 P:26 SP:FF CYC:177 SL:150
C7A8  AD 02 20  LDA $2002 = FF                  A:00 X:FF Y:00 P:26 SP:FF CYC:186 SL:150
C7AB  29 80     AND #$80                        A:10 X:FF Y:00 P:24 SP:FF CYC:198 SL:150
C7AD  F0 F9     BEQ $C7A8                       A:00 X:FF Y:00 P:26 SP:FF CYC:204 SL:150
C7A8  AD 02 20  LDA $2002 = FF                  A:00 X:FF Y:00 P:26 SP:FF CYC:213 SL:150
C7AB  29 80     AND #$80                        A:10 X:FF Y:00 P:24 SP:FF CYC:225 SL:150
C7AD  F0 F9     BEQ $C7A8                       A:00 X:FF Y:00 P:26 SP:FF CYC:231 SL:150
C7A8  AD 02 20  LDA $2002 = FF                  A:00 X:FF Y:00 P:26 SP:FF CYC:240 SL:150
C7AB  29 80     AND #$80                        A:10 X:FF Y:00 P:24 SP:FF CYC:252 SL:150
C7AD  F0 F9     BEQ $C7A8                       A:00 X:FF Y:00 P:26 SP:FF CYC:258 SL:150
C7A8  AD 02 20  LDA $2002 = FF                  A:00 X:FF Y:00 P:26 SP:FF CYC:267 SL:150
C7AB  29 80     AND #$80                        A:10 X:FF Y:00 P:24 SP:FF CYC:279 SL:150
C7AD  F0 F9     BEQ $C7A8                       A:00 X:FF Y:00 P:26 SP:FF CYC:285 SL:150
C7A8  AD 02 20  LDA $2002 = FF                  A:00 X:FF Y:00 P:26 SP:FF CYC:294 SL:150
C7AB  29 80     AND #$80                        A:10 X:FF Y:00 P:24 SP:FF CYC:306 SL:150
C7AD  F0 F9     BEQ $C7A8                       A:00 X:FF Y:00 P:26 SP:FF CYC:312 SL:150
C7A8  AD 02 20  LDA $2002 = FF                  A:00 X:FF Y:00 P:26 SP:FF CYC:321 SL:150
C7AB  29 80     AND #$80                        A:10 X:FF Y:00 P:24 SP:FF CYC:333 SL:150
C7AD  F0 F9     BEQ $C7A8                       A:00 X:FF Y:00 P:26 SP:FF CYC:339 SL:150
C7A8  AD 02 20  LDA $2002 = FF                  A:00 X:FF Y:00 P:26 SP:FF CYC:  7 SL:151
C7AB  29 80     AND #$80                        A:10 X:FF Y:00 P:24 SP:FF CYC: 19 SL:151
C7AD  F0 F9     BEQ $C7A8                       A:00 X:FF Y:00 P:26 SP:FF CYC: 25 SL:151
C7A8  AD 02 20  LDA $2002 = FF                  A:00 X:FF Y:00 P:26 SP:FF CYC: 34 SL:151
C7AB  29 80     AND #$80                        A:10 X:FF Y:00 P:24 SP:FF CYC: 46 SL:151
C7AD  F0 F9     BEQ $C7A8                       A:00 X:FF Y:00 P:26 SP:FF CYC: 52 SL:151
C7A8  AD 02 20  LDA $2002 = FF                  A:00 X:FF Y:00 P:26 SP:FF CYC: 61 SL:151
C7AB  29 80     AND #$80                        A:10 X:FF Y:00 P:24 SP:FF CYC: 73 SL:151
C7AD  F0 F9     BEQ $C7A8                       A:00 X:FF Y:00 P:26 SP:FF CYC: 79 SL:151
C7A8  AD 02 20  LDA $2002 = FF                  A:00 X:FF Y:00 P:26 SP:FF CYC: 88 SL:151
C7AB  29 80     AND #$80                        A:10 X:FF Y:00 P:24 SP:FF CYC:100 SL:151
C7AD  F0 F9     BEQ $C7A8                       A:00 X:FF Y:00 P:26 SP:FF CYC:106 SL:151
C7A8  AD 02 20  LDA $2002 = FF                  A:00 X:FF Y:00 P:26 SP:FF CYC:115 SL:151
C7AB  29 80     AND #$80                        A:10 X:FF Y:00 P:24 SP:FF CYC:127 SL:151
C7AD  F0 F9     BEQ $C7A8                       A:00 X:FF Y:00 P:26 SP:FF CYC:133 SL:151
C7A8  AD 02 20  LDA $2002 = FF                  A:00 X:FF Y:00 P:26 SP:FF CYC:142 SL:151
C7AB  29 80     AND #$80                        A:10 X:FF Y:00 P:24 SP:FF CYC:154 SL:151
C7AD  F0 F9     BEQ $C7A8                       A:00 X:FF Y:00 P:26 SP:FF CYC:160 SL:151
C7A8  AD 02 20  LDA $2002 = FF                  A:00 X:FF Y:00 P:26 SP:FF CYC:169 SL:151
C7AB  29 80     AND #$80                        A:10 X:FF Y:00 P:24 SP:FF CYC:181 SL:151
C7AD  F0 F9     BEQ $C7A8                       A:00 X:FF Y:00 P:26 SP:FF CYC:187 SL:151
C7A8  AD 02 20  LDA $2002 = FF                  A:00 X:FF Y:00 P:26 SP:FF CYC:196 SL:151
C7AB  29 80     AND #$80                        A:10 X:FF Y:00 P:24 SP:FF CYC:208 SL:151
C7AD  F0 F9     BEQ $C7A8                       A:00 X:FF Y:00 P:26 SP:FF CYC:214 SL:151
C7A8  AD 02 20  LDA $2002 = FF                  A:00 X:FF Y:00 P:26 SP:FF CYC:223 SL:151
C7AB  29 80     AND #$80                        A:10 X:FF Y:00 P:24 SP:FF CYC:235 SL:151
C7AD  F0 F9     BEQ $C7A8                       A:00 X:FF Y:00 P:26 SP:FF CYC:241 SL:151
C7A8  AD 02 20  LDA $2002 = FF                  A:00 X:FF Y:00 P:26 SP:FF CYC:250 SL:151
C7AB  29 80     AND #$80                        A:10 X:FF Y:00 P:24 SP:FF CYC:262 SL:151
C7AD  F0 F9     BEQ $C7A8                       A:00 X:FF Y:00 P:26 SP:FF CYC:268 SL:151
C7A8  AD 02 20  LDA $2002 = FF                  A:00 X:FF Y:00 P:26 SP:FF CYC:277 SL:151
C7AB  29 80     AND #$80                        A:10 X:FF Y:00 P:24 SP:FF CYC:289 SL:151
C7AD  F0 F9     BEQ $C7A8                       A:00 X:FF Y:00 P:26 SP:FF CYC:295 SL:151
C7A8  AD 02 20  LDA $2002 = FF                  A:00 X:FF Y:00 P:26 SP:FF CYC:304 SL:151
C7AB  29 80     AND #$80                        A:10 X:FF Y:00 P:24 SP:FF CYC:316 SL:151
C7AD  F0 F9     BEQ $C7A8                       A:00 X:FF Y:00 P:26 SP:FF CYC:322 SL:151
C7A8  AD 02 20  LDA $2002 = FF                  A:00 X:FF Y:00 P:26 SP:FF CYC:331 SL:151
C7AB  29 80     AND #$80                        A:10 X:FF Y:00 P:24 SP:FF CYC:  2 SL:152
C7AD  F0 F9     BEQ $C7A8                       A:00 X:FF Y:00 P:26 SP:FF CYC:  8 SL:152
C7A8  AD 02 20  LDA $2002 = FF                  A:00 X:FF Y:00 P:26 SP:FF CYC: 17 SL:152
C7AB  29 80     AND #$80                        A:10 X:FF Y:00 P:24 SP:FF CYC: 29 SL:152
C7AD  F0 F9     BEQ $C7A8                       A:00 X:FF Y:00 P:26 SP:FF CYC: 35 SL:152
C7A8  AD 02 20  LDA $2002 = FF                  A:00 X:FF Y:00 P:26 SP:FF CYC: 44 SL:152
C7AB  29 80     AND #$80                        A:10 X:FF Y:00 P:24 SP:FF CYC: 56 SL:152
C7AD  F0 F9     BEQ $C7A8                       A:00 X:FF Y:00 P:26 SP:FF CYC: 62 SL:152
C7A8  AD 02 20  LDA $2002 = FF                  A:00 X:FF Y:00 P:26 SP:FF CYC: 71 SL:152
C7AB  29 80     AND #$80                        A:10 X:FF Y:00 P:24 SP:FF CYC: 83 SL:152
C7AD  F0 F9     BEQ $C7A8                       A:00 X:FF Y:00 P:26 SP:FF CYC: 89 SL:152
C7A8  AD 02 20  LDA $2002 = FF                  A:00 X:FF Y:00 P:26 SP:FF CYC: 98 SL:152
C7AB  29 80     AND #$80                        A:10 X:FF Y:00 P:24 SP:FF CYC:110 SL:152
C7AD  F0 F9     BEQ $C7A8                       A:00 X:FF Y:00 P:26 SP:FF CYC:116 SL:152
C7A8  AD 02 20  LDA $2002 = FF                  A:00 X:FF Y:00 P:26 SP:FF CYC:125 SL:152
C7AB  29 80     AND #$80                        A:10 X:FF Y:00 P:24 SP:FF CYC:137 SL:152
C7AD  F0 F9     BEQ $C7A8                       A:00 X:FF Y:00 P:26 SP:FF CYC:143 SL:152
C7A8  AD 02 20  LDA $2002 = FF                  A:00 X:FF Y:00 P:26 SP:FF CYC:152 SL:152
C7AB  29 80     AND #$80                        A:10 X:FF Y:00 P:24 SP:FF CYC:164 SL:152
C7AD  F0 F9     BEQ $C7A8                       A:00 X:FF Y:00 P:26 SP:FF CYC:170 SL:152
C7A8  AD 02 20  LDA $2002 = FF                  A:00 X:FF Y:00 P:26 SP:FF CYC:179 SL:152
C7AB  29 80     AND #$80                        A:10 X:FF Y:00 P:24 SP:FF CYC:191 SL:152
C7AD  F0 F9     BEQ $C7A8                       A:00 X:FF Y:00 P:26 SP:FF CYC:197 SL:152
C7A8  AD 02 20  LDA $2002 = FF                  A:00 X:FF Y:00 P:26 SP:FF CYC:206 SL:152
C7AB  29 80     AND #$80                        A:10 X:FF Y:00 P:24 SP:FF CYC:218 SL:152
C7AD  F0 F9     BEQ $C7A8                       A:00 X:FF Y:00 P:26 SP:FF CYC:224 SL:152
C7A8  AD 02 20  LDA $2002 = FF                  A:00 X:FF Y:00 P:26 SP:FF CYC:233 SL:152
C7AB  29 80     AND #$80                        A:10 X:FF Y:00 P:24 SP:FF CYC:245 SL:152
C7AD  F0 F9     BEQ $C7A8                       A:00 X:FF Y:00 P:26 SP:FF CYC:251 SL:152
C7A8  AD 02 20  LDA $2002 = FF                  A:00 X:FF Y:00 P:26 SP:FF CYC:260 SL:152
C7AB  29 80     AND #$80                        A:10 X:FF Y:00 P:24 SP:FF CYC:272 SL:152
C7AD  F0 F9     BEQ $C7A8                       A:00 X:FF Y:00 P:26 SP:FF CYC:278 SL:152
C7A8  AD 02 20  LDA $2002 = FF                  A:00 X:FF Y:00 P:26 SP:FF CYC:287 SL:152
C7AB  29 80     AND #$80                        A:10 X:FF Y:00 P:24 SP:FF CYC:299 SL:152
C7AD  F0 F9     BEQ $C7A8                       A:00 X:FF Y:00 P:26 SP:FF CYC:305 SL:152
C7A8  AD 02 20  LDA $2002 = FF                  A:00 X:FF Y:00 P:26 SP:FF CYC:314 SL:152
C7AB  29 80     AND #$80                        A:10 X:FF Y:00 P:24 SP:FF CYC:326 SL:152
C7AD  F0 F9     BEQ $C7A8                       A:00 X:FF Y:00 P:26 SP:FF CYC:332 SL:152
C7A8  AD 02 20  LDA $2002 = FF                  A:00 X:FF Y:00 P:26 SP:FF CYC:  0 SL:153
C7AB  29 80     AND #$80                        A:10 X:FF Y:00 P:24 SP:FF CYC: 12 SL:153
C7AD  F0 F9     BEQ $C7A8                       A:00 X:FF Y:00 P:26 SP:FF CYC: 18 SL:153
C7A8  AD 02 20  LDA $2002 = FF                  A:00 X:FF Y:00 P:26 SP:FF CYC: 27 SL:153
C7AB  29 80     AND #$80                        A:10 X:FF Y:00 P:24 SP:FF CYC: 39 SL:153
C7AD  F0 F9     BEQ $C7A8                       A:00 X:FF Y:00 P:26 SP:FF CYC: 45 SL:153
C7A8  AD 02 20  LDA $2002 = FF                  A:00 X:FF Y:00 P:26 SP:FF CYC: 54 SL:153
C7AB  29 80     AND #$80                        A:10 X:FF Y:00 P:24 SP:FF CYC: 66 SL:153
C7AD  F0 F9     BEQ $C7A8                       A:00 X:FF Y:00 P:26 SP:FF CYC: 72 SL:153
C7A8  AD 02 20  LDA $2002 = FF                  A:00 X:FF Y:00 P:26 SP:FF CYC: 81 SL:153
C7AB  29 80     AND #$80                        A:10 X:FF Y:00 P:24 SP:FF CYC: 93 SL:153
C7AD  F0 F9     BEQ $C7A8                       A:00 X:FF Y:00 P:26 SP:FF CYC: 99 SL:153
C7A8  AD 02 20  LDA $2002 = FF                  A:00 X:FF Y:00 P:26 SP:FF CYC:108 SL:153
C7AB  29 80     AND #$80                        A:10 X:FF Y:00 P:24 SP:FF CYC:120 SL:153
C7AD  F0 F9     BEQ $C7A8                       A:00 X:FF Y:00 P:26 SP:FF CYC:126 SL:153
C7A8  AD 02 20  LDA $2002 = FF                  A:00 X:FF Y:00 P:26 SP:FF CYC:135 SL:153
C7AB  29 80     AND #$80                        A:10 X:FF Y:00 P:24 SP:FF CYC:147 SL:153
C7AD  F0 F9     BEQ $C7A8                       A:00 X:FF Y:00 P:26 SP:FF CYC:153 SL:153
C7A8  AD 02 20  LDA $2002 = FF                  A:00 X:FF Y:00 P:26 SP:FF CYC:162 SL:153
C7AB  29 80     AND #$80                        A:10 X:FF Y:00 P:24 SP:FF CYC:174 SL:153
C7AD  F0 F9     BEQ $C7A8                       A:00 X:FF Y:00 P:26 SP:FF CYC:180 SL:153
C7A8  AD 02 20  LDA $2002 = FF                  A:00 X:FF Y:00 P:26 SP:FF CYC:189 SL:153
C7AB  29 80     AND #$80                        A:10 X:FF Y:00 P:24 SP:FF CYC:201 SL:153
C7AD  F0 F9     BEQ $C7A8                       A:00 X:FF Y:00 P:26 SP:FF CYC:207 SL:153
C7A8  AD 02 20  LDA $2002 = FF                  A:00 X:FF Y:00 P:26 SP:FF CYC:216 SL:153
C7AB  29 80     AND #$80                        A:10 X:FF Y:00 P:24 SP:FF CYC:228 SL:153
C7AD  F0 F9     BEQ $C7A8                       A:00 X:FF Y:00 P:26 SP:FF CYC:234 SL:153
C7A8  AD 02 20  LDA $2002 = FF                  A:00 X:FF Y:00 P:26 SP:FF CYC:243 SL:153
C7AB  29 80     AND #$80                        A:10 X:FF Y:00 P:24 SP:FF CYC:255 SL:153
C7AD  F0 F9     BEQ $C7A8                       A:00 X:FF Y:00 P:26 SP:FF CYC:261 SL:153
C7A8  AD 02 20  LDA $2002 = FF                  A:00 X:FF Y:00 P:26 SP:FF CYC:270 SL:153
C7AB  29 80     AND #$80                        A:10 X:FF Y:00 P:24 SP:FF CYC:282 SL:153
C7AD  F0 F9     BEQ $C7A8                       A:00 X:FF Y:00 P:26 SP:FF CYC:288 SL:153
C7A8  AD 02 20  LDA $2002 = FF                  A:00 X:FF Y:00 P:26 SP:FF CYC:297 SL:153
C7AB  29 80     AND #$80                        A:10 X:FF Y:00 P:24 SP:FF CYC:309 SL:153
C7AD  F0 F9     BEQ $C7A8                       A:00 X:FF Y:00 P:26 SP:FF CYC:315 SL:153
C7A8  AD 02 20  LDA $2002 = FF                  A:00 X:FF Y:00 P:26 SP:FF CYC:324 SL:153
C7AB  29 80     AND #$80                        A:10 X:FF Y:00 P:24 SP:FF CYC:336 SL:153
C7AD  F0 F9     BEQ $C7A8                       A:00 X:FF Y:00 P:26 SP:FF CYC:  1 SL:154
C7A8  AD 02 20  LDA $2002 = FF                  A:00 X:FF Y:00 P:26 SP:FF CYC: 10 SL:154
C7AB  29 80     AND #$80                        A:10 X:FF Y:00 P:24 SP:FF CYC: 22 SL:154
C7AD  F0 F9     BEQ $C7A8                       A:00 X:FF Y:00 P:26 SP:FF CYC: 28 SL:154
C7A8  AD 02 20  LDA $2002 = FF                  A:00 X:FF Y:00 P:26 SP:FF CYC: 37 SL:154
C7AB  29 80     AND #$80                        A:10 X:FF Y:00 P:24 SP:FF CYC: 49 SL:154
C7AD  F0 F9     BEQ $C7A8                       A:00 X:FF Y:00 P:26 SP:FF CYC: 55 SL:154
C7A8  AD 02 20  LDA $2002 = FF                  A:00 X:FF Y:00 P:26 SP:FF CYC: 64 SL:154
C7AB  29 80     AND #$80                        A:10 X:FF Y:00 P:24 SP:FF CYC: 76 SL:154
C7AD  F0 F9     BEQ $C7A8                       A:00 X:FF Y:00 P:26 SP:FF CYC: 82 SL:154
C7A8  AD 02 20  LDA $2002 = FF                  A:00 X:FF Y:00 P:26 SP:FF CYC: 91 SL:154
C7AB  29 80     AND #$80                        A:10 X:FF Y:00 P:24 SP:FF CYC:103 SL:154
C7AD  F0 F9     BEQ $C7A8                       A:00 X:FF Y:00 P:26 SP:FF CYC:109 SL:154
C7A8  AD 02 20  LDA $2002 = FF                  A:00 X:FF Y:00 P:26 SP:FF CYC:118 SL:154
C7AB  29 80     AND #$80                        A:10 X:FF Y:00 P:24 SP:FF CYC:130 SL:154
C7AD  F0 F9     BEQ $C7A8                       A:00 X:FF Y:00 P:26 SP:FF CYC:136 SL:154
C7A8  AD 02 20  LDA $2002 = FF                  A:00 X:FF Y:00 P:26 SP:FF CYC:145 SL:154
C7AB  29 80     AND #$80                        A:10 X:FF Y:00 P:24 SP:FF CYC:157 SL:154
C7AD  F0 F9     BEQ $C7A8                       A:00 X:FF Y:00 P:26 SP:FF CYC:163 SL:154
C7A8  AD 02 20  LDA $2002 = FF                  A:00 X:FF Y:00 P:26 SP:FF CYC:172 SL:154
C7AB  29 80     AND #$80                        A:10 X:FF Y:00 P:24 SP:FF CYC:184 SL:154
C7AD  F0 F9     BEQ $C7A8                       A:00 X:FF Y:00 P:26 SP:FF CYC:190 SL:154
C7A8  AD 02 20  LDA $2002 = FF                  A:00 X:FF Y:00 P:26 SP:FF CYC:199 SL:154
C7AB  29 80     AND #$80                        A:10 X:FF Y:00 P:24 SP:FF CYC:211 SL:154
C7AD  F0 F9     BEQ $C7A8                       A:00 X:FF Y:00 P:26 SP:FF CYC:217 SL:154
C7A8  AD 02 20  LDA $2002 = FF                  A:00 X:FF Y:00 P:26 SP:FF CYC:226 SL:154
C7AB  29 80     AND #$80                        A:10 X:FF Y:00 P:24 SP:FF CYC:238 SL:154
C7AD  F0 F9     BEQ $C7A8                       A:00 X:FF Y:00 P:26 SP:FF CYC:244 SL:154
C7A8  AD 02 20  LDA $2002 = FF                  A:00 X:FF Y:00 P:26 SP:FF CYC:253 SL:154
C7AB  29 80     AND #$80                        A:10 X:FF Y:00 P:24 SP:FF CYC:265 SL:154
C7AD  F0 F9     BEQ $C7A8                       A:00 X:FF Y:00 P:26 SP:FF CYC:271 SL:154
C7A8  AD 02 20  LDA $2002 = FF                  A:00 X:FF Y:00 P:26 SP:FF CYC:280 SL:154
C7AB  29 80     AND #$80                        A:10 X:FF Y:00 P:24 SP:FF CYC:292 SL:154
C7AD  F0 F9     BEQ $C7A8                       A:00 X:FF Y:00 P:26 SP:FF CYC:298 SL:154
C7A8  AD 02 20  LDA $2002 = FF                  A:00 X:FF Y:00 P:26 SP:FF CYC:307 SL:154
C7AB  29 80     AND #$80                        A:10 X:FF Y:00 P:24 SP:FF CYC:319 SL:154
C7AD  F0 F9     BEQ $C7A8                       A:00 X:FF Y:00 P:26 SP:FF CYC:325 SL:154
C7A8  AD 02 20  LDA $2002 = FF                  A:00 X:FF Y:00 P:26 SP:FF CYC:334 SL:154
C7AB  29 80     AND #$80                        A:10 X:FF Y:00 P:24 SP:FF CYC:  5 SL:155
C7AD  F0 F9     BEQ $C7A8                       A:00 X:FF Y:00 P:26 SP:FF CYC: 11 SL:155
C7A8  AD 02 20  LDA $2002 = FF                  A:00 X:FF Y:00 P:26 SP:FF CYC: 20 SL:155
C7AB  29 80     AND #$80                        A:10 X:FF Y:00 P:24 SP:FF CYC: 32 SL:155
C7AD  F0 F9     BEQ $C7A8                       A:00 X:FF Y:00 P:26 SP:FF CYC: 38 SL:155
C7A8  AD 02 20  LDA $2002 = FF                  A:00 X:FF Y:00 P:26 SP:FF CYC: 47 SL:155
C7AB  29 80     AND #$80                        A:10 X:FF Y:00 P:24 SP:FF CYC: 59 SL:155
C7AD  F0 F9     BEQ $C7A8                       A:00 X:FF Y:00 P:26 SP:FF CYC: 65 SL:155
C7A8  AD 02 20  LDA $2002 = FF                  A:00 X:FF Y:00 P:26 SP:FF CYC: 74 SL:155
C7AB  29 80     AND #$80                        A:10 X:FF Y:00 P:24 SP:FF CYC: 86 SL:155
C7AD  F0 F9     BEQ $C7A8                       A:00 X:FF Y:00 P:26 SP:FF CYC: 92 SL:155
C7A8  AD 02 20  LDA $2002 = FF                  A:00 X:FF Y:00 P:26 SP:FF CYC:101 SL:155
C7AB  29 80     AND #$80                        A:10 X:FF Y:00 P:24 SP:FF CYC:113 SL:155
C7AD  F0 F9     BEQ $C7A8                       A:00 X:FF Y:00 P:26 SP:FF CYC:119 SL:155
C7A8  AD 02 20  LDA $2002 = FF                  A:00 X:FF Y:00 P:26 SP:FF CYC:128 SL:155
C7AB  29 80     AND #$80                        A:10 X:FF Y:00 P:24 SP:FF CYC:140 SL:155
C7AD  F0 F9     BEQ $C7A8                       A:00 X:FF Y:00 P:26 SP:FF CYC:146 SL:155
C7A8  AD 02 20  LDA $2002 = FF                  A:00 X:FF Y:00 P:26 SP:FF CYC:155 SL:155
C7AB  29 80     AND #$80                        A:10 X:FF Y:00 P:24 SP:FF CYC:167 SL:155
C7AD  F0 F9     BEQ $C7A8                       A:00 X:FF Y:00 P:26 SP:FF CYC:173 SL:155
C7A8  AD 02 20  LDA $2002 = FF                  A:00 X:FF Y:00 P:26 SP:FF CYC:182 SL:155
C7AB  29 80     AND #$80                        A:10 X:FF Y:00 P:24 SP:FF CYC:194 SL:155
C7AD  F0 F9     BEQ $C7A8                       A:00 X:FF Y:00 P:26 SP:FF CYC:200 SL:155
C7A8  AD 02 20  LDA $2002 = FF                  A:00 X:FF Y:00 P:26 SP:FF CYC:209 SL:155
C7AB  29 80     AND #$80                        A:10 X:FF Y:00 P:24 SP:FF CYC:221 SL:155
C7AD  F0 F9     BEQ $C7A8                       A:00 X:FF Y:00 P:26 SP:FF CYC:227 SL:155
C7A8  AD 02 20  LDA $2002 = FF                  A:00 X:FF Y:00 P:26 SP:FF CYC:236 SL:155
C7AB  29 80     AND #$80                        A:10 X:FF Y:00 P:24 SP:FF CYC:248 SL:155
C7AD  F0 F9     BEQ $C7A8                       A:00 X:FF Y:00 P:26 SP:FF CYC:254 SL:155
C7A8  AD 02 20  LDA $2002 = FF                  A:00 X:FF Y:00 P:26 SP:FF CYC:263 SL:155
C7AB  29 80     AND #$80                        A:10 X:FF Y:00 P:24 SP:FF CYC:275 SL:155
C7AD  F0 F9     BEQ $C7A8                       A:00 X:FF Y:00 P:26 SP:FF CYC:281 SL:155
C7A8  AD 02 20  LDA $2002 = FF                  A:00 X:FF Y:00 P:26 SP:FF CYC:290 SL:155
C7AB  29 80     AND #$80                        A:10 X:FF Y:00 P:24 SP:FF CYC:302 SL:155
C7AD  F0 F9     BEQ $C7A8                       A:00 X:FF Y:00 P:26 SP:FF CYC:308 SL:155
C7A8  AD 02 20  LDA $2002 = FF                  A:00 X:FF Y:00 P:26 SP:FF CYC:317 SL:155
C7AB  29 80     AND #$80                        A:10 X:FF Y:00 P:24 SP:FF CYC:329 SL:155
C7AD  F0 F9     BEQ $C7A8                       A:00 X:FF Y:00 P:26 SP:FF CYC:335 SL:155
C7A8  AD 02 20  LDA $2002 = FF                  A:00 X:FF Y:00 P:26 SP:FF CYC:  3 SL:156
C7AB  29 80     AND #$80                        A:10 X:FF Y:00 P:24 SP:FF CYC: 15 SL:156
C7AD  F0 F9     BEQ $C7A8                       A:00 X:FF Y:00 P:26 SP:FF CYC: 21 SL:156
C7A8  AD 02 20  LDA $2002 = FF                  A:00 X:FF Y:00 P:26 SP:FF CYC: 30 SL:156
C7AB  29 80     AND #$80                        A:10 X:FF Y:00 P:24 SP:FF CYC: 42 SL:156
C7AD  F0 F9     BEQ $C7A8                       A:00 X:FF Y:00 P:26 SP:FF CYC: 48 SL:156
C7A8  AD 02 20  LDA $2002 = FF                  A:00 X:FF Y:00 P:26 SP:FF CYC: 57 SL:156
C7AB  29 80     AND #$80                        A:10 X:FF Y:00 P:24 SP:FF CYC: 69 SL:156
C7AD  F0 F9     BEQ $C7A8                       A:00 X:FF Y:00 P:26 SP:FF CYC: 75 SL:156
C7A8  AD 02 20  LDA $2002 = FF                  A:00 X:FF Y:00 P:26 SP:FF CYC: 84 SL:156
C7AB  29 80     AND #$80                        A:10 X:FF Y:00 P:24 SP:FF CYC: 96 SL:156
C7AD  F0 F9     BEQ $C7A8                       A:00 X:FF Y:00 P:26 SP:FF CYC:102 SL:156
C7A8  AD 02 20  LDA $2002 = FF                  A:00 X:FF Y:00 P:26 SP:FF CYC:111 SL:156
C7AB  29 80     AND #$80                        A:10 X:FF Y:00 P:24 SP:FF CYC:123 SL:156
C7AD  F0 F9     BEQ $C7A8                       A:00 X:FF Y:00 P:26 SP:FF CYC:129 SL:156
C7A8  AD 02 20  LDA $2002 = FF                  A:00 X:FF Y:00 P:26 SP:FF CYC:138 SL:156
C7AB  29 80     AND #$80                        A:10 X:FF Y:00 P:24 SP:FF CYC:150 SL:156
C7AD  F0 F9     BEQ $C7A8                       A:00 X:FF Y:00 P:26 SP:FF CYC:156 SL:156
C7A8  AD 02 20  LDA $2002 = FF                  A:00 X:FF Y:00 P:26 SP:FF CYC:165 SL:156
C7AB  29 80     AND #$80                        A:10 X:FF Y:00 P:24 SP:FF CYC:177 SL:156
C7AD  F0 F9     BEQ $C7A8                       A:00 X:FF Y:00 P:26 SP:FF CYC:183 SL:156
C7A8  AD 02 20  LDA $2002 = FF                  A:00 X:FF Y:00 P:26 SP:FF CYC:192 SL:156
C7AB  29 80     AND #$80                        A:10 X:FF Y:00 P:24 SP:FF CYC:204 SL:156
C7AD  F0 F9     BEQ $C7A8                       A:00 X:FF Y:00 P:26 SP:FF CYC:210 SL:156
C7A8  AD 02 20  LDA $2002 = FF                  A:00 X:FF Y:00 P:26 SP:FF CYC:219 SL:156
C7AB  29 80     AND #$80                        A:10 X:FF Y:00 P:24 SP:FF CYC:231 SL:156
C7AD  F0 F9     BEQ $C7A8                       A:00 X:FF Y:00 P:26 SP:FF CYC:237 SL:156
C7A8  AD 02 20  LDA $2002 = FF                  A:00 X:FF Y:00 P:26 SP:FF CYC:246 SL:156
C7AB  29 80     AND #$80                        A:10 X:FF Y:00 P:24 SP:FF CYC:258 SL:156
C7AD  F0 F9     BEQ $C7A8                       A:00 X:FF Y:00 P:26 SP:FF CYC:264 SL:156
C7A8  AD 02 20  LDA $2002 = FF                  A:00 X:FF Y:00 P:26 SP:FF CYC:273 SL:156
C7AB  29 80     AND #$80                        A:10 X:FF Y:00 P:24 SP:FF CYC:285 SL:156
C7AD  F0 F9     BEQ $C7A8                       A:00 X:FF Y:00 P:26 SP:FF CYC:291 SL:156
C7A8  AD 02 20  LDA $2002 = FF                  A:00 X:FF Y:00 P:26 SP:FF CYC:300 SL:156
C7AB  29 80     AND #$80                        A:10 X:FF Y:00 P:24 SP:FF CYC:312 SL:156
C7AD  F0 F9     BEQ $C7A8                       A:00 X:FF Y:00 P:26 SP:FF CYC:318 SL:156
C7A8  AD 02 20  LDA $2002 = FF                  A:00 X:FF Y:00 P:26 SP:FF CYC:327 SL:156
C7AB  29 80     AND #$80                        A:10 X:FF Y:00 P:24 SP:FF CYC:339 SL:156
C7AD  F0 F9     BEQ $C7A8                       A:00 X:FF Y:00 P:26 SP:FF CYC:  4 SL:157
C7A8  AD 02 20  LDA $2002 = FF                  A:00 X:FF Y:00 P:26 SP:FF CYC: 13 SL:157
C7AB  29 80     AND #$80                        A:10 X:FF Y:00 P:24 SP:FF CYC: 25 SL:157
C7AD  F0 F9     BEQ $C7A8                       A:00 X:FF Y:00 P:26 SP:FF CYC: 31 SL:157
C7A8  AD 02 20  LDA $2002 = FF                  A:00 X:FF Y:00 P:26 SP:FF CYC: 40 SL:157
C7AB  29 80     AND #$80                        A:10 X:FF Y:00 P:24 SP:FF CYC: 52 SL:157
C7AD  F0 F9     BEQ $C7A8                       A:00 X:FF Y:00 P:26 SP:FF CYC: 58 SL:157
C7A8  AD 02 20  LDA $2002 = FF                  A:00 X:FF Y:00 P:26 SP:FF CYC: 67 SL:157
C7AB  29 80     AND #$80                        A:10 X:FF Y:00 P:24 SP:FF CYC: 79 SL:157
C7AD  F0 F9     BEQ $C7A8                       A:00 X:FF Y:00 P:26 SP:FF CYC: 85 SL:157
C7A8  AD 02 20  LDA $2002 = FF                  A:00 X:FF Y:00 P:26 SP:FF CYC: 94 SL:157
C7AB  29 80     AND #$80                        A:10 X:FF Y:00 P:24 SP:FF CYC:106 SL:157
C7AD  F0 F9     BEQ $C7A8                       A:00 X:FF Y:00 P:26 SP:FF CYC:112 SL:157
C7A8  AD 02 20  LDA $2002 = FF                  A:00 X:FF Y:00 P:26 SP:FF CYC:121 SL:157
C7AB  29 80     AND #$80                        A:10 X:FF Y:00 P:24 SP:FF CYC:133 SL:157
C7AD  F0 F9     BEQ $C7A8                       A:00 X:FF Y:00 P:26 SP:FF CYC:139 SL:157
C7A8  AD 02 20  LDA $2002 = FF                  A:00 X:FF Y:00 P:26 SP:FF CYC:148 SL:157
C7AB  29 80     AND #$80                        A:10 X:FF Y:00 P:24 SP:FF CYC:160 SL:157
C7AD  F0 F9     BEQ $C7A8                       A:00 X:FF Y:00 P:26 SP:FF CYC:166 SL:157
C7A8  AD 02 20  LDA $2002 = FF                  A:00 X:FF Y:00 P:26 SP:FF CYC:175 SL:157
C7AB  29 80     AND #$80                        A:10 X:FF Y:00 P:24 SP:FF CYC:187 SL:157
C7AD  F0 F9     BEQ $C7A8                       A:00 X:FF Y:00 P:26 SP:FF CYC:193 SL:157
C7A8  AD 02 20  LDA $2002 = FF                  A:00 X:FF Y:00 P:26 SP:FF CYC:202 SL:157
C7AB  29 80     AND #$80                        A:10 X:FF Y:00 P:24 SP:FF CYC:214 SL:157
C7AD  F0 F9     BEQ $C7A8                       A:00 X:FF Y:00 P:26 SP:FF CYC:220 SL:157
C7A8  AD 02 20  LDA $2002 = FF                  A:00 X:FF Y:00 P:26 SP:FF CYC:229 SL:157
C7AB  29 80     AND #$80                        A:10 X:FF Y:00 P:24 SP:FF CYC:241 SL:157
C7AD  F0 F9     BEQ $C7A8                       A:00 X:FF Y:00 P:26 SP:FF CYC:247 SL:157
C7A8  AD 02 20  LDA $2002 = FF                  A:00 X:FF Y:00 P:26 SP:FF CYC:256 SL:157
C7AB  29 80     AND #$80                        A:10 X:FF Y:00 P:24 SP:FF CYC:268 SL:157
C7AD  F0 F9     BEQ $C7A8                       A:00 X:FF Y:00 P:26 SP:FF CYC:274 SL:157
C7A8  AD 02 20  LDA $2002 = FF                  A:00 X:FF Y:00 P:26 SP:FF CYC:283 SL:157
C7AB  29 80     AND #$80                        A:10 X:FF Y:00 P:24 SP:FF CYC:295 SL:157
C7AD  F0 F9     BEQ $C7A8                       A:00 X:FF Y:00 P:26 SP:FF CYC:301 SL:157
C7A8  AD 02 20  LDA $2002 = FF                  A:00 X:FF Y:00 P:26 SP:FF CYC:310 SL:157
C7AB  29 80     AND #$80                        A:10 X:FF Y:00 P:24 SP:FF CYC:322 SL:157
C7AD  F0 F9     BEQ $C7A8                       A:00 X:FF Y:00 P:26 SP:FF CYC:328 SL:157
C7A8  AD 02 20  LDA $2002 = FF                  A:00 X:FF Y:00 P:26 SP:FF CYC:337 SL:157
C7AB  29 80     AND #$80                        A:10 X:FF Y:00 P:24 SP:FF CYC:  8 SL:158
C7AD  F0 F9     BEQ $C7A8                       A:00 X:FF Y:00 P:26 SP:FF CYC: 14 SL:158
C7A8  AD 02 20  LDA $2002 = FF                  A:00 X:FF Y:00 P:26 SP:FF CYC: 23 SL:158
C7AB  29 80     AND #$80                        A:10 X:FF Y:00 P:24 SP:FF CYC: 35 SL:158
C7AD  F0 F9     BEQ $C7A8                       A:00 X:FF Y:00 P:26 SP:FF CYC: 41 SL:158
C7A8  AD 02 20  LDA $2002 = FF                  A:00 X:FF Y:00 P:26 SP:FF CYC: 50 SL:158
C7AB  29 80     AND #$80                        A:10 X:FF Y:00 P:24 SP:FF CYC: 62 SL:158
C7AD  F0 F9     BEQ $C7A8                       A:00 X:FF Y:00 P:26 SP:FF CYC: 68 SL:158
C7A8  AD 02 20  LDA $2002 = FF                  A:00 X:FF Y:00 P:26 SP:FF CYC: 77 SL:158
C7AB  29 80     AND #$80                        A:10 X:FF Y:00 P:24 SP:FF CYC: 89 SL:158
C7AD  F0 F9     BEQ $C7A8                       A:00 X:FF Y:00 P:26 SP:FF CYC: 95 SL:158
C7A8  AD 02 20  LDA $2002 = FF                  A:00 X:FF Y:00 P:26 SP:FF CYC:104 SL:158
C7AB  29 80     AND #$80                        A:10 X:FF Y:00 P:24 SP:FF CYC:116 SL:158
C7AD  F0 F9     BEQ $C7A8                       A:00 X:FF Y:00 P:26 SP:FF CYC:122 SL:158
C7A8  AD 02 20  LDA $2002 = FF                  A:00 X:FF Y:00 P:26 SP:FF CYC:131 SL:158
C7AB  29 80     AND #$80                        A:10 X:FF Y:00 P:24 SP:FF CYC:143 SL:158
C7AD  F0 F9     BEQ $C7A8                       A:00 X:FF Y:00 P:26 SP:FF CYC:149 SL:158
C7A8  AD 02 20  LDA $2002 = FF                  A:00 X:FF Y:00 P:26 SP:FF CYC:158 SL:158
C7AB  29 80     AND #$80                        A:10 X:FF Y:00 P:24 SP:FF CYC:170 SL:158
C7AD  F0 F9     BEQ $C7A8                       A:00 X:FF Y:00 P:26 SP:FF CYC:176 SL:158
C7A8  AD 02 20  LDA $2002 = FF                  A:00 X:FF Y:00 P:26 SP:FF CYC:185 SL:158
C7AB  29 80     AND #$80                        A:10 X:FF Y:00 P:24 SP:FF CYC:197 SL:158
C7AD  F0 F9     BEQ $C7A8                       A:00 X:FF Y:00 P:26 SP:FF CYC:203 SL:158
C7A8  AD 02 20  LDA $2002 = FF                  A:00 X:FF Y:00 P:26 SP:FF CYC:212 SL:158
C7AB  29 80     AND #$80                        A:10 X:FF Y:00 P:24 SP:FF CYC:224 SL:158
C7AD  F0 F9     BEQ $C7A8                       A:00 X:FF Y:00 P:26 SP:FF CYC:230 SL:158
C7A8  AD 02 20  LDA $2002 = FF                  A:00 X:FF Y:00 P:26 SP:FF CYC:239 SL:158
C7AB  29 80     AND #$80                        A:10 X:FF Y:00 P:24 SP:FF CYC:251 SL:158
C7AD  F0 F9     BEQ $C7A8                       A:00 X:FF Y:00 P:26 SP:FF CYC:257 SL:158
C7A8  AD 02 20  LDA $2002 = FF                  A:00 X:FF Y:00 P:26 SP:FF CYC:266 SL:158
C7AB  29 80     AND #$80                        A:10 X:FF Y:00 P:24 SP:FF CYC:278 SL:158
C7AD  F0 F9     BEQ $C7A8                       A:00 X:FF Y:00 P:26 SP:FF CYC:284 SL:158
C7A8  AD 02 20  LDA $2002 = FF                  A:00 X:FF Y:00 P:26 SP:FF CYC:293 SL:158
C7AB  29 80     AND #$80                        A:10 X:FF Y:00 P:24 SP:FF CYC:305 SL:158
C7AD  F0 F9     BEQ $C7A8                       A:00 X:FF Y:00 P:26 SP:FF CYC:311 SL:158
C7A8  AD 02 20  LDA $2002 = FF                  A:00 X:FF Y:00 P:26 SP:FF CYC:320 SL:158
C7AB  29 80     AND #$80                        A:10 X:FF Y:00 P:24 SP:FF CYC:332 SL:158
C7AD  F0 F9     BEQ $C7A8                       A:00 X:FF Y:00 P:26 SP:FF CYC:338 SL:158
C7A8  AD 02 20  LDA $2002 = FF                  A:00 X:FF Y:00 P:26 SP:FF CYC:  6 SL:159
C7AB  29 80     AND #$80                        A:10 X:FF Y:00 P:24 SP:FF CYC: 18 SL:159
C7AD  F0 F9     BEQ $C7A8                       A:00 X:FF Y:00 P:26 SP:FF CYC: 24 SL:159
C7A8  AD 02 20  LDA $2002 = FF                  A:00 X:FF Y:00 P:26 SP:FF CYC: 33 SL:159
C7AB  29 80     AND #$80                        A:10 X:FF Y:00 P:24 SP:FF CYC: 45 SL:159
C7AD  F0 F9     BEQ $C7A8                       A:00 X:FF Y:00 P:26 SP:FF CYC: 51 SL:159
C7A8  AD 02 20  LDA $2002 = FF                  A:00 X:FF Y:00 P:26 SP:FF CYC: 60 SL:159
C7AB  29 80     AND #$80                        A:10 X:FF Y:00 P:24 SP:FF CYC: 72 SL:159
C7AD  F0 F9     BEQ $C7A8                       A:00 X:FF Y:00 P:26 SP:FF CYC: 78 SL:159
C7A8  AD 02 20  LDA $2002 = FF                  A:00 X:FF Y:00 P:26 SP:FF CYC: 87 SL:159
C7AB  29 80     AND #$80                        A:10 X:FF Y:00 P:24 SP:FF CYC: 99 SL:159
C7AD  F0 F9     BEQ $C7A8                       A:00 X:FF Y:00 P:26 SP:FF CYC:105 SL:159
C7A8  AD 02 20  LDA $2002 = FF                  A:00 X:FF Y:00 P:26 SP:FF CYC:114 SL:159
C7AB  29 80     AND #$80                        A:10 X:FF Y:00 P:24 SP:FF CYC:126 SL:159
C7AD  F0 F9     BEQ $C7A8                       A:00 X:FF Y:00 P:26 SP:FF CYC:132 SL:159
C7A8  AD 02 20  LDA $2002 = FF                  A:00 X:FF Y:00 P:26 SP:FF CYC:141 SL:159
C7AB  29 80     AND #$80                        A:10 X:FF Y:00 P:24 SP:FF CYC:153 SL:159
C7AD  F0 F9     BEQ $C7A8                       A:00 X:FF Y:00 P:26 SP:FF CYC:159 SL:159
C7A8  AD 02 20  LDA $2002 = FF                  A:00 X:FF Y:00 P:26 SP:FF CYC:168 SL:159
C7AB  29 80     AND #$80                        A:10 X:FF Y:00 P:24 SP:FF CYC:180 SL:159
C7AD  F0 F9     BEQ $C7A8                       A:00 X:FF Y:00 P:26 SP:FF CYC:186 SL:159
C7A8  AD 02 20  LDA $2002 = FF                  A:00 X:FF Y:00 P:26 SP:FF CYC:195 SL:159
C7AB  29 80     AND #$80                        A:10 X:FF Y:00 P:24 SP:FF CYC:207 SL:159
C7AD  F0 F9     BEQ $C7A8                       A:00 X:FF Y:00 P:26 SP:FF CYC:213 SL:159
C7A8  AD 02 20  LDA $2002 = FF                  A:00 X:FF Y:00 P:26 SP:FF CYC:222 SL:159
C7AB  29 80     AND #$80                        A:10 X:FF Y:00 P:24 SP:FF CYC:234 SL:159
C7AD  F0 F9     BEQ $C7A8                       A:00 X:FF Y:00 P:26 SP:FF CYC:240 SL:159
C7A8  AD 02 20  LDA $2002 = FF                  A:00 X:FF Y:00 P:26 SP:FF CYC:249 SL:159
C7AB  29 80     AND #$80                        A:10 X:FF Y:00 P:24 SP:FF CYC:261 SL:159
C7AD  F0 F9     BEQ $C7A8                       A:00 X:FF Y:00 P:26 SP:FF CYC:267 SL:159
C7A8  AD 02 20  LDA $2002 = FF                  A:00 X:FF Y:00 P:26 SP:FF CYC:276 SL:159
C7AB  29 80     AND #$80                        A:10 X:FF Y:00 P:24 SP:FF CYC:288 SL:159
C7AD  F0 F9     BEQ $C7A8                       A:00 X:FF Y:00 P:26 SP:FF CYC:294 SL:159
C7A8  AD 02 20  LDA $2002 = FF                  A:00 X:FF Y:00 P:26 SP:FF CYC:303 SL:159
C7AB  29 80     AND #$80                        A:10 X:FF Y:00 P:24 SP:FF CYC:315 SL:159
C7AD  F0 F9     BEQ $C7A8                       A:00 X:FF Y:00 P:26 SP:FF CYC:321 SL:159
C7A8  AD 02 20  LDA $2002 = FF                  A:00 X:FF Y:00 P:26 SP:FF CYC:330 SL:159
C7AB  29 80     AND #$80                        A:10 X:FF Y:00 P:24 SP:FF CYC:  1 SL:160
C7AD  F0 F9     BEQ $C7A8                       A:00 X:FF Y:00 P:26 SP:FF CYC:  7 SL:160
C7A8  AD 02 20  LDA $2002 = FF                  A:00 X:FF Y:00 P:26 SP:FF CYC: 16 SL:160
C7AB  29 80     AND #$80                        A:10 X:FF Y:00 P:24 SP:FF CYC: 28 SL:160
C7AD  F0 F9     BEQ $C7A8                       A:00 X:FF Y:00 P:26 SP:FF CYC: 34 SL:160
C7A8  AD 02 20  LDA $2002 = FF                  A:00 X:FF Y:00 P:26 SP:FF CYC: 43 SL:160
C7AB  29 80     AND #$80                        A:10 X:FF Y:00 P:24 SP:FF CYC: 55 SL:160
C7AD  F0 F9     BEQ $C7A8                       A:00 X:FF Y:00 P:26 SP:FF CYC: 61 SL:160
C7A8  AD 02 20  LDA $2002 = FF                  A:00 X:FF Y:00 P:26 SP:FF CYC: 70 SL:160
C7AB  29 80     AND #$80                        A:10 X:FF Y:00 P:24 SP:FF CYC: 82 SL:160
C7AD  F0 F9     BEQ $C7A8                       A:00 X:FF Y:00 P:26 SP:FF CYC: 88 SL:160
C7A8  AD 02 20  LDA $2002 = FF                  A:00 X:FF Y:00 P:26 SP:FF CYC: 97 SL:160
C7AB  29 80     AND #$80                        A:10 X:FF Y:00 P:24 SP:FF CYC:109 SL:160
C7AD  F0 F9     BEQ $C7A8                       A:00 X:FF Y:00 P:26 SP:FF CYC:115 SL:160
C7A8  AD 02 20  LDA $2002 = FF                  A:00 X:FF Y:00 P:26 SP:FF CYC:124 SL:160
C7AB  29 80     AND #$80                        A:10 X:FF Y:00 P:24 SP:FF CYC:136 SL:160
C7AD  F0 F9     BEQ $C7A8                       A:00 X:FF Y:00 P:26 SP:FF CYC:142 SL:160
C7A8  AD 02 20  LDA $2002 = FF                  A:00 X:FF Y:00 P:26 SP:FF CYC:151 SL:160
C7AB  29 80     AND #$80                        A:10 X:FF Y:00 P:24 SP:FF CYC:163 SL:160
C7AD  F0 F9     BEQ $C7A8                       A:00 X:FF Y:00 P:26 SP:FF CYC:169 SL:160
C7A8  AD 02 20  LDA $2002 = FF                  A:00 X:FF Y:00 P:26 SP:FF CYC:178 SL:160
C7AB  29 80     AND #$80                        A:10 X:FF Y:00 P:24 SP:FF CYC:190 SL:160
C7AD  F0 F9     BEQ $C7A8                       A:00 X:FF Y:00 P:26 SP:FF CYC:196 SL:160
C7A8  AD 02 20  LDA $2002 = FF                  A:00 X:FF Y:00 P:26 SP:FF CYC:205 SL:160
C7AB  29 80     AND #$80                        A:10 X:FF Y:00 P:24 SP:FF CYC:217 SL:160
C7AD  F0 F9     BEQ $C7A8                       A:00 X:FF Y:00 P:26 SP:FF CYC:223 SL:160
C7A8  AD 02 20  LDA $2002 = FF                  A:00 X:FF Y:00 P:26 SP:FF CYC:232 SL:160
C7AB  29 80     AND #$80                        A:10 X:FF Y:00 P:24 SP:FF CYC:244 SL:160
C7AD  F0 F9     BEQ $C7A8                       A:00 X:FF Y:00 P:26 SP:FF CYC:250 SL:160
C7A8  AD 02 20  LDA $2002 = FF                  A:00 X:FF Y:00 P:26 SP:FF CYC:259 SL:160
C7AB  29 80     AND #$80                        A:10 X:FF Y:00 P:24 SP:FF CYC:271 SL:160
C7AD  F0 F9     BEQ $C7A8                       A:00 X:FF Y:00 P:26 SP:FF CYC:277 SL:160
C7A8  AD 02 20  LDA $2002 = FF                  A:00 X:FF Y:00 P:26 SP:FF CYC:286 SL:160
C7AB  29 80     AND #$80                        A:10 X:FF Y:00 P:24 SP:FF CYC:298 SL:160
C7AD  F0 F9     BEQ $C7A8                       A:00 X:FF Y:00 P:26 SP:FF CYC:304 SL:160
C7A8  AD 02 20  LDA $2002 = FF                  A:00 X:FF Y:00 P:26 SP:FF CYC:313 SL:160
C7AB  29 80     AND #$80                        A:10 X:FF Y:00 P:24 SP:FF CYC:325 SL:160
C7AD  F0 F9     BEQ $C7A8                       A:00 X:FF Y:00 P:26 SP:FF CYC:331 SL:160
C7A8  AD 02 20  LDA $2002 = FF                  A:00 X:FF Y:00 P:26 SP:FF CYC:340 SL:160
C7AB  29 80     AND #$80                        A:10 X:FF Y:00 P:24 SP:FF CYC: 11 SL:161
C7AD  F0 F9     BEQ $C7A8                       A:00 X:FF Y:00 P:26 SP:FF CYC: 17 SL:161
C7A8  AD 02 20  LDA $2002 = FF                  A:00 X:FF Y:00 P:26 SP:FF CYC: 26 SL:161
C7AB  29 80     AND #$80                        A:10 X:FF Y:00 P:24 SP:FF CYC: 38 SL:161
C7AD  F0 F9     BEQ $C7A8                       A:00 X:FF Y:00 P:26 SP:FF CYC: 44 SL:161
C7A8  AD 02 20  LDA $2002 = FF                  A:00 X:FF Y:00 P:26 SP:FF CYC: 53 SL:161
C7AB  29 80     AND #$80                        A:10 X:FF Y:00 P:24 SP:FF CYC: 65 SL:161
C7AD  F0 F9     BEQ $C7A8                       A:00 X:FF Y:00 P:26 SP:FF CYC: 71 SL:161
C7A8  AD 02 20  LDA $2002 = FF                  A:00 X:FF Y:00 P:26 SP:FF CYC: 80 SL:161
C7AB  29 80     AND #$80                        A:10 X:FF Y:00 P:24 SP:FF CYC: 92 SL:161
C7AD  F0 F9     BEQ $C7A8                       A:00 X:FF Y:00 P:26 SP:FF CYC: 98 SL:161
C7A8  AD 02 20  LDA $2002 = FF                  A:00 X:FF Y:00 P:26 SP:FF CYC:107 SL:161
C7AB  29 80     AND #$80                        A:10 X:FF Y:00 P:24 SP:FF CYC:119 SL:161
C7AD  F0 F9     BEQ $C7A8                       A:00 X:FF Y:00 P:26 SP:FF CYC:125 SL:161
C7A8  AD 02 20  LDA $2002 = FF                  A:00 X:FF Y:00 P:26 SP:FF CYC:134 SL:161
C7AB  29 80     AND #$80                        A:10 X:FF Y:00 P:24 SP:FF CYC:146 SL:161
C7AD  F0 F9     BEQ $C7A8                       A:00 X:FF Y:00 P:26 SP:FF CYC:152 SL:161
C7A8  AD 02 20  LDA $2002 = FF                  A:00 X:FF Y:00 P:26 SP:FF CYC:161 SL:161
C7AB  29 80     AND #$80                        A:10 X:FF Y:00 P:24 SP:FF CYC:173 SL:161
C7AD  F0 F9     BEQ $C7A8                       A:00 X:FF Y:00 P:26 SP:FF CYC:179 SL:161
C7A8  AD 02 20  LDA $2002 = FF                  A:00 X:FF Y:00 P:26 SP:FF CYC:188 SL:161
C7AB  29 80     AND #$80                        A:10 X:FF Y:00 P:24 SP:FF CYC:200 SL:161
C7AD  F0 F9     BEQ $C7A8                       A:00 X:FF Y:00 P:26 SP:FF CYC:206 SL:161
C7A8  AD 02 20  LDA $2002 = FF                  A:00 X:FF Y:00 P:26 SP:FF CYC:215 SL:161
C7AB  29 80     AND #$80                        A:10 X:FF Y:00 P:24 SP:FF CYC:227 SL:161
C7AD  F0 F9     BEQ $C7A8                       A:00 X:FF Y:00 P:26 SP:FF CYC:233 SL:161
C7A8  AD 02 20  LDA $2002 = FF                  A:00 X:FF Y:00 P:26 SP:FF CYC:242 SL:161
C7AB  29 80     AND #$80                        A:10 X:FF Y:00 P:24 SP:FF CYC:254 SL:161
C7AD  F0 F9     BEQ $C7A8                       A:00 X:FF Y:00 P:26 SP:FF CYC:260 SL:161
C7A8  AD 02 20  LDA $2002 = FF                  A:00 X:FF Y:00 P:26 SP:FF CYC:269 SL:161
C7AB  29 80     AND #$80                        A:10 X:FF Y:00 P:24 SP:FF CYC:281 SL:161
C7AD  F0 F9     BEQ $C7A8                       A:00 X:FF Y:00 P:26 SP:FF CYC:287 SL:161
C7A8  AD 02 20  LDA $2002 = FF                  A:00 X:FF Y:00 P:26 SP:FF CYC:296 SL:161
C7AB  29 80     AND #$80                        A:10 X:FF Y:00 P:24 SP:FF CYC:308 SL:161
C7AD  F0 F9     BEQ $C7A8                       A:00 X:FF Y:00 P:26 SP:FF CYC:314 SL:161
C7A8  AD 02 20  LDA $2002 = FF                  A:00 X:FF Y:00 P:26 SP:FF CYC:323 SL:161
C7AB  29 80     AND #$80                        A:10 X:FF Y:00 P:24 SP:FF CYC:335 SL:161
C7AD  F0 F9     BEQ $C7A8                       A:00 X:FF Y:00 P:26 SP:FF CYC:  0 SL:162
C7A8  AD 02 20  LDA $2002 = FF                  A:00 X:FF Y:00 P:26 SP:FF CYC:  9 SL:162
C7AB  29 80     AND #$80                        A:10 X:FF Y:00 P:24 SP:FF CYC: 21 SL:162
C7AD  F0 F9     BEQ $C7A8                       A:00 X:FF Y:00 P:26 SP:FF CYC: 27 SL:162
C7A8  AD 02 20  LDA $2002 = FF                  A:00 X:FF Y:00 P:26 SP:FF CYC: 36 SL:162
C7AB  29 80     AND #$80                        A:10 X:FF Y:00 P:24 SP:FF CYC: 48 SL:162
C7AD  F0 F9     BEQ $C7A8                       A:00 X:FF Y:00 P:26 SP:FF CYC: 54 SL:162
C7A8  AD 02 20  LDA $2002 = FF                  A:00 X:FF Y:00 P:26 SP:FF CYC: 63 SL:162
C7AB  29 80     AND #$80                        A:10 X:FF Y:00 P:24 SP:FF CYC: 75 SL:162
C7AD  F0 F9     BEQ $C7A8                       A:00 X:FF Y:00 P:26 SP:FF CYC: 81 SL:162
C7A8  AD 02 20  LDA $2002 = FF                  A:00 X:FF Y:00 P:26 SP:FF CYC: 90 SL:162
C7AB  29 80     AND #$80                        A:10 X:FF Y:00 P:24 SP:FF CYC:102 SL:162
C7AD  F0 F9     BEQ $C7A8                       A:00 X:FF Y:00 P:26 SP:FF CYC:108 SL:162
C7A8  AD 02 20  LDA $2002 = FF                  A:00 X:FF Y:00 P:26 SP:FF CYC:117 SL:162
C7AB  29 80     AND #$80                        A:10 X:FF Y:00 P:24 SP:FF CYC:129 SL:162
C7AD  F0 F9     BEQ $C7A8                       A:00 X:FF Y:00 P:26 SP:FF CYC:135 SL:162
C7A8  AD 02 20  LDA $2002 = FF                  A:00 X:FF Y:00 P:26 SP:FF CYC:144 SL:162
C7AB  29 80     AND #$80                        A:10 X:FF Y:00 P:24 SP:FF CYC:156 SL:162
C7AD  F0 F9     BEQ $C7A8                       A:00 X:FF Y:00 P:26 SP:FF CYC:162 SL:162
C7A8  AD 02 20  LDA $2002 = FF                  A:00 X:FF Y:00 P:26 SP:FF CYC:171 SL:162
C7AB  29 80     AND #$80                        A:10 X:FF Y:00 P:24 SP:FF CYC:183 SL:162
C7AD  F0 F9     BEQ $C7A8                       A:00 X:FF Y:00 P:26 SP:FF CYC:189 SL:162
C7A8  AD 02 20  LDA $2002 = FF                  A:00 X:FF Y:00 P:26 SP:FF CYC:198 SL:162
C7AB  29 80     AND #$80                        A:10 X:FF Y:00 P:24 SP:FF CYC:210 SL:162
C7AD  F0 F9     BEQ $C7A8                       A:00 X:FF Y:00 P:26 SP:FF CYC:216 SL:162
C7A8  AD 02 20  LDA $2002 = FF                  A:00 X:FF Y:00 P:26 SP:FF CYC:225 SL:162
C7AB  29 80     AND #$80                        A:10 X:FF Y:00 P:24 SP:FF CYC:237 SL:162
C7AD  F0 F9     BEQ $C7A8                       A:00 X:FF Y:00 P:26 SP:FF CYC:243 SL:162
C7A8  AD 02 20  LDA $2002 = FF                  A:00 X:FF Y:00 P:26 SP:FF CYC:252 SL:162
C7AB  29 80     AND #$80                        A:10 X:FF Y:00 P:24 SP:FF CYC:264 SL:162
C7AD  F0 F9     BEQ $C7A8                       A:00 X:FF Y:00 P:26 SP:FF CYC:270 SL:162
C7A8  AD 02 20  LDA $2002 = FF                  A:00 X:FF Y:00 P:26 SP:FF CYC:279 SL:162
C7AB  29 80     AND #$80                        A:10 X:FF Y:00 P:24 SP:FF CYC:291 SL:162
C7AD  F0 F9     BEQ $C7A8                       A:00 X:FF Y:00 P:26 SP:FF CYC:297 SL:162
C7A8  AD 02 20  LDA $2002 = FF                  A:00 X:FF Y:00 P:26 SP:FF CYC:306 SL:162
C7AB  29 80     AND #$80                        A:10 X:FF Y:00 P:24 SP:FF CYC:318 SL:162
C7AD  F0 F9     BEQ $C7A8                       A:00 X:FF Y:00 P:26 SP:FF CYC:324 SL:162
C7A8  AD 02 20  LDA $2002 = FF                  A:00 X:FF Y:00 P:26 SP:FF CYC:333 SL:162
C7AB  29 80     AND #$80                        A:10 X:FF Y:00 P:24 SP:FF CYC:  4 SL:163
C7AD  F0 F9     BEQ $C7A8                       A:00 X:FF Y:00 P:26 SP:FF CYC: 10 SL:163
C7A8  AD 02 20  LDA $2002 = FF                  A:00 X:FF Y:00 P:26 SP:FF CYC: 19 SL:163
C7AB  29 80     AND #$80                        A:10 X:FF Y:00 P:24 SP:FF CYC: 31 SL:163
C7AD  F0 F9     BEQ $C7A8                       A:00 X:FF Y:00 P:26 SP:FF CYC: 37 SL:163
C7A8  AD 02 20  LDA $2002 = FF                  A:00 X:FF Y:00 P:26 SP:FF CYC: 46 SL:163
C7AB  29 80     AND #$80                        A:10 X:FF Y:00 P:24 SP:FF CYC: 58 SL:163
C7AD  F0 F9     BEQ $C7A8                       A:00 X:FF Y:00 P:26 SP:FF CYC: 64 SL:163
C7A8  AD 02 20  LDA $2002 = FF                  A:00 X:FF Y:00 P:26 SP:FF CYC: 73 SL:163
C7AB  29 80     AND #$80                        A:10 X:FF Y:00 P:24 SP:FF CYC: 85 SL:163
C7AD  F0 F9     BEQ $C7A8                       A:00 X:FF Y:00 P:26 SP:FF CYC: 91 SL:163
C7A8  AD 02 20  LDA $2002 = FF                  A:00 X:FF Y:00 P:26 SP:FF CYC:100 SL:163
C7AB  29 80     AND #$80                        A:10 X:FF Y:00 P:24 SP:FF CYC:112 SL:163
C7AD  F0 F9     BEQ $C7A8                       A:00 X:FF Y:00 P:26 SP:FF CYC:118 SL:163
C7A8  AD 02 20  LDA $2002 = FF                  A:00 X:FF Y:00 P:26 SP:FF CYC:127 SL:163
C7AB  29 80     AND #$80                        A:10 X:FF Y:00 P:24 SP:FF CYC:139 SL:163
C7AD  F0 F9     BEQ $C7A8                       A:00 X:FF Y:00 P:26 SP:FF CYC:145 SL:163
C7A8  AD 02 20  LDA $2002 = FF                  A:00 X:FF Y:00 P:26 SP:FF CYC:154 SL:163
C7AB  29 80     AND #$80                        A:10 X:FF Y:00 P:24 SP:FF CYC:166 SL:163
C7AD  F0 F9     BEQ $C7A8                       A:00 X:FF Y:00 P:26 SP:FF CYC:172 SL:163
C7A8  AD 02 20  LDA $2002 = FF                  A:00 X:FF Y:00 P:26 SP:FF CYC:181 SL:163
C7AB  29 80     AND #$80                        A:10 X:FF Y:00 P:24 SP:FF CYC:193 SL:163
C7AD  F0 F9     BEQ $C7A8                       A:00 X:FF Y:00 P:26 SP:FF CYC:199 SL:163
C7A8  AD 02 20  LDA $2002 = FF                  A:00 X:FF Y:00 P:26 SP:FF CYC:208 SL:163
C7AB  29 80     AND #$80                        A:10 X:FF Y:00 P:24 SP:FF CYC:220 SL:163
C7AD  F0 F9     BEQ $C7A8                       A:00 X:FF Y:00 P:26 SP:FF CYC:226 SL:163
C7A8  AD 02 20  LDA $2002 = FF                  A:00 X:FF Y:00 P:26 SP:FF CYC:235 SL:163
C7AB  29 80     AND #$80                        A:10 X:FF Y:00 P:24 SP:FF CYC:247 SL:163
C7AD  F0 F9     BEQ $C7A8                       A:00 X:FF Y:00 P:26 SP:FF CYC:253 SL:163
C7A8  AD 02 20  LDA $2002 = FF                  A:00 X:FF Y:00 P:26 SP:FF CYC:262 SL:163
C7AB  29 80     AND #$80                        A:10 X:FF Y:00 P:24 SP:FF CYC:274 SL:163
C7AD  F0 F9     BEQ $C7A8                       A:00 X:FF Y:00 P:26 SP:FF CYC:280 SL:163
C7A8  AD 02 20  LDA $2002 = FF                  A:00 X:FF Y:00 P:26 SP:FF CYC:289 SL:163
C7AB  29 80     AND #$80                        A:10 X:FF Y:00 P:24 SP:FF CYC:301 SL:163
C7AD  F0 F9     BEQ $C7A8                       A:00 X:FF Y:00 P:26 SP:FF CYC:307 SL:163
C7A8  AD 02 20  LDA $2002 = FF                  A:00 X:FF Y:00 P:26 SP:FF CYC:316 SL:163
C7AB  29 80     AND #$80                        A:10 X:FF Y:00 P:24 SP:FF CYC:328 SL:163
C7AD  F0 F9     BEQ $C7A8                       A:00 X:FF Y:00 P:26 SP:FF CYC:334 SL:163
C7A8  AD 02 20  LDA $2002 = FF                  A:00 X:FF Y:00 P:26 SP:FF CYC:  2 SL:164
C7AB  29 80     AND #$80                        A:10 X:FF Y:00 P:24 SP:FF CYC: 14 SL:164
C7AD  F0 F9     BEQ $C7A8                       A:00 X:FF Y:00 P:26 SP:FF CYC: 20 SL:164
C7A8  AD 02 20  LDA $2002 = FF                  A:00 X:FF Y:00 P:26 SP:FF CYC: 29 SL:164
C7AB  29 80     AND #$80                        A:10 X:FF Y:00 P:24 SP:FF CYC: 41 SL:164
C7AD  F0 F9     BEQ $C7A8                       A:00 X:FF Y:00 P:26 SP:FF CYC: 47 SL:164
C7A8  AD 02 20  LDA $2002 = FF                  A:00 X:FF Y:00 P:26 SP:FF CYC: 56 SL:164
C7AB  29 80     AND #$80                        A:10 X:FF Y:00 P:24 SP:FF CYC: 68 SL:164
C7AD  F0 F9     BEQ $C7A8                       A:00 X:FF Y:00 P:26 SP:FF CYC: 74 SL:164
C7A8  AD 02 20  LDA $2002 = FF                  A:00 X:FF Y:00 P:26 SP:FF CYC: 83 SL:164
C7AB  29 80     AND #$80                        A:10 X:FF Y:00 P:24 SP:FF CYC: 95 SL:164
C7AD  F0 F9     BEQ $C7A8                       A:00 X:FF Y:00 P:26 SP:FF CYC:101 SL:164
C7A8  AD 02 20  LDA $2002 = FF                  A:00 X:FF Y:00 P:26 SP:FF CYC:110 SL:164
C7AB  29 80     AND #$80                        A:10 X:FF Y:00 P:24 SP:FF CYC:122 SL:164
C7AD  F0 F9     BEQ $C7A8                       A:00 X:FF Y:00 P:26 SP:FF CYC:128 SL:164
C7A8  AD 02 20  LDA $2002 = FF                  A:00 X:FF Y:00 P:26 SP:FF CYC:137 SL:164
C7AB  29 80     AND #$80                        A:10 X:FF Y:00 P:24 SP:FF CYC:149 SL:164
C7AD  F0 F9     BEQ $C7A8                       A:00 X:FF Y:00 P:26 SP:FF CYC:155 SL:164
C7A8  AD 02 20  LDA $2002 = FF                  A:00 X:FF Y:00 P:26 SP:FF CYC:164 SL:164
C7AB  29 80     AND #$80                        A:10 X:FF Y:00 P:24 SP:FF CYC:176 SL:164
C7AD  F0 F9     BEQ $C7A8                       A:00 X:FF Y:00 P:26 SP:FF CYC:182 SL:164
C7A8  AD 02 20  LDA $2002 = FF                  A:00 X:FF Y:00 P:26 SP:FF CYC:191 SL:164
C7AB  29 80     AND #$80                        A:10 X:FF Y:00 P:24 SP:FF CYC:203 SL:164
C7AD  F0 F9     BEQ $C7A8                       A:00 X:FF Y:00 P:26 SP:FF CYC:209 SL:164
C7A8  AD 02 20  LDA $2002 = FF                  A:00 X:FF Y:00 P:26 SP:FF CYC:218 SL:164
C7AB  29 80     AND #$80                        A:10 X:FF Y:00 P:24 SP:FF CYC:230 SL:164
C7AD  F0 F9     BEQ $C7A8                       A:00 X:FF Y:00 P:26 SP:FF CYC:236 SL:164
C7A8  AD 02 20  LDA $2002 = FF                  A:00 X:FF Y:00 P:26 SP:FF CYC:245 SL:164
C7AB  29 80     AND #$80                        A:10 X:FF Y:00 P:24 SP:FF CYC:257 SL:164
C7AD  F0 F9     BEQ $C7A8                       A:00 X:FF Y:00 P:26 SP:FF CYC:263 SL:164
C7A8  AD 02 20  LDA $2002 = FF                  A:00 X:FF Y:00 P:26 SP:FF CYC:272 SL:164
C7AB  29 80     AND #$80                        A:10 X:FF Y:00 P:24 SP:FF CYC:284 SL:164
C7AD  F0 F9     BEQ $C7A8                       A:00 X:FF Y:00 P:26 SP:FF CYC:290 SL:164
C7A8  AD 02 20  LDA $2002 = FF                  A:00 X:FF Y:00 P:26 SP:FF CYC:299 SL:164
C7AB  29 80     AND #$80                        A:10 X:FF Y:00 P:24 SP:FF CYC:311 SL:164
C7AD  F0 F9     BEQ $C7A8                       A:00 X:FF Y:00 P:26 SP:FF CYC:317 SL:164
C7A8  AD 02 20  LDA $2002 = FF                  A:00 X:FF Y:00 P:26 SP:FF CYC:326 SL:164
C7AB  29 80     AND #$80                        A:10 X:FF Y:00 P:24 SP:FF CYC:338 SL:164
C7AD  F0 F9     BEQ $C7A8                       A:00 X:FF Y:00 P:26 SP:FF CYC:  3 SL:165
C7A8  AD 02 20  LDA $2002 = FF                  A:00 X:FF Y:00 P:26 SP:FF CYC: 12 SL:165
C7AB  29 80     AND #$80                        A:10 X:FF Y:00 P:24 SP:FF CYC: 24 SL:165
C7AD  F0 F9     BEQ $C7A8                       A:00 X:FF Y:00 P:26 SP:FF CYC: 30 SL:165
C7A8  AD 02 20  LDA $2002 = FF                  A:00 X:FF Y:00 P:26 SP:FF CYC: 39 SL:165
C7AB  29 80     AND #$80                        A:10 X:FF Y:00 P:24 SP:FF CYC: 51 SL:165
C7AD  F0 F9     BEQ $C7A8                       A:00 X:FF Y:00 P:26 SP:FF CYC: 57 SL:165
C7A8  AD 02 20  LDA $2002 = FF                  A:00 X:FF Y:00 P:26 SP:FF CYC: 66 SL:165
C7AB  29 80     AND #$80                        A:10 X:FF Y:00 P:24 SP:FF CYC: 78 SL:165
C7AD  F0 F9     BEQ $C7A8                       A:00 X:FF Y:00 P:26 SP:FF CYC: 84 SL:165
C7A8  AD 02 20  LDA $2002 = FF                  A:00 X:FF Y:00 P:26 SP:FF CYC: 93 SL:165
C7AB  29 80     AND #$80                        A:10 X:FF Y:00 P:24 SP:FF CYC:105 SL:165
C7AD  F0 F9     BEQ $C7A8                       A:00 X:FF Y:00 P:26 SP:FF CYC:111 SL:165
C7A8  AD 02 20  LDA $2002 = FF                  A:00 X:FF Y:00 P:26 SP:FF CYC:120 SL:165
C7AB  29 80     AND #$80                        A:10 X:FF Y:00 P:24 SP:FF CYC:132 SL:165
C7AD  F0 F9     BEQ $C7A8                       A:00 X:FF Y:00 P:26 SP:FF CYC:138 SL:165
C7A8  AD 02 20  LDA $2002 = FF                  A:00 X:FF Y:00 P:26 SP:FF CYC:147 SL:165
C7AB  29 80     AND #$80                        A:10 X:FF Y:00 P:24 SP:FF CYC:159 SL:165
C7AD  F0 F9     BEQ $C7A8                       A:00 X:FF Y:00 P:26 SP:FF CYC:165 SL:165
C7A8  AD 02 20  LDA $2002 = FF                  A:00 X:FF Y:00 P:26 SP:FF CYC:174 SL:165
C7AB  29 80     AND #$80                        A:10 X:FF Y:00 P:24 SP:FF CYC:186 SL:165
C7AD  F0 F9     BEQ $C7A8                       A:00 X:FF Y:00 P:26 SP:FF CYC:192 SL:165
C7A8  AD 02 20  LDA $2002 = FF                  A:00 X:FF Y:00 P:26 SP:FF CYC:201 SL:165
C7AB  29 80     AND #$80                        A:10 X:FF Y:00 P:24 SP:FF CYC:213 SL:165
C7AD  F0 F9     BEQ $C7A8                       A:00 X:FF Y:00 P:26 SP:FF CYC:219 SL:165
C7A8  AD 02 20  LDA $2002 = FF                  A:00 X:FF Y:00 P:26 SP:FF CYC:228 SL:165
C7AB  29 80     AND #$80                        A:10 X:FF Y:00 P:24 SP:FF CYC:240 SL:165
C7AD  F0 F9     BEQ $C7A8                       A:00 X:FF Y:00 P:26 SP:FF CYC:246 SL:165
C7A8  AD 02 20  LDA $2002 = FF                  A:00 X:FF Y:00 P:26 SP:FF CYC:255 SL:165
C7AB  29 80     AND #$80                        A:10 X:FF Y:00 P:24 SP:FF CYC:267 SL:165
C7AD  F0 F9     BEQ $C7A8                       A:00 X:FF Y:00 P:26 SP:FF CYC:273 SL:165
C7A8  AD 02 20  LDA $2002 = FF                  A:00 X:FF Y:00 P:26 SP:FF CYC:282 SL:165
C7AB  29 80     AND #$80                        A:10 X:FF Y:00 P:24 SP:FF CYC:294 SL:165
C7AD  F0 F9     BEQ $C7A8                       A:00 X:FF Y:00 P:26 SP:FF CYC:300 SL:165
C7A8  AD 02 20  LDA $2002 = FF                  A:00 X:FF Y:00 P:26 SP:FF CYC:309 SL:165
C7AB  29 80     AND #$80                        A:10 X:FF Y:00 P:24 SP:FF CYC:321 SL:165
C7AD  F0 F9     BEQ $C7A8                       A:00 X:FF Y:00 P:26 SP:FF CYC:327 SL:165
C7A8  AD 02 20  LDA $2002 = FF                  A:00 X:FF Y:00 P:26 SP:FF CYC:336 SL:165
C7AB  29 80     AND #$80                        A:10 X:FF Y:00 P:24 SP:FF CYC:  7 SL:166
C7AD  F0 F9     BEQ $C7A8                       A:00 X:FF Y:00 P:26 SP:FF CYC: 13 SL:166
C7A8  AD 02 20  LDA $2002 = FF                  A:00 X:FF Y:00 P:26 SP:FF CYC: 22 SL:166
C7AB  29 80     AND #$80                        A:10 X:FF Y:00 P:24 SP:FF CYC: 34 SL:166
C7AD  F0 F9     BEQ $C7A8                       A:00 X:FF Y:00 P:26 SP:FF CYC: 40 SL:166
C7A8  AD 02 20  LDA $2002 = FF                  A:00 X:FF Y:00 P:26 SP:FF CYC: 49 SL:166
C7AB  29 80     AND #$80                        A:10 X:FF Y:00 P:24 SP:FF CYC: 61 SL:166
C7AD  F0 F9     BEQ $C7A8                       A:00 X:FF Y:00 P:26 SP:FF CYC: 67 SL:166
C7A8  AD 02 20  LDA $2002 = FF                  A:00 X:FF Y:00 P:26 SP:FF CYC: 76 SL:166
C7AB  29 80     AND #$80                        A:10 X:FF Y:00 P:24 SP:FF CYC: 88 SL:166
C7AD  F0 F9     BEQ $C7A8                       A:00 X:FF Y:00 P:26 SP:FF CYC: 94 SL:166
C7A8  AD 02 20  LDA $2002 = FF                  A:00 X:FF Y:00 P:26 SP:FF CYC:103 SL:166
C7AB  29 80     AND #$80                        A:10 X:FF Y:00 P:24 SP:FF CYC:115 SL:166
C7AD  F0 F9     BEQ $C7A8                       A:00 X:FF Y:00 P:26 SP:FF CYC:121 SL:166
C7A8  AD 02 20  LDA $2002 = FF                  A:00 X:FF Y:00 P:26 SP:FF CYC:130 SL:166
C7AB  29 80     AND #$80                        A:10 X:FF Y:00 P:24 SP:FF CYC:142 SL:166
C7AD  F0 F9     BEQ $C7A8                       A:00 X:FF Y:00 P:26 SP:FF CYC:148 SL:166
C7A8  AD 02 20  LDA $2002 = FF                  A:00 X:FF Y:00 P:26 SP:FF CYC:157 SL:166
C7AB  29 80     AND #$80                        A:10 X:FF Y:00 P:24 SP:FF CYC:169 SL:166
C7AD  F0 F9     BEQ $C7A8                       A:00 X:FF Y:00 P:26 SP:FF CYC:175 SL:166
C7A8  AD 02 20  LDA $2002 = FF                  A:00 X:FF Y:00 P:26 SP:FF CYC:184 SL:166
C7AB  29 80     AND #$80                        A:10 X:FF Y:00 P:24 SP:FF CYC:196 SL:166
C7AD  F0 F9     BEQ $C7A8                       A:00 X:FF Y:00 P:26 SP:FF CYC:202 SL:166
C7A8  AD 02 20  LDA $2002 = FF                  A:00 X:FF Y:00 P:26 SP:FF CYC:211 SL:166
C7AB  29 80     AND #$80                        A:10 X:FF Y:00 P:24 SP:FF CYC:223 SL:166
C7AD  F0 F9     BEQ $C7A8                       A:00 X:FF Y:00 P:26 SP:FF CYC:229 SL:166
C7A8  AD 02 20  LDA $2002 = FF                  A:00 X:FF Y:00 P:26 SP:FF CYC:238 SL:166
C7AB  29 80     AND #$80                        A:10 X:FF Y:00 P:24 SP:FF CYC:250 SL:166
C7AD  F0 F9     BEQ $C7A8                       A:00 X:FF Y:00 P:26 SP:FF CYC:256 SL:166
C7A8  AD 02 20  LDA $2002 = FF                  A:00 X:FF Y:00 P:26 SP:FF CYC:265 SL:166
C7AB  29 80     AND #$80                        A:10 X:FF Y:00 P:24 SP:FF CYC:277 SL:166
C7AD  F0 F9     BEQ $C7A8                       A:00 X:FF Y:00 P:26 SP:FF CYC:283 SL:166
C7A8  AD 02 20  LDA $2002 = FF                  A:00 X:FF Y:00 P:26 SP:FF CYC:292 SL:166
C7AB  29 80     AND #$80                        A:10 X:FF Y:00 P:24 SP:FF CYC:304 SL:166
C7AD  F0 F9     BEQ $C7A8                       A:00 X:FF Y:00 P:26 SP:FF CYC:310 SL:166
C7A8  AD 02 20  LDA $2002 = FF                  A:00 X:FF Y:00 P:26 SP:FF CYC:319 SL:166
C7AB  29 80     AND #$80                        A:10 X:FF Y:00 P:24 SP:FF CYC:331 SL:166
C7AD  F0 F9     BEQ $C7A8                       A:00 X:FF Y:00 P:26 SP:FF CYC:337 SL:166
C7A8  AD 02 20  LDA $2002 = FF                  A:00 X:FF Y:00 P:26 SP:FF CYC:  5 SL:167
C7AB  29 80     AND #$80                        A:10 X:FF Y:00 P:24 SP:FF CYC: 17 SL:167
C7AD  F0 F9     BEQ $C7A8                       A:00 X:FF Y:00 P:26 SP:FF CYC: 23 SL:167
C7A8  AD 02 20  LDA $2002 = FF                  A:00 X:FF Y:00 P:26 SP:FF CYC: 32 SL:167
C7AB  29 80     AND #$80                        A:10 X:FF Y:00 P:24 SP:FF CYC: 44 SL:167
C7AD  F0 F9     BEQ $C7A8                       A:00 X:FF Y:00 P:26 SP:FF CYC: 50 SL:167
C7A8  AD 02 20  LDA $2002 = FF                  A:00 X:FF Y:00 P:26 SP:FF CYC: 59 SL:167
C7AB  29 80     AND #$80                        A:10 X:FF Y:00 P:24 SP:FF CYC: 71 SL:167
C7AD  F0 F9     BEQ $C7A8                       A:00 X:FF Y:00 P:26 SP:FF CYC: 77 SL:167
C7A8  AD 02 20  LDA $2002 = FF                  A:00 X:FF Y:00 P:26 SP:FF CYC: 86 SL:167
C7AB  29 80     AND #$80                        A:10 X:FF Y:00 P:24 SP:FF CYC: 98 SL:167
C7AD  F0 F9     BEQ $C7A8                       A:00 X:FF Y:00 P:26 SP:FF CYC:104 SL:167
C7A8  AD 02 20  LDA $2002 = FF                  A:00 X:FF Y:00 P:26 SP:FF CYC:113 SL:167
C7AB  29 80     AND #$80                        A:10 X:FF Y:00 P:24 SP:FF CYC:125 SL:167
C7AD  F0 F9     BEQ $C7A8                       A:00 X:FF Y:00 P:26 SP:FF CYC:131 SL:167
C7A8  AD 02 20  LDA $2002 = FF                  A:00 X:FF Y:00 P:26 SP:FF CYC:140 SL:167
C7AB  29 80     AND #$80                        A:10 X:FF Y:00 P:24 SP:FF CYC:152 SL:167
C7AD  F0 F9     BEQ $C7A8                       A:00 X:FF Y:00 P:26 SP:FF CYC:158 SL:167
C7A8  AD 02 20  LDA $2002 = FF                  A:00 X:FF Y:00 P:26 SP:FF CYC:167 SL:167
C7AB  29 80     AND #$80                        A:10 X:FF Y:00 P:24 SP:FF CYC:179 SL:167
C7AD  F0 F9     BEQ $C7A8                       A:00 X:FF Y:00 P:26 SP:FF CYC:185 SL:167
C7A8  AD 02 20  LDA $2002 = FF                  A:00 X:FF Y:00 P:26 SP:FF CYC:194 SL:167
C7AB  29 80     AND #$80                        A:10 X:FF Y:00 P:24 SP:FF CYC:206 SL:167
C7AD  F0 F9     BEQ $C7A8                       A:00 X:FF Y:00 P:26 SP:FF CYC:212 SL:167
C7A8  AD 02 20  LDA $2002 = FF                  A:00 X:FF Y:00 P:26 SP:FF CYC:221 SL:167
C7AB  29 80     AND #$80                        A:10 X:FF Y:00 P:24 SP:FF CYC:233 SL:167
C7AD  F0 F9     BEQ $C7A8                       A:00 X:FF Y:00 P:26 SP:FF CYC:239 SL:167
C7A8  AD 02 20  LDA $2002 = FF                  A:00 X:FF Y:00 P:26 SP:FF CYC:248 SL:167
C7AB  29 80     AND #$80                        A:10 X:FF Y:00 P:24 SP:FF CYC:260 SL:167
C7AD  F0 F9     BEQ $C7A8                       A:00 X:FF Y:00 P:26 SP:FF CYC:266 SL:167
C7A8  AD 02 20  LDA $2002 = FF                  A:00 X:FF Y:00 P:26 SP:FF CYC:275 SL:167
C7AB  29 80     AND #$80                        A:10 X:FF Y:00 P:24 SP:FF CYC:287 SL:167
C7AD  F0 F9     BEQ $C7A8                       A:00 X:FF Y:00 P:26 SP:FF CYC:293 SL:167
C7A8  AD 02 20  LDA $2002 = FF                  A:00 X:FF Y:00 P:26 SP:FF CYC:302 SL:167
C7AB  29 80     AND #$80                        A:10 X:FF Y:00 P:24 SP:FF CYC:314 SL:167
C7AD  F0 F9     BEQ $C7A8                       A:00 X:FF Y:00 P:26 SP:FF CYC:320 SL:167
C7A8  AD 02 20  LDA $2002 = FF                  A:00 X:FF Y:00 P:26 SP:FF CYC:329 SL:167
C7AB  29 80     AND #$80                        A:10 X:FF Y:00 P:24 SP:FF CYC:  0 SL:168
C7AD  F0 F9     BEQ $C7A8                       A:00 X:FF Y:00 P:26 SP:FF CYC:  6 SL:168
C7A8  AD 02 20  LDA $2002 = FF                  A:00 X:FF Y:00 P:26 SP:FF CYC: 15 SL:168
C7AB  29 80     AND #$80                        A:10 X:FF Y:00 P:24 SP:FF CYC: 27 SL:168
C7AD  F0 F9     BEQ $C7A8                       A:00 X:FF Y:00 P:26 SP:FF CYC: 33 SL:168
C7A8  AD 02 20  LDA $2002 = FF                  A:00 X:FF Y:00 P:26 SP:FF CYC: 42 SL:168
C7AB  29 80     AND #$80                        A:10 X:FF Y:00 P:24 SP:FF CYC: 54 SL:168
C7AD  F0 F9     BEQ $C7A8                       A:00 X:FF Y:00 P:26 SP:FF CYC: 60 SL:168
C7A8  AD 02 20  LDA $2002 = FF                  A:00 X:FF Y:00 P:26 SP:FF CYC: 69 SL:168
C7AB  29 80     AND #$80                        A:10 X:FF Y:00 P:24 SP:FF CYC: 81 SL:168
C7AD  F0 F9     BEQ $C7A8                       A:00 X:FF Y:00 P:26 SP:FF CYC: 87 SL:168
C7A8  AD 02 20  LDA $2002 = FF                  A:00 X:FF Y:00 P:26 SP:FF CYC: 96 SL:168
C7AB  29 80     AND #$80                        A:10 X:FF Y:00 P:24 SP:FF CYC:108 SL:168
C7AD  F0 F9     BEQ $C7A8                       A:00 X:FF Y:00 P:26 SP:FF CYC:114 SL:168
C7A8  AD 02 20  LDA $2002 = FF                  A:00 X:FF Y:00 P:26 SP:FF CYC:123 SL:168
C7AB  29 80     AND #$80                        A:10 X:FF Y:00 P:24 SP:FF CYC:135 SL:168
C7AD  F0 F9     BEQ $C7A8                       A:00 X:FF Y:00 P:26 SP:FF CYC:141 SL:168
C7A8  AD 02 20  LDA $2002 = FF                  A:00 X:FF Y:00 P:26 SP:FF CYC:150 SL:168
C7AB  29 80     AND #$80                        A:10 X:FF Y:00 P:24 SP:FF CYC:162 SL:168
C7AD  F0 F9     BEQ $C7A8                       A:00 X:FF Y:00 P:26 SP:FF CYC:168 SL:168
C7A8  AD 02 20  LDA $2002 = FF                  A:00 X:FF Y:00 P:26 SP:FF CYC:177 SL:168
C7AB  29 80     AND #$80                        A:10 X:FF Y:00 P:24 SP:FF CYC:189 SL:168
C7AD  F0 F9     BEQ $C7A8                       A:00 X:FF Y:00 P:26 SP:FF CYC:195 SL:168
C7A8  AD 02 20  LDA $2002 = FF                  A:00 X:FF Y:00 P:26 SP:FF CYC:204 SL:168
C7AB  29 80     AND #$80                        A:10 X:FF Y:00 P:24 SP:FF CYC:216 SL:168
C7AD  F0 F9     BEQ $C7A8                       A:00 X:FF Y:00 P:26 SP:FF CYC:222 SL:168
C7A8  AD 02 20  LDA $2002 = FF                  A:00 X:FF Y:00 P:26 SP:FF CYC:231 SL:168
C7AB  29 80     AND #$80                        A:10 X:FF Y:00 P:24 SP:FF CYC:243 SL:168
C7AD  F0 F9     BEQ $C7A8                       A:00 X:FF Y:00 P:26 SP:FF CYC:249 SL:168
C7A8  AD 02 20  LDA $2002 = FF                  A:00 X:FF Y:00 P:26 SP:FF CYC:258 SL:168
C7AB  29 80     AND #$80                        A:10 X:FF Y:00 P:24 SP:FF CYC:270 SL:168
C7AD  F0 F9     BEQ $C7A8                       A:00 X:FF Y:00 P:26 SP:FF CYC:276 SL:168
C7A8  AD 02 20  LDA $2002 = FF                  A:00 X:FF Y:00 P:26 SP:FF CYC:285 SL:168
C7AB  29 80     AND #$80                        A:10 X:FF Y:00 P:24 SP:FF CYC:297 SL:168
C7AD  F0 F9     BEQ $C7A8                       A:00 X:FF Y:00 P:26 SP:FF CYC:303 SL:168
C7A8  AD 02 20  LDA $2002 = FF                  A:00 X:FF Y:00 P:26 SP:FF CYC:312 SL:168
C7AB  29 80     AND #$80                        A:10 X:FF Y:00 P:24 SP:FF CYC:324 SL:168
C7AD  F0 F9     BEQ $C7A8                       A:00 X:FF Y:00 P:26 SP:FF CYC:330 SL:168
C7A8  AD 02 20  LDA $2002 = FF                  A:00 X:FF Y:00 P:26 SP:FF CYC:339 SL:168
C7AB  29 80     AND #$80                        A:10 X:FF Y:00 P:24 SP:FF CYC: 10 SL:169
C7AD  F0 F9     BEQ $C7A8                       A:00 X:FF Y:00 P:26 SP:FF CYC: 16 SL:169
C7A8  AD 02 20  LDA $2002 = FF                  A:00 X:FF Y:00 P:26 SP:FF CYC: 25 SL:169
C7AB  29 80     AND #$80                        A:10 X:FF Y:00 P:24 SP:FF CYC: 37 SL:169
C7AD  F0 F9     BEQ $C7A8                       A:00 X:FF Y:00 P:26 SP:FF CYC: 43 SL:169
C7A8  AD 02 20  LDA $2002 = FF                  A:00 X:FF Y:00 P:26 SP:FF CYC: 52 SL:169
C7AB  29 80     AND #$80                        A:10 X:FF Y:00 P:24 SP:FF CYC: 64 SL:169
C7AD  F0 F9     BEQ $C7A8                       A:00 X:FF Y:00 P:26 SP:FF CYC: 70 SL:169
C7A8  AD 02 20  LDA $2002 = FF                  A:00 X:FF Y:00 P:26 SP:FF CYC: 79 SL:169
C7AB  29 80     AND #$80                        A:10 X:FF Y:00 P:24 SP:FF CYC: 91 SL:169
C7AD  F0 F9     BEQ $C7A8                       A:00 X:FF Y:00 P:26 SP:FF CYC: 97 SL:169
C7A8  AD 02 20  LDA $2002 = FF                  A:00 X:FF Y:00 P:26 SP:FF CYC:106 SL:169
C7AB  29 80     AND #$80                        A:10 X:FF Y:00 P:24 SP:FF CYC:118 SL:169
C7AD  F0 F9     BEQ $C7A8                       A:00 X:FF Y:00 P:26 SP:FF CYC:124 SL:169
C7A8  AD 02 20  LDA $2002 = FF                  A:00 X:FF Y:00 P:26 SP:FF CYC:133 SL:169
C7AB  29 80     AND #$80                        A:10 X:FF Y:00 P:24 SP:FF CYC:145 SL:169
C7AD  F0 F9     BEQ $C7A8                       A:00 X:FF Y:00 P:26 SP:FF CYC:151 SL:169
C7A8  AD 02 20  LDA $2002 = FF                  A:00 X:FF Y:00 P:26 SP:FF CYC:160 SL:169
C7AB  29 80     AND #$80                        A:10 X:FF Y:00 P:24 SP:FF CYC:172 SL:169
C7AD  F0 F9     BEQ $C7A8                       A:00 X:FF Y:00 P:26 SP:FF CYC:178 SL:169
C7A8  AD 02 20  LDA $2002 = FF                  A:00 X:FF Y:00 P:26 SP:FF CYC:187 SL:169
C7AB  29 80     AND #$80                        A:10 X:FF Y:00 P:24 SP:FF CYC:199 SL:169
C7AD  F0 F9     BEQ $C7A8                       A:00 X:FF Y:00 P:26 SP:FF CYC:205 SL:169
C7A8  AD 02 20  LDA $2002 = FF                  A:00 X:FF Y:00 P:26 SP:FF CYC:214 SL:169
C7AB  29 80     AND #$80                        A:10 X:FF Y:00 P:24 SP:FF CYC:226 SL:169
C7AD  F0 F9     BEQ $C7A8                       A:00 X:FF Y:00 P:26 SP:FF CYC:232 SL:169
C7A8  AD 02 20  LDA $2002 = FF                  A:00 X:FF Y:00 P:26 SP:FF CYC:241 SL:169
C7AB  29 80     AND #$80                        A:10 X:FF Y:00 P:24 SP:FF CYC:253 SL:169
C7AD  F0 F9     BEQ $C7A8                       A:00 X:FF Y:00 P:26 SP:FF CYC:259 SL:169
C7A8  AD 02 20  LDA $2002 = FF                  A:00 X:FF Y:00 P:26 SP:FF CYC:268 SL:169
C7AB  29 80     AND #$80                        A:10 X:FF Y:00 P:24 SP:FF CYC:280 SL:169
C7AD  F0 F9     BEQ $C7A8                       A:00 X:FF Y:00 P:26 SP:FF CYC:286 SL:169
C7A8  AD 02 20  LDA $2002 = FF                  A:00 X:FF Y:00 P:26 SP:FF CYC:295 SL:169
C7AB  29 80     AND #$80                        A:10 X:FF Y:00 P:24 SP:FF CYC:307 SL:169
C7AD  F0 F9     BEQ $C7A8                       A:00 X:FF Y:00 P:26 SP:FF CYC:313 SL:169
C7A8  AD 02 20  LDA $2002 = FF                  A:00 X:FF Y:00 P:26 SP:FF CYC:322 SL:169
C7AB  29 80     AND #$80                        A:10 X:FF Y:00 P:24 SP:FF CYC:334 SL:169
C7AD  F0 F9     BEQ $C7A8                       A:00 X:FF Y:00 P:26 SP:FF CYC:340 SL:169
C7A8  AD 02 20  LDA $2002 = FF                  A:00 X:FF Y:00 P:26 SP:FF CYC:  8 SL:170
C7AB  29 80     AND #$80                        A:10 X:FF Y:00 P:24 SP:FF CYC: 20 SL:170
C7AD  F0 F9     BEQ $C7A8                       A:00 X:FF Y:00 P:26 SP:FF CYC: 26 SL:170
C7A8  AD 02 20  LDA $2002 = FF                  A:00 X:FF Y:00 P:26 SP:FF CYC: 35 SL:170
C7AB  29 80     AND #$80                        A:10 X:FF Y:00 P:24 SP:FF CYC: 47 SL:170
C7AD  F0 F9     BEQ $C7A8                       A:00 X:FF Y:00 P:26 SP:FF CYC: 53 SL:170
C7A8  AD 02 20  LDA $2002 = FF                  A:00 X:FF Y:00 P:26 SP:FF CYC: 62 SL:170
C7AB  29 80     AND #$80                        A:10 X:FF Y:00 P:24 SP:FF CYC: 74 SL:170
C7AD  F0 F9     BEQ $C7A8                       A:00 X:FF Y:00 P:26 SP:FF CYC: 80 SL:170
C7A8  AD 02 20  LDA $2002 = FF                  A:00 X:FF Y:00 P:26 SP:FF CYC: 89 SL:170
C7AB  29 80     AND #$80                        A:10 X:FF Y:00 P:24 SP:FF CYC:101 SL:170
C7AD  F0 F9     BEQ $C7A8                       A:00 X:FF Y:00 P:26 SP:FF CYC:107 SL:170
C7A8  AD 02 20  LDA $2002 = FF                  A:00 X:FF Y:00 P:26 SP:FF CYC:116 SL:170
C7AB  29 80     AND #$80                        A:10 X:FF Y:00 P:24 SP:FF CYC:128 SL:170
C7AD  F0 F9     BEQ $C7A8                       A:00 X:FF Y:00 P:26 SP:FF CYC:134 SL:170
C7A8  AD 02 20  LDA $2002 = FF                  A:00 X:FF Y:00 P:26 SP:FF CYC:143 SL:170
C7AB  29 80     AND #$80                        A:10 X:FF Y:00 P:24 SP:FF CYC:155 SL:170
C7AD  F0 F9     BEQ $C7A8                       A:00 X:FF Y:00 P:26 SP:FF CYC:161 SL:170
C7A8  AD 02 20  LDA $2002 = FF                  A:00 X:FF Y:00 P:26 SP:FF CYC:170 SL:170
C7AB  29 80     AND #$80                        A:10 X:FF Y:00 P:24 SP:FF CYC:182 SL:170
C7AD  F0 F9     BEQ $C7A8                       A:00 X:FF Y:00 P:26 SP:FF CYC:188 SL:170
C7A8  AD 02 20  LDA $2002 = FF                  A:00 X:FF Y:00 P:26 SP:FF CYC:197 SL:170
C7AB  29 80     AND #$80                        A:10 X:FF Y:00 P:24 SP:FF CYC:209 SL:170
C7AD  F0 F9     BEQ $C7A8                       A:00 X:FF Y:00 P:26 SP:FF CYC:215 SL:170
C7A8  AD 02 20  LDA $2002 = FF                  A:00 X:FF Y:00 P:26 SP:FF CYC:224 SL:170
C7AB  29 80     AND #$80                        A:10 X:FF Y:00 P:24 SP:FF CYC:236 SL:170
C7AD  F0 F9     BEQ $C7A8                       A:00 X:FF Y:00 P:26 SP:FF CYC:242 SL:170
C7A8  AD 02 20  LDA $2002 = FF                  A:00 X:FF Y:00 P:26 SP:FF CYC:251 SL:170
C7AB  29 80     AND #$80                        A:10 X:FF Y:00 P:24 SP:FF CYC:263 SL:170
C7AD  F0 F9     BEQ $C7A8                       A:00 X:FF Y:00 P:26 SP:FF CYC:269 SL:170
C7A8  AD 02 20  LDA $2002 = FF                  A:00 X:FF Y:00 P:26 SP:FF CYC:278 SL:170
C7AB  29 80     AND #$80                        A:10 X:FF Y:00 P:24 SP:FF CYC:290 SL:170
C7AD  F0 F9     BEQ $C7A8                       A:00 X:FF Y:00 P:26 SP:FF CYC:296 SL:170
C7A8  AD 02 20  LDA $2002 = FF                  A:00 X:FF Y:00 P:26 SP:FF CYC:305 SL:170
C7AB  29 80     AND #$80                        A:10 X:FF Y:00 P:24 SP:FF CYC:317 SL:170
C7AD  F0 F9     BEQ $C7A8                       A:00 X:FF Y:00 P:26 SP:FF CYC:323 SL:170
C7A8  AD 02 20  LDA $2002 = FF                  A:00 X:FF Y:00 P:26 SP:FF CYC:332 SL:170
C7AB  29 80     AND #$80                        A:10 X:FF Y:00 P:24 SP:FF CYC:  3 SL:171
C7AD  F0 F9     BEQ $C7A8                       A:00 X:FF Y:00 P:26 SP:FF CYC:  9 SL:171
C7A8  AD 02 20  LDA $2002 = FF                  A:00 X:FF Y:00 P:26 SP:FF CYC: 18 SL:171
C7AB  29 80     AND #$80                        A:10 X:FF Y:00 P:24 SP:FF CYC: 30 SL:171
C7AD  F0 F9     BEQ $C7A8                       A:00 X:FF Y:00 P:26 SP:FF CYC: 36 SL:171
C7A8  AD 02 20  LDA $2002 = FF                  A:00 X:FF Y:00 P:26 SP:FF CYC: 45 SL:171
C7AB  29 80     AND #$80                        A:10 X:FF Y:00 P:24 SP:FF CYC: 57 SL:171
C7AD  F0 F9     BEQ $C7A8                       A:00 X:FF Y:00 P:26 SP:FF CYC: 63 SL:171
C7A8  AD 02 20  LDA $2002 = FF                  A:00 X:FF Y:00 P:26 SP:FF CYC: 72 SL:171
C7AB  29 80     AND #$80                        A:10 X:FF Y:00 P:24 SP:FF CYC: 84 SL:171
C7AD  F0 F9     BEQ $C7A8                       A:00 X:FF Y:00 P:26 SP:FF CYC: 90 SL:171
C7A8  AD 02 20  LDA $2002 = FF                  A:00 X:FF Y:00 P:26 SP:FF CYC: 99 SL:171
C7AB  29 80     AND #$80                        A:10 X:FF Y:00 P:24 SP:FF CYC:111 SL:171
C7AD  F0 F9     BEQ $C7A8                       A:00 X:FF Y:00 P:26 SP:FF CYC:117 SL:171
C7A8  AD 02 20  LDA $2002 = FF                  A:00 X:FF Y:00 P:26 SP:FF CYC:126 SL:171
C7AB  29 80     AND #$80                        A:10 X:FF Y:00 P:24 SP:FF CYC:138 SL:171
C7AD  F0 F9     BEQ $C7A8                       A:00 X:FF Y:00 P:26 SP:FF CYC:144 SL:171
C7A8  AD 02 20  LDA $2002 = FF                  A:00 X:FF Y:00 P:26 SP:FF CYC:153 SL:171
C7AB  29 80     AND #$80                        A:10 X:FF Y:00 P:24 SP:FF CYC:165 SL:171
C7AD  F0 F9     BEQ $C7A8                       A:00 X:FF Y:00 P:26 SP:FF CYC:171 SL:171
C7A8  AD 02 20  LDA $2002 = FF                  A:00 X:FF Y:00 P:26 SP:FF CYC:180 SL:171
C7AB  29 80     AND #$80                        A:10 X:FF Y:00 P:24 SP:FF CYC:192 SL:171
C7AD  F0 F9     BEQ $C7A8                       A:00 X:FF Y:00 P:26 SP:FF CYC:198 SL:171
C7A8  AD 02 20  LDA $2002 = FF                  A:00 X:FF Y:00 P:26 SP:FF CYC:207 SL:171
C7AB  29 80     AND #$80                        A:10 X:FF Y:00 P:24 SP:FF CYC:219 SL:171
C7AD  F0 F9     BEQ $C7A8                       A:00 X:FF Y:00 P:26 SP:FF CYC:225 SL:171
C7A8  AD 02 20  LDA $2002 = FF                  A:00 X:FF Y:00 P:26 SP:FF CYC:234 SL:171
C7AB  29 80     AND #$80                        A:10 X:FF Y:00 P:24 SP:FF CYC:246 SL:171
C7AD  F0 F9     BEQ $C7A8                       A:00 X:FF Y:00 P:26 SP:FF CYC:252 SL:171
C7A8  AD 02 20  LDA $2002 = FF                  A:00 X:FF Y:00 P:26 SP:FF CYC:261 SL:171
C7AB  29 80     AND #$80                        A:10 X:FF Y:00 P:24 SP:FF CYC:273 SL:171
C7AD  F0 F9     BEQ $C7A8                       A:00 X:FF Y:00 P:26 SP:FF CYC:279 SL:171
C7A8  AD 02 20  LDA $2002 = FF                  A:00 X:FF Y:00 P:26 SP:FF CYC:288 SL:171
C7AB  29 80     AND #$80                        A:10 X:FF Y:00 P:24 SP:FF CYC:300 SL:171
C7AD  F0 F9     BEQ $C7A8                       A:00 X:FF Y:00 P:26 SP:FF CYC:306 SL:171
C7A8  AD 02 20  LDA $2002 = FF                  A:00 X:FF Y:00 P:26 SP:FF CYC:315 SL:171
C7AB  29 80     AND #$80                        A:10 X:FF Y:00 P:24 SP:FF CYC:327 SL:171
C7AD  F0 F9     BEQ $C7A8                       A:00 X:FF Y:00 P:26 SP:FF CYC:333 SL:171
C7A8  AD 02 20  LDA $2002 = FF                  A:00 X:FF Y:00 P:26 SP:FF CYC:  1 SL:172
C7AB  29 80     AND #$80                        A:10 X:FF Y:00 P:24 SP:FF CYC: 13 SL:172
C7AD  F0 F9     BEQ $C7A8                       A:00 X:FF Y:00 P:26 SP:FF CYC: 19 SL:172
C7A8  AD 02 20  LDA $2002 = FF                  A:00 X:FF Y:00 P:26 SP:FF CYC: 28 SL:172
C7AB  29 80     AND #$80                        A:10 X:FF Y:00 P:24 SP:FF CYC: 40 SL:172
C7AD  F0 F9     BEQ $C7A8                       A:00 X:FF Y:00 P:26 SP:FF CYC: 46 SL:172
C7A8  AD 02 20  LDA $2002 = FF                  A:00 X:FF Y:00 P:26 SP:FF CYC: 55 SL:172
C7AB  29 80     AND #$80                        A:10 X:FF Y:00 P:24 SP:FF CYC: 67 SL:172
C7AD  F0 F9     BEQ $C7A8                       A:00 X:FF Y:00 P:26 SP:FF CYC: 73 SL:172
C7A8  AD 02 20  LDA $2002 = FF                  A:00 X:FF Y:00 P:26 SP:FF CYC: 82 SL:172
C7AB  29 80     AND #$80                        A:10 X:FF Y:00 P:24 SP:FF CYC: 94 SL:172
C7AD  F0 F9     BEQ $C7A8                       A:00 X:FF Y:00 P:26 SP:FF CYC:100 SL:172
C7A8  AD 02 20  LDA $2002 = FF                  A:00 X:FF Y:00 P:26 SP:FF CYC:109 SL:172
C7AB  29 80     AND #$80                        A:10 X:FF Y:00 P:24 SP:FF CYC:121 SL:172
C7AD  F0 F9     BEQ $C7A8                       A:00 X:FF Y:00 P:26 SP:FF CYC:127 SL:172
C7A8  AD 02 20  LDA $2002 = FF                  A:00 X:FF Y:00 P:26 SP:FF CYC:136 SL:172
C7AB  29 80     AND #$80                        A:10 X:FF Y:00 P:24 SP:FF CYC:148 SL:172
C7AD  F0 F9     BEQ $C7A8                       A:00 X:FF Y:00 P:26 SP:FF CYC:154 SL:172
C7A8  AD 02 20  LDA $2002 = FF                  A:00 X:FF Y:00 P:26 SP:FF CYC:163 SL:172
C7AB  29 80     AND #$80                        A:10 X:FF Y:00 P:24 SP:FF CYC:175 SL:172
C7AD  F0 F9     BEQ $C7A8                       A:00 X:FF Y:00 P:26 SP:FF CYC:181 SL:172
C7A8  AD 02 20  LDA $2002 = FF                  A:00 X:FF Y:00 P:26 SP:FF CYC:190 SL:172
C7AB  29 80     AND #$80                        A:10 X:FF Y:00 P:24 SP:FF CYC:202 SL:172
C7AD  F0 F9     BEQ $C7A8                       A:00 X:FF Y:00 P:26 SP:FF CYC:208 SL:172
C7A8  AD 02 20  LDA $2002 = FF                  A:00 X:FF Y:00 P:26 SP:FF CYC:217 SL:172
C7AB  29 80     AND #$80                        A:10 X:FF Y:00 P:24 SP:FF CYC:229 SL:172
C7AD  F0 F9     BEQ $C7A8                       A:00 X:FF Y:00 P:26 SP:FF CYC:235 SL:172
C7A8  AD 02 20  LDA $2002 = FF                  A:00 X:FF Y:00 P:26 SP:FF CYC:244 SL:172
C7AB  29 80     AND #$80                        A:10 X:FF Y:00 P:24 SP:FF CYC:256 SL:172
C7AD  F0 F9     BEQ $C7A8                       A:00 X:FF Y:00 P:26 SP:FF CYC:262 SL:172
C7A8  AD 02 20  LDA $2002 = FF                  A:00 X:FF Y:00 P:26 SP:FF CYC:271 SL:172
C7AB  29 80     AND #$80                        A:10 X:FF Y:00 P:24 SP:FF CYC:283 SL:172
C7AD  F0 F9     BEQ $C7A8                       A:00 X:FF Y:00 P:26 SP:FF CYC:289 SL:172
C7A8  AD 02 20  LDA $2002 = FF                  A:00 X:FF Y:00 P:26 SP:FF CYC:298 SL:172
C7AB  29 80     AND #$80                        A:10 X:FF Y:00 P:24 SP:FF CYC:310 SL:172
C7AD  F0 F9     BEQ $C7A8                       A:00 X:FF Y:00 P:26 SP:FF CYC:316 SL:172
C7A8  AD 02 20  LDA $2002 = FF                  A:00 X:FF Y:00 P:26 SP:FF CYC:325 SL:172
C7AB  29 80     AND #$80                        A:10 X:FF Y:00 P:24 SP:FF CYC:337 SL:172
C7AD  F0 F9     BEQ $C7A8                       A:00 X:FF Y:00 P:26 SP:FF CYC:  2 SL:173
C7A8  AD 02 20  LDA $2002 = FF                  A:00 X:FF Y:00 P:26 SP:FF CYC: 11 SL:173
C7AB  29 80     AND #$80                        A:10 X:FF Y:00 P:24 SP:FF CYC: 23 SL:173
C7AD  F0 F9     BEQ $C7A8                       A:00 X:FF Y:00 P:26 SP:FF CYC: 29 SL:173
C7A8  AD 02 20  LDA $2002 = FF                  A:00 X:FF Y:00 P:26 SP:FF CYC: 38 SL:173
C7AB  29 80     AND #$80                        A:10 X:FF Y:00 P:24 SP:FF CYC: 50 SL:173
C7AD  F0 F9     BEQ $C7A8                       A:00 X:FF Y:00 P:26 SP:FF CYC: 56 SL:173
C7A8  AD 02 20  LDA $2002 = FF                  A:00 X:FF Y:00 P:26 SP:FF CYC: 65 SL:173
C7AB  29 80     AND #$80                        A:10 X:FF Y:00 P:24 SP:FF CYC: 77 SL:173
C7AD  F0 F9     BEQ $C7A8                       A:00 X:FF Y:00 P:26 SP:FF CYC: 83 SL:173
C7A8  AD 02 20  LDA $2002 = FF                  A:00 X:FF Y:00 P:26 SP:FF CYC: 92 SL:173
C7AB  29 80     AND #$80                        A:10 X:FF Y:00 P:24 SP:FF CYC:104 SL:173
C7AD  F0 F9     BEQ $C7A8                       A:00 X:FF Y:00 P:26 SP:FF CYC:110 SL:173
C7A8  AD 02 20  LDA $2002 = FF                  A:00 X:FF Y:00 P:26 SP:FF CYC:119 SL:173
C7AB  29 80     AND #$80                        A:10 X:FF Y:00 P:24 SP:FF CYC:131 SL:173
C7AD  F0 F9     BEQ $C7A8                       A:00 X:FF Y:00 P:26 SP:FF CYC:137 SL:173
C7A8  AD 02 20  LDA $2002 = FF                  A:00 X:FF Y:00 P:26 SP:FF CYC:146 SL:173
C7AB  29 80     AND #$80                        A:10 X:FF Y:00 P:24 SP:FF CYC:158 SL:173
C7AD  F0 F9     BEQ $C7A8                       A:00 X:FF Y:00 P:26 SP:FF CYC:164 SL:173
C7A8  AD 02 20  LDA $2002 = FF                  A:00 X:FF Y:00 P:26 SP:FF CYC:173 SL:173
C7AB  29 80     AND #$80                        A:10 X:FF Y:00 P:24 SP:FF CYC:185 SL:173
C7AD  F0 F9     BEQ $C7A8                       A:00 X:FF Y:00 P:26 SP:FF CYC:191 SL:173
C7A8  AD 02 20  LDA $2002 = FF                  A:00 X:FF Y:00 P:26 SP:FF CYC:200 SL:173
C7AB  29 80     AND #$80                        A:10 X:FF Y:00 P:24 SP:FF CYC:212 SL:173
C7AD  F0 F9     BEQ $C7A8                       A:00 X:FF Y:00 P:26 SP:FF CYC:218 SL:173
C7A8  AD 02 20  LDA $2002 = FF                  A:00 X:FF Y:00 P:26 SP:FF CYC:227 SL:173
C7AB  29 80     AND #$80                        A:10 X:FF Y:00 P:24 SP:FF CYC:239 SL:173
C7AD  F0 F9     BEQ $C7A8                       A:00 X:FF Y:00 P:26 SP:FF CYC:245 SL:173
C7A8  AD 02 20  LDA $2002 = FF                  A:00 X:FF Y:00 P:26 SP:FF CYC:254 SL:173
C7AB  29 80     AND #$80                        A:10 X:FF Y:00 P:24 SP:FF CYC:266 SL:173
C7AD  F0 F9     BEQ $C7A8                       A:00 X:FF Y:00 P:26 SP:FF CYC:272 SL:173
C7A8  AD 02 20  LDA $2002 = FF                  A:00 X:FF Y:00 P:26 SP:FF CYC:281 SL:173
C7AB  29 80     AND #$80                        A:10 X:FF Y:00 P:24 SP:FF CYC:293 SL:173
C7AD  F0 F9     BEQ $C7A8                       A:00 X:FF Y:00 P:26 SP:FF CYC:299 SL:173
C7A8  AD 02 20  LDA $2002 = FF                  A:00 X:FF Y:00 P:26 SP:FF CYC:308 SL:173
C7AB  29 80     AND #$80                        A:10 X:FF Y:00 P:24 SP:FF CYC:320 SL:173
C7AD  F0 F9     BEQ $C7A8                       A:00 X:FF Y:00 P:26 SP:FF CYC:326 SL:173
C7A8  AD 02 20  LDA $2002 = FF                  A:00 X:FF Y:00 P:26 SP:FF CYC:335 SL:173
C7AB  29 80     AND #$80                        A:10 X:FF Y:00 P:24 SP:FF CYC:  6 SL:174
C7AD  F0 F9     BEQ $C7A8                       A:00 X:FF Y:00 P:26 SP:FF CYC: 12 SL:174
C7A8  AD 02 20  LDA $2002 = FF                  A:00 X:FF Y:00 P:26 SP:FF CYC: 21 SL:174
C7AB  29 80     AND #$80                        A:10 X:FF Y:00 P:24 SP:FF CYC: 33 SL:174
C7AD  F0 F9     BEQ $C7A8                       A:00 X:FF Y:00 P:26 SP:FF CYC: 39 SL:174
C7A8  AD 02 20  LDA $2002 = FF                  A:00 X:FF Y:00 P:26 SP:FF CYC: 48 SL:174
C7AB  29 80     AND #$80                        A:10 X:FF Y:00 P:24 SP:FF CYC: 60 SL:174
C7AD  F0 F9     BEQ $C7A8                       A:00 X:FF Y:00 P:26 SP:FF CYC: 66 SL:174
C7A8  AD 02 20  LDA $2002 = FF                  A:00 X:FF Y:00 P:26 SP:FF CYC: 75 SL:174
C7AB  29 80     AND #$80                        A:10 X:FF Y:00 P:24 SP:FF CYC: 87 SL:174
C7AD  F0 F9     BEQ $C7A8                       A:00 X:FF Y:00 P:26 SP:FF CYC: 93 SL:174
C7A8  AD 02 20  LDA $2002 = FF                  A:00 X:FF Y:00 P:26 SP:FF CYC:102 SL:174
C7AB  29 80     AND #$80                        A:10 X:FF Y:00 P:24 SP:FF CYC:114 SL:174
C7AD  F0 F9     BEQ $C7A8                       A:00 X:FF Y:00 P:26 SP:FF CYC:120 SL:174
C7A8  AD 02 20  LDA $2002 = FF                  A:00 X:FF Y:00 P:26 SP:FF CYC:129 SL:174
C7AB  29 80     AND #$80                        A:10 X:FF Y:00 P:24 SP:FF CYC:141 SL:174
C7AD  F0 F9     BEQ $C7A8                       A:00 X:FF Y:00 P:26 SP:FF CYC:147 SL:174
C7A8  AD 02 20  LDA $2002 = FF                  A:00 X:FF Y:00 P:26 SP:FF CYC:156 SL:174
C7AB  29 80     AND #$80                        A:10 X:FF Y:00 P:24 SP:FF CYC:168 SL:174
C7AD  F0 F9     BEQ $C7A8                       A:00 X:FF Y:00 P:26 SP:FF CYC:174 SL:174
C7A8  AD 02 20  LDA $2002 = FF                  A:00 X:FF Y:00 P:26 SP:FF CYC:183 SL:174
C7AB  29 80     AND #$80                        A:10 X:FF Y:00 P:24 SP:FF CYC:195 SL:174
C7AD  F0 F9     BEQ $C7A8                       A:00 X:FF Y:00 P:26 SP:FF CYC:201 SL:174
C7A8  AD 02 20  LDA $2002 = FF                  A:00 X:FF Y:00 P:26 SP:FF CYC:210 SL:174
C7AB  29 80     AND #$80                        A:10 X:FF Y:00 P:24 SP:FF CYC:222 SL:174
C7AD  F0 F9     BEQ $C7A8                       A:00 X:FF Y:00 P:26 SP:FF CYC:228 SL:174
C7A8  AD 02 20  LDA $2002 = FF                  A:00 X:FF Y:00 P:26 SP:FF CYC:237 SL:174
C7AB  29 80     AND #$80                        A:10 X:FF Y:00 P:24 SP:FF CYC:249 SL:174
C7AD  F0 F9     BEQ $C7A8                       A:00 X:FF Y:00 P:26 SP:FF CYC:255 SL:174
C7A8  AD 02 20  LDA $2002 = FF                  A:00 X:FF Y:00 P:26 SP:FF CYC:264 SL:174
C7AB  29 80     AND #$80                        A:10 X:FF Y:00 P:24 SP:FF CYC:276 SL:174
C7AD  F0 F9     BEQ $C7A8                       A:00 X:FF Y:00 P:26 SP:FF CYC:282 SL:174
C7A8  AD 02 20  LDA $2002 = FF                  A:00 X:FF Y:00 P:26 SP:FF CYC:291 SL:174
C7AB  29 80     AND #$80                        A:10 X:FF Y:00 P:24 SP:FF CYC:303 SL:174
C7AD  F0 F9     BEQ $C7A8                       A:00 X:FF Y:00 P:26 SP:FF CYC:309 SL:174
C7A8  AD 02 20  LDA $2002 = FF                  A:00 X:FF Y:00 P:26 SP:FF CYC:318 SL:174
C7AB  29 80     AND #$80                        A:10 X:FF Y:00 P:24 SP:FF CYC:330 SL:174
C7AD  F0 F9     BEQ $C7A8                       A:00 X:FF Y:00 P:26 SP:FF CYC:336 SL:174
C7A8  AD 02 20  LDA $2002 = FF                  A:00 X:FF Y:00 P:26 SP:FF CYC:  4 SL:175
C7AB  29 80     AND #$80                        A:10 X:FF Y:00 P:24 SP:FF CYC: 16 SL:175
C7AD  F0 F9     BEQ $C7A8                       A:00 X:FF Y:00 P:26 SP:FF CYC: 22 SL:175
C7A8  AD 02 20  LDA $2002 = FF                  A:00 X:FF Y:00 P:26 SP:FF CYC: 31 SL:175
C7AB  29 80     AND #$80                        A:10 X:FF Y:00 P:24 SP:FF CYC: 43 SL:175
C7AD  F0 F9     BEQ $C7A8                       A:00 X:FF Y:00 P:26 SP:FF CYC: 49 SL:175
C7A8  AD 02 20  LDA $2002 = FF                  A:00 X:FF Y:00 P:26 SP:FF CYC: 58 SL:175
C7AB  29 80     AND #$80                        A:10 X:FF Y:00 P:24 SP:FF CYC: 70 SL:175
C7AD  F0 F9     BEQ $C7A8                       A:00 X:FF Y:00 P:26 SP:FF CYC: 76 SL:175
C7A8  AD 02 20  LDA $2002 = FF                  A:00 X:FF Y:00 P:26 SP:FF CYC: 85 SL:175
C7AB  29 80     AND #$80                        A:10 X:FF Y:00 P:24 SP:FF CYC: 97 SL:175
C7AD  F0 F9     BEQ $C7A8                       A:00 X:FF Y:00 P:26 SP:FF CYC:103 SL:175
C7A8  AD 02 20  LDA $2002 = FF                  A:00 X:FF Y:00 P:26 SP:FF CYC:112 SL:175
C7AB  29 80     AND #$80                        A:10 X:FF Y:00 P:24 SP:FF CYC:124 SL:175
C7AD  F0 F9     BEQ $C7A8                       A:00 X:FF Y:00 P:26 SP:FF CYC:130 SL:175
C7A8  AD 02 20  LDA $2002 = FF                  A:00 X:FF Y:00 P:26 SP:FF CYC:139 SL:175
C7AB  29 80     AND #$80                        A:10 X:FF Y:00 P:24 SP:FF CYC:151 SL:175
C7AD  F0 F9     BEQ $C7A8                       A:00 X:FF Y:00 P:26 SP:FF CYC:157 SL:175
C7A8  AD 02 20  LDA $2002 = FF                  A:00 X:FF Y:00 P:26 SP:FF CYC:166 SL:175
C7AB  29 80     AND #$80                        A:10 X:FF Y:00 P:24 SP:FF CYC:178 SL:175
C7AD  F0 F9     BEQ $C7A8                       A:00 X:FF Y:00 P:26 SP:FF CYC:184 SL:175
C7A8  AD 02 20  LDA $2002 = FF                  A:00 X:FF Y:00 P:26 SP:FF CYC:193 SL:175
C7AB  29 80     AND #$80                        A:10 X:FF Y:00 P:24 SP:FF CYC:205 SL:175
C7AD  F0 F9     BEQ $C7A8                       A:00 X:FF Y:00 P:26 SP:FF CYC:211 SL:175
C7A8  AD 02 20  LDA $2002 = FF                  A:00 X:FF Y:00 P:26 SP:FF CYC:220 SL:175
C7AB  29 80     AND #$80                        A:10 X:FF Y:00 P:24 SP:FF CYC:232 SL:175
C7AD  F0 F9     BEQ $C7A8                       A:00 X:FF Y:00 P:26 SP:FF CYC:238 SL:175
C7A8  AD 02 20  LDA $2002 = FF                  A:00 X:FF Y:00 P:26 SP:FF CYC:247 SL:175
C7AB  29 80     AND #$80                        A:10 X:FF Y:00 P:24 SP:FF CYC:259 SL:175
C7AD  F0 F9     BEQ $C7A8                       A:00 X:FF Y:00 P:26 SP:FF CYC:265 SL:175
C7A8  AD 02 20  LDA $2002 = FF                  A:00 X:FF Y:00 P:26 SP:FF CYC:274 SL:175
C7AB  29 80     AND #$80                        A:10 X:FF Y:00 P:24 SP:FF CYC:286 SL:175
C7AD  F0 F9     BEQ $C7A8                       A:00 X:FF Y:00 P:26 SP:FF CYC:292 SL:175
C7A8  AD 02 20  LDA $2002 = FF                  A:00 X:FF Y:00 P:26 SP:FF CYC:301 SL:175
C7AB  29 80     AND #$80                        A:10 X:FF Y:00 P:24 SP:FF CYC:313 SL:175
C7AD  F0 F9     BEQ $C7A8                       A:00 X:FF Y:00 P:26 SP:FF CYC:319 SL:175
C7A8  AD 02 20  LDA $2002 = FF                  A:00 X:FF Y:00 P:26 SP:FF CYC:328 SL:175
C7AB  29 80     AND #$80                        A:10 X:FF Y:00 P:24 SP:FF CYC:340 SL:175
C7AD  F0 F9     BEQ $C7A8                       A:00 X:FF Y:00 P:26 SP:FF CYC:  5 SL:176
C7A8  AD 02 20  LDA $2002 = FF                  A:00 X:FF Y:00 P:26 SP:FF CYC: 14 SL:176
C7AB  29 80     AND #$80                        A:10 X:FF Y:00 P:24 SP:FF CYC: 26 SL:176
C7AD  F0 F9     BEQ $C7A8                       A:00 X:FF Y:00 P:26 SP:FF CYC: 32 SL:176
C7A8  AD 02 20  LDA $2002 = FF                  A:00 X:FF Y:00 P:26 SP:FF CYC: 41 SL:176
C7AB  29 80     AND #$80                        A:10 X:FF Y:00 P:24 SP:FF CYC: 53 SL:176
C7AD  F0 F9     BEQ $C7A8                       A:00 X:FF Y:00 P:26 SP:FF CYC: 59 SL:176
C7A8  AD 02 20  LDA $2002 = FF                  A:00 X:FF Y:00 P:26 SP:FF CYC: 68 SL:176
C7AB  29 80     AND #$80                        A:10 X:FF Y:00 P:24 SP:FF CYC: 80 SL:176
C7AD  F0 F9     BEQ $C7A8                       A:00 X:FF Y:00 P:26 SP:FF CYC: 86 SL:176
C7A8  AD 02 20  LDA $2002 = FF                  A:00 X:FF Y:00 P:26 SP:FF CYC: 95 SL:176
C7AB  29 80     AND #$80                        A:10 X:FF Y:00 P:24 SP:FF CYC:107 SL:176
C7AD  F0 F9     BEQ $C7A8                       A:00 X:FF Y:00 P:26 SP:FF CYC:113 SL:176
C7A8  AD 02 20  LDA $2002 = FF                  A:00 X:FF Y:00 P:26 SP:FF CYC:122 SL:176
C7AB  29 80     AND #$80                        A:10 X:FF Y:00 P:24 SP:FF CYC:134 SL:176
C7AD  F0 F9     BEQ $C7A8                       A:00 X:FF Y:00 P:26 SP:FF CYC:140 SL:176
C7A8  AD 02 20  LDA $2002 = FF                  A:00 X:FF Y:00 P:26 SP:FF CYC:149 SL:176
C7AB  29 80     AND #$80                        A:10 X:FF Y:00 P:24 SP:FF CYC:161 SL:176
C7AD  F0 F9     BEQ $C7A8                       A:00 X:FF Y:00 P:26 SP:FF CYC:167 SL:176
C7A8  AD 02 20  LDA $2002 = FF                  A:00 X:FF Y:00 P:26 SP:FF CYC:176 SL:176
C7AB  29 80     AND #$80                        A:10 X:FF Y:00 P:24 SP:FF CYC:188 SL:176
C7AD  F0 F9     BEQ $C7A8                       A:00 X:FF Y:00 P:26 SP:FF CYC:194 SL:176
C7A8  AD 02 20  LDA $2002 = FF                  A:00 X:FF Y:00 P:26 SP:FF CYC:203 SL:176
C7AB  29 80     AND #$80                        A:10 X:FF Y:00 P:24 SP:FF CYC:215 SL:176
C7AD  F0 F9     BEQ $C7A8                       A:00 X:FF Y:00 P:26 SP:FF CYC:221 SL:176
C7A8  AD 02 20  LDA $2002 = FF                  A:00 X:FF Y:00 P:26 SP:FF CYC:230 SL:176
C7AB  29 80     AND #$80                        A:10 X:FF Y:00 P:24 SP:FF CYC:242 SL:176
C7AD  F0 F9     BEQ $C7A8                       A:00 X:FF Y:00 P:26 SP:FF CYC:248 SL:176
C7A8  AD 02 20  LDA $2002 = FF                  A:00 X:FF Y:00 P:26 SP:FF CYC:257 SL:176
C7AB  29 80     AND #$80                        A:10 X:FF Y:00 P:24 SP:FF CYC:269 SL:176
C7AD  F0 F9     BEQ $C7A8                       A:00 X:FF Y:00 P:26 SP:FF CYC:275 SL:176
C7A8  AD 02 20  LDA $2002 = FF                  A:00 X:FF Y:00 P:26 SP:FF CYC:284 SL:176
C7AB  29 80     AND #$80                        A:10 X:FF Y:00 P:24 SP:FF CYC:296 SL:176
C7AD  F0 F9     BEQ $C7A8                       A:00 X:FF Y:00 P:26 SP:FF CYC:302 SL:176
C7A8  AD 02 20  LDA $2002 = FF                  A:00 X:FF Y:00 P:26 SP:FF CYC:311 SL:176
C7AB  29 80     AND #$80                        A:10 X:FF Y:00 P:24 SP:FF CYC:323 SL:176
C7AD  F0 F9     BEQ $C7A8                       A:00 X:FF Y:00 P:26 SP:FF CYC:329 SL:176
C7A8  AD 02 20  LDA $2002 = FF                  A:00 X:FF Y:00 P:26 SP:FF CYC:338 SL:176
C7AB  29 80     AND #$80                        A:10 X:FF Y:00 P:24 SP:FF CYC:  9 SL:177
C7AD  F0 F9     BEQ $C7A8                       A:00 X:FF Y:00 P:26 SP:FF CYC: 15 SL:177
C7A8  AD 02 20  LDA $2002 = FF                  A:00 X:FF Y:00 P:26 SP:FF CYC: 24 SL:177
C7AB  29 80     AND #$80                        A:10 X:FF Y:00 P:24 SP:FF CYC: 36 SL:177
C7AD  F0 F9     BEQ $C7A8                       A:00 X:FF Y:00 P:26 SP:FF CYC: 42 SL:177
C7A8  AD 02 20  LDA $2002 = FF                  A:00 X:FF Y:00 P:26 SP:FF CYC: 51 SL:177
C7AB  29 80     AND #$80                        A:10 X:FF Y:00 P:24 SP:FF CYC: 63 SL:177
C7AD  F0 F9     BEQ $C7A8                       A:00 X:FF Y:00 P:26 SP:FF CYC: 69 SL:177
C7A8  AD 02 20  LDA $2002 = FF                  A:00 X:FF Y:00 P:26 SP:FF CYC: 78 SL:177
C7AB  29 80     AND #$80                        A:10 X:FF Y:00 P:24 SP:FF CYC: 90 SL:177
C7AD  F0 F9     BEQ $C7A8                       A:00 X:FF Y:00 P:26 SP:FF CYC: 96 SL:177
C7A8  AD 02 20  LDA $2002 = FF                  A:00 X:FF Y:00 P:26 SP:FF CYC:105 SL:177
C7AB  29 80     AND #$80                        A:10 X:FF Y:00 P:24 SP:FF CYC:117 SL:177
C7AD  F0 F9     BEQ $C7A8                       A:00 X:FF Y:00 P:26 SP:FF CYC:123 SL:177
C7A8  AD 02 20  LDA $2002 = FF                  A:00 X:FF Y:00 P:26 SP:FF CYC:132 SL:177
C7AB  29 80     AND #$80                        A:10 X:FF Y:00 P:24 SP:FF CYC:144 SL:177
C7AD  F0 F9     BEQ $C7A8                       A:00 X:FF Y:00 P:26 SP:FF CYC:150 SL:177
C7A8  AD 02 20  LDA $2002 = FF                  A:00 X:FF Y:00 P:26 SP:FF CYC:159 SL:177
C7AB  29 80     AND #$80                        A:10 X:FF Y:00 P:24 SP:FF CYC:171 SL:177
C7AD  F0 F9     BEQ $C7A8                       A:00 X:FF Y:00 P:26 SP:FF CYC:177 SL:177
C7A8  AD 02 20  LDA $2002 = FF                  A:00 X:FF Y:00 P:26 SP:FF CYC:186 SL:177
C7AB  29 80     AND #$80                        A:10 X:FF Y:00 P:24 SP:FF CYC:198 SL:177
C7AD  F0 F9     BEQ $C7A8                       A:00 X:FF Y:00 P:26 SP:FF CYC:204 SL:177
C7A8  AD 02 20  LDA $2002 = FF                  A:00 X:FF Y:00 P:26 SP:FF CYC:213 SL:177
C7AB  29 80     AND #$80                        A:10 X:FF Y:00 P:24 SP:FF CYC:225 SL:177
C7AD  F0 F9     BEQ $C7A8                       A:00 X:FF Y:00 P:26 SP:FF CYC:231 SL:177
C7A8  AD 02 20  LDA $2002 = FF                  A:00 X:FF Y:00 P:26 SP:FF CYC:240 SL:177
C7AB  29 80     AND #$80                        A:10 X:FF Y:00 P:24 SP:FF CYC:252 SL:177
C7AD  F0 F9     BEQ $C7A8                       A:00 X:FF Y:00 P:26 SP:FF CYC:258 SL:177
C7A8  AD 02 20  LDA $2002 = FF                  A:00 X:FF Y:00 P:26 SP:FF CYC:267 SL:177
C7AB  29 80     AND #$80                        A:10 X:FF Y:00 P:24 SP:FF CYC:279 SL:177
C7AD  F0 F9     BEQ $C7A8                       A:00 X:FF Y:00 P:26 SP:FF CYC:285 SL:177
C7A8  AD 02 20  LDA $2002 = FF                  A:00 X:FF Y:00 P:26 SP:FF CYC:294 SL:177
C7AB  29 80     AND #$80                        A:10 X:FF Y:00 P:24 SP:FF CYC:306 SL:177
C7AD  F0 F9     BEQ $C7A8                       A:00 X:FF Y:00 P:26 SP:FF CYC:312 SL:177
C7A8  AD 02 20  LDA $2002 = FF                  A:00 X:FF Y:00 P:26 SP:FF CYC:321 SL:177
C7AB  29 80     AND #$80                        A:10 X:FF Y:00 P:24 SP:FF CYC:333 SL:177
C7AD  F0 F9     BEQ $C7A8                       A:00 X:FF Y:00 P:26 SP:FF CYC:339 SL:177
C7A8  AD 02 20  LDA $2002 = FF                  A:00 X:FF Y:00 P:26 SP:FF CYC:  7 SL:178
C7AB  29 80     AND #$80                        A:10 X:FF Y:00 P:24 SP:FF CYC: 19 SL:178
C7AD  F0 F9     BEQ $C7A8                       A:00 X:FF Y:00 P:26 SP:FF CYC: 25 SL:178
C7A8  AD 02 20  LDA $2002 = FF                  A:00 X:FF Y:00 P:26 SP:FF CYC: 34 SL:178
C7AB  29 80     AND #$80                        A:10 X:FF Y:00 P:24 SP:FF CYC: 46 SL:178
C7AD  F0 F9     BEQ $C7A8                       A:00 X:FF Y:00 P:26 SP:FF CYC: 52 SL:178
C7A8  AD 02 20  LDA $2002 = FF                  A:00 X:FF Y:00 P:26 SP:FF CYC: 61 SL:178
C7AB  29 80     AND #$80                        A:10 X:FF Y:00 P:24 SP:FF CYC: 73 SL:178
C7AD  F0 F9     BEQ $C7A8                       A:00 X:FF Y:00 P:26 SP:FF CYC: 79 SL:178
C7A8  AD 02 20  LDA $2002 = FF                  A:00 X:FF Y:00 P:26 SP:FF CYC: 88 SL:178
C7AB  29 80     AND #$80                        A:10 X:FF Y:00 P:24 SP:FF CYC:100 SL:178
C7AD  F0 F9     BEQ $C7A8                       A:00 X:FF Y:00 P:26 SP:FF CYC:106 SL:178
C7A8  AD 02 20  LDA $2002 = FF                  A:00 X:FF Y:00 P:26 SP:FF CYC:115 SL:178
C7AB  29 80     AND #$80                        A:10 X:FF Y:00 P:24 SP:FF CYC:127 SL:178
C7AD  F0 F9     BEQ $C7A8                       A:00 X:FF Y:00 P:26 SP:FF CYC:133 SL:178
C7A8  AD 02 20  LDA $2002 = FF                  A:00 X:FF Y:00 P:26 SP:FF CYC:142 SL:178
C7AB  29 80     AND #$80                        A:10 X:FF Y:00 P:24 SP:FF CYC:154 SL:178
C7AD  F0 F9     BEQ $C7A8                       A:00 X:FF Y:00 P:26 SP:FF CYC:160 SL:178
C7A8  AD 02 20  LDA $2002 = FF                  A:00 X:FF Y:00 P:26 SP:FF CYC:169 SL:178
C7AB  29 80     AND #$80                        A:10 X:FF Y:00 P:24 SP:FF CYC:181 SL:178
C7AD  F0 F9     BEQ $C7A8                       A:00 X:FF Y:00 P:26 SP:FF CYC:187 SL:178
C7A8  AD 02 20  LDA $2002 = FF                  A:00 X:FF Y:00 P:26 SP:FF CYC:196 SL:178
C7AB  29 80     AND #$80                        A:10 X:FF Y:00 P:24 SP:FF CYC:208 SL:178
C7AD  F0 F9     BEQ $C7A8                       A:00 X:FF Y:00 P:26 SP:FF CYC:214 SL:178
C7A8  AD 02 20  LDA $2002 = FF                  A:00 X:FF Y:00 P:26 SP:FF CYC:223 SL:178
C7AB  29 80     AND #$80                        A:10 X:FF Y:00 P:24 SP:FF CYC:235 SL:178
C7AD  F0 F9     BEQ $C7A8                       A:00 X:FF Y:00 P:26 SP:FF CYC:241 SL:178
C7A8  AD 02 20  LDA $2002 = FF                  A:00 X:FF Y:00 P:26 SP:FF CYC:250 SL:178
C7AB  29 80     AND #$80                        A:10 X:FF Y:00 P:24 SP:FF CYC:262 SL:178
C7AD  F0 F9     BEQ $C7A8                       A:00 X:FF Y:00 P:26 SP:FF CYC:268 SL:178
C7A8  AD 02 20  LDA $2002 = FF                  A:00 X:FF Y:00 P:26 SP:FF CYC:277 SL:178
C7AB  29 80     AND #$80                        A:10 X:FF Y:00 P:24 SP:FF CYC:289 SL:178
C7AD  F0 F9     BEQ $C7A8                       A:00 X:FF Y:00 P:26 SP:FF CYC:295 SL:178
C7A8  AD 02 20  LDA $2002 = FF                  A:00 X:FF Y:00 P:26 SP:FF CYC:304 SL:178
C7AB  29 80     AND #$80                        A:10 X:FF Y:00 P:24 SP:FF CYC:316 SL:178
C7AD  F0 F9     BEQ $C7A8                       A:00 X:FF Y:00 P:26 SP:FF CYC:322 SL:178
C7A8  AD 02 20  LDA $2002 = FF                  A:00 X:FF Y:00 P:26 SP:FF CYC:331 SL:178
C7AB  29 80     AND #$80                        A:10 X:FF Y:00 P:24 SP:FF CYC:  2 SL:179
C7AD  F0 F9     BEQ $C7A8                       A:00 X:FF Y:00 P:26 SP:FF CYC:  8 SL:179
C7A8  AD 02 20  LDA $2002 = FF                  A:00 X:FF Y:00 P:26 SP:FF CYC: 17 SL:179
C7AB  29 80     AND #$80                        A:10 X:FF Y:00 P:24 SP:FF CYC: 29 SL:179
C7AD  F0 F9     BEQ $C7A8                       A:00 X:FF Y:00 P:26 SP:FF CYC: 35 SL:179
C7A8  AD 02 20  LDA $2002 = FF                  A:00 X:FF Y:00 P:26 SP:FF CYC: 44 SL:179
C7AB  29 80     AND #$80                        A:10 X:FF Y:00 P:24 SP:FF CYC: 56 SL:179
C7AD  F0 F9     BEQ $C7A8                       A:00 X:FF Y:00 P:26 SP:FF CYC: 62 SL:179
C7A8  AD 02 20  LDA $2002 = FF                  A:00 X:FF Y:00 P:26 SP:FF CYC: 71 SL:179
C7AB  29 80     AND #$80                        A:10 X:FF Y:00 P:24 SP:FF CYC: 83 SL:179
C7AD  F0 F9     BEQ $C7A8                       A:00 X:FF Y:00 P:26 SP:FF CYC: 89 SL:179
C7A8  AD 02 20  LDA $2002 = FF                  A:00 X:FF Y:00 P:26 SP:FF CYC: 98 SL:179
C7AB  29 80     AND #$80                        A:10 X:FF Y:00 P:24 SP:FF CYC:110 SL:179
C7AD  F0 F9     BEQ $C7A8                       A:00 X:FF Y:00 P:26 SP:FF CYC:116 SL:179
C7A8  AD 02 20  LDA $2002 = FF                  A:00 X:FF Y:00 P:26 SP:FF CYC:125 SL:179
C7AB  29 80     AND #$80                        A:10 X:FF Y:00 P:24 SP:FF CYC:137 SL:179
C7AD  F0 F9     BEQ $C7A8                       A:00 X:FF Y:00 P:26 SP:FF CYC:143 SL:179
C7A8  AD 02 20  LDA $2002 = FF                  A:00 X:FF Y:00 P:26 SP:FF CYC:152 SL:179
C7AB  29 80     AND #$80                        A:10 X:FF Y:00 P:24 SP:FF CYC:164 SL:179
C7AD  F0 F9     BEQ $C7A8                       A:00 X:FF Y:00 P:26 SP:FF CYC:170 SL:179
C7A8  AD 02 20  LDA $2002 = FF                  A:00 X:FF Y:00 P:26 SP:FF CYC:179 SL:179
C7AB  29 80     AND #$80                        A:10 X:FF Y:00 P:24 SP:FF CYC:191 SL:179
C7AD  F0 F9     BEQ $C7A8                       A:00 X:FF Y:00 P:26 SP:FF CYC:197 SL:179
C7A8  AD 02 20  LDA $2002 = FF                  A:00 X:FF Y:00 P:26 SP:FF CYC:206 SL:179
C7AB  29 80     AND #$80                        A:10 X:FF Y:00 P:24 SP:FF CYC:218 SL:179
C7AD  F0 F9     BEQ $C7A8                       A:00 X:FF Y:00 P:26 SP:FF CYC:224 SL:179
C7A8  AD 02 20  LDA $2002 = FF                  A:00 X:FF Y:00 P:26 SP:FF CYC:233 SL:179
C7AB  29 80     AND #$80                        A:10 X:FF Y:00 P:24 SP:FF CYC:245 SL:179
C7AD  F0 F9     BEQ $C7A8                       A:00 X:FF Y:00 P:26 SP:FF CYC:251 SL:179
C7A8  AD 02 20  LDA $2002 = FF                  A:00 X:FF Y:00 P:26 SP:FF CYC:260 SL:179
C7AB  29 80     AND #$80                        A:10 X:FF Y:00 P:24 SP:FF CYC:272 SL:179
C7AD  F0 F9     BEQ $C7A8                       A:00 X:FF Y:00 P:26 SP:FF CYC:278 SL:179
C7A8  AD 02 20  LDA $2002 = FF                  A:00 X:FF Y:00 P:26 SP:FF CYC:287 SL:179
C7AB  29 80     AND #$80                        A:10 X:FF Y:00 P:24 SP:FF CYC:299 SL:179
C7AD  F0 F9     BEQ $C7A8                       A:00 X:FF Y:00 P:26 SP:FF CYC:305 SL:179
C7A8  AD 02 20  LDA $2002 = FF                  A:00 X:FF Y:00 P:26 SP:FF CYC:314 SL:179
C7AB  29 80     AND #$80                        A:10 X:FF Y:00 P:24 SP:FF CYC:326 SL:179
C7AD  F0 F9     BEQ $C7A8                       A:00 X:FF Y:00 P:26 SP:FF CYC:332 SL:179
C7A8  AD 02 20  LDA $2002 = FF                  A:00 X:FF Y:00 P:26 SP:FF CYC:  0 SL:180
C7AB  29 80     AND #$80                        A:10 X:FF Y:00 P:24 SP:FF CYC: 12 SL:180
C7AD  F0 F9     BEQ $C7A8                       A:00 X:FF Y:00 P:26 SP:FF CYC: 18 SL:180
C7A8  AD 02 20  LDA $2002 = FF                  A:00 X:FF Y:00 P:26 SP:FF CYC: 27 SL:180
C7AB  29 80     AND #$80                        A:10 X:FF Y:00 P:24 SP:FF CYC: 39 SL:180
C7AD  F0 F9     BEQ $C7A8                       A:00 X:FF Y:00 P:26 SP:FF CYC: 45 SL:180
C7A8  AD 02 20  LDA $2002 = FF                  A:00 X:FF Y:00 P:26 SP:FF CYC: 54 SL:180
C7AB  29 80     AND #$80                        A:10 X:FF Y:00 P:24 SP:FF CYC: 66 SL:180
C7AD  F0 F9     BEQ $C7A8                       A:00 X:FF Y:00 P:26 SP:FF CYC: 72 SL:180
C7A8  AD 02 20  LDA $2002 = FF                  A:00 X:FF Y:00 P:26 SP:FF CYC: 81 SL:180
C7AB  29 80     AND #$80                        A:10 X:FF Y:00 P:24 SP:FF CYC: 93 SL:180
C7AD  F0 F9     BEQ $C7A8                       A:00 X:FF Y:00 P:26 SP:FF CYC: 99 SL:180
C7A8  AD 02 20  LDA $2002 = FF                  A:00 X:FF Y:00 P:26 SP:FF CYC:108 SL:180
C7AB  29 80     AND #$80                        A:10 X:FF Y:00 P:24 SP:FF CYC:120 SL:180
C7AD  F0 F9     BEQ $C7A8                       A:00 X:FF Y:00 P:26 SP:FF CYC:126 SL:180
C7A8  AD 02 20  LDA $2002 = FF                  A:00 X:FF Y:00 P:26 SP:FF CYC:135 SL:180
C7AB  29 80     AND #$80                        A:10 X:FF Y:00 P:24 SP:FF CYC:147 SL:180
C7AD  F0 F9     BEQ $C7A8                       A:00 X:FF Y:00 P:26 SP:FF CYC:153 SL:180
C7A8  AD 02 20  LDA $2002 = FF                  A:00 X:FF Y:00 P:26 SP:FF CYC:162 SL:180
C7AB  29 80     AND #$80                        A:10 X:FF Y:00 P:24 SP:FF CYC:174 SL:180
C7AD  F0 F9     BEQ $C7A8                       A:00 X:FF Y:00 P:26 SP:FF CYC:180 SL:180
C7A8  AD 02 20  LDA $2002 = FF                  A:00 X:FF Y:00 P:26 SP:FF CYC:189 SL:180
C7AB  29 80     AND #$80                        A:10 X:FF Y:00 P:24 SP:FF CYC:201 SL:180
C7AD  F0 F9     BEQ $C7A8                       A:00 X:FF Y:00 P:26 SP:FF CYC:207 SL:180
C7A8  AD 02 20  LDA $2002 = FF                  A:00 X:FF Y:00 P:26 SP:FF CYC:216 SL:180
C7AB  29 80     AND #$80                        A:10 X:FF Y:00 P:24 SP:FF CYC:228 SL:180
C7AD  F0 F9     BEQ $C7A8                       A:00 X:FF Y:00 P:26 SP:FF CYC:234 SL:180
C7A8  AD 02 20  LDA $2002 = FF                  A:00 X:FF Y:00 P:26 SP:FF CYC:243 SL:180
C7AB  29 80     AND #$80                        A:10 X:FF Y:00 P:24 SP:FF CYC:255 SL:180
C7AD  F0 F9     BEQ $C7A8                       A:00 X:FF Y:00 P:26 SP:FF CYC:261 SL:180
C7A8  AD 02 20  LDA $2002 = FF                  A:00 X:FF Y:00 P:26 SP:FF CYC:270 SL:180
C7AB  29 80     AND #$80                        A:10 X:FF Y:00 P:24 SP:FF CYC:282 SL:180
C7AD  F0 F9     BEQ $C7A8                       A:00 X:FF Y:00 P:26 SP:FF CYC:288 SL:180
C7A8  AD 02 20  LDA $2002 = FF                  A:00 X:FF Y:00 P:26 SP:FF CYC:297 SL:180
C7AB  29 80     AND #$80                        A:10 X:FF Y:00 P:24 SP:FF CYC:309 SL:180
C7AD  F0 F9     BEQ $C7A8                       A:00 X:FF Y:00 P:26 SP:FF CYC:315 SL:180
C7A8  AD 02 20  LDA $2002 = FF                  A:00 X:FF Y:00 P:26 SP:FF CYC:324 SL:180
C7AB  29 80     AND #$80                        A:10 X:FF Y:00 P:24 SP:FF CYC:336 SL:180
C7AD  F0 F9     BEQ $C7A8                       A:00 X:FF Y:00 P:26 SP:FF CYC:  1 SL:181
C7A8  AD 02 20  LDA $2002 = FF                  A:00 X:FF Y:00 P:26 SP:FF CYC: 10 SL:181
C7AB  29 80     AND #$80                        A:10 X:FF Y:00 P:24 SP:FF CYC: 22 SL:181
C7AD  F0 F9     BEQ $C7A8                       A:00 X:FF Y:00 P:26 SP:FF CYC: 28 SL:181
C7A8  AD 02 20  LDA $2002 = FF                  A:00 X:FF Y:00 P:26 SP:FF CYC: 37 SL:181
C7AB  29 80     AND #$80                        A:10 X:FF Y:00 P:24 SP:FF CYC: 49 SL:181
C7AD  F0 F9     BEQ $C7A8                       A:00 X:FF Y:00 P:26 SP:FF CYC: 55 SL:181
C7A8  AD 02 20  LDA $2002 = FF                  A:00 X:FF Y:00 P:26 SP:FF CYC: 64 SL:181
C7AB  29 80     AND #$80                        A:10 X:FF Y:00 P:24 SP:FF CYC: 76 SL:181
C7AD  F0 F9     BEQ $C7A8                       A:00 X:FF Y:00 P:26 SP:FF CYC: 82 SL:181
C7A8  AD 02 20  LDA $2002 = FF                  A:00 X:FF Y:00 P:26 SP:FF CYC: 91 SL:181
C7AB  29 80     AND #$80                        A:10 X:FF Y:00 P:24 SP:FF CYC:103 SL:181
C7AD  F0 F9     BEQ $C7A8                       A:00 X:FF Y:00 P:26 SP:FF CYC:109 SL:181
C7A8  AD 02 20  LDA $2002 = FF                  A:00 X:FF Y:00 P:26 SP:FF CYC:118 SL:181
C7AB  29 80     AND #$80                        A:10 X:FF Y:00 P:24 SP:FF CYC:130 SL:181
C7AD  F0 F9     BEQ $C7A8                       A:00 X:FF Y:00 P:26 SP:FF CYC:136 SL:181
C7A8  AD 02 20  LDA $2002 = FF                  A:00 X:FF Y:00 P:26 SP:FF CYC:145 SL:181
C7AB  29 80     AND #$80                        A:10 X:FF Y:00 P:24 SP:FF CYC:157 SL:181
C7AD  F0 F9     BEQ $C7A8                       A:00 X:FF Y:00 P:26 SP:FF CYC:163 SL:181
C7A8  AD 02 20  LDA $2002 = FF                  A:00 X:FF Y:00 P:26 SP:FF CYC:172 SL:181
C7AB  29 80     AND #$80                        A:10 X:FF Y:00 P:24 SP:FF CYC:184 SL:181
C7AD  F0 F9     BEQ $C7A8                       A:00 X:FF Y:00 P:26 SP:FF CYC:190 SL:181
C7A8  AD 02 20  LDA $2002 = FF                  A:00 X:FF Y:00 P:26 SP:FF CYC:199 SL:181
C7AB  29 80     AND #$80                        A:10 X:FF Y:00 P:24 SP:FF CYC:211 SL:181
C7AD  F0 F9     BEQ $C7A8                       A:00 X:FF Y:00 P:26 SP:FF CYC:217 SL:181
C7A8  AD 02 20  LDA $2002 = FF                  A:00 X:FF Y:00 P:26 SP:FF CYC:226 SL:181
C7AB  29 80     AND #$80                        A:10 X:FF Y:00 P:24 SP:FF CYC:238 SL:181
C7AD  F0 F9     BEQ $C7A8                       A:00 X:FF Y:00 P:26 SP:FF CYC:244 SL:181
C7A8  AD 02 20  LDA $2002 = FF                  A:00 X:FF Y:00 P:26 SP:FF CYC:253 SL:181
C7AB  29 80     AND #$80                        A:10 X:FF Y:00 P:24 SP:FF CYC:265 SL:181
C7AD  F0 F9     BEQ $C7A8                       A:00 X:FF Y:00 P:26 SP:FF CYC:271 SL:181
C7A8  AD 02 20  LDA $2002 = FF                  A:00 X:FF Y:00 P:26 SP:FF CYC:280 SL:181
C7AB  29 80     AND #$80                        A:10 X:FF Y:00 P:24 SP:FF CYC:292 SL:181
C7AD  F0 F9     BEQ $C7A8                       A:00 X:FF Y:00 P:26 SP:FF CYC:298 SL:181
C7A8  AD 02 20  LDA $2002 = FF                  A:00 X:FF Y:00 P:26 SP:FF CYC:307 SL:181
C7AB  29 80     AND #$80                        A:10 X:FF Y:00 P:24 SP:FF CYC:319 SL:181
C7AD  F0 F9     BEQ $C7A8                       A:00 X:FF Y:00 P:26 SP:FF CYC:325 SL:181
C7A8  AD 02 20  LDA $2002 = FF                  A:00 X:FF Y:00 P:26 SP:FF CYC:334 SL:181
C7AB  29 80     AND #$80                        A:10 X:FF Y:00 P:24 SP:FF CYC:  5 SL:182
C7AD  F0 F9     BEQ $C7A8                       A:00 X:FF Y:00 P:26 SP:FF CYC: 11 SL:182
C7A8  AD 02 20  LDA $2002 = FF                  A:00 X:FF Y:00 P:26 SP:FF CYC: 20 SL:182
C7AB  29 80     AND #$80                        A:10 X:FF Y:00 P:24 SP:FF CYC: 32 SL:182
C7AD  F0 F9     BEQ $C7A8                       A:00 X:FF Y:00 P:26 SP:FF CYC: 38 SL:182
C7A8  AD 02 20  LDA $2002 = FF                  A:00 X:FF Y:00 P:26 SP:FF CYC: 47 SL:182
C7AB  29 80     AND #$80                        A:10 X:FF Y:00 P:24 SP:FF CYC: 59 SL:182
C7AD  F0 F9     BEQ $C7A8                       A:00 X:FF Y:00 P:26 SP:FF CYC: 65 SL:182
C7A8  AD 02 20  LDA $2002 = FF                  A:00 X:FF Y:00 P:26 SP:FF CYC: 74 SL:182
C7AB  29 80     AND #$80                        A:10 X:FF Y:00 P:24 SP:FF CYC: 86 SL:182
C7AD  F0 F9     BEQ $C7A8                       A:00 X:FF Y:00 P:26 SP:FF CYC: 92 SL:182
C7A8  AD 02 20  LDA $2002 = FF                  A:00 X:FF Y:00 P:26 SP:FF CYC:101 SL:182
C7AB  29 80     AND #$80                        A:10 X:FF Y:00 P:24 SP:FF CYC:113 SL:182
C7AD  F0 F9     BEQ $C7A8                       A:00 X:FF Y:00 P:26 SP:FF CYC:119 SL:182
C7A8  AD 02 20  LDA $2002 = FF                  A:00 X:FF Y:00 P:26 SP:FF CYC:128 SL:182
C7AB  29 80     AND #$80                        A:10 X:FF Y:00 P:24 SP:FF CYC:140 SL:182
C7AD  F0 F9     BEQ $C7A8                       A:00 X:FF Y:00 P:26 SP:FF CYC:146 SL:182
C7A8  AD 02 20  LDA $2002 = FF                  A:00 X:FF Y:00 P:26 SP:FF CYC:155 SL:182
C7AB  29 80     AND #$80                        A:10 X:FF Y:00 P:24 SP:FF CYC:167 SL:182
C7AD  F0 F9     BEQ $C7A8                       A:00 X:FF Y:00 P:26 SP:FF CYC:173 SL:182
C7A8  AD 02 20  LDA $2002 = FF                  A:00 X:FF Y:00 P:26 SP:FF CYC:182 SL:182
C7AB  29 80     AND #$80                        A:10 X:FF Y:00 P:24 SP:FF CYC:194 SL:182
C7AD  F0 F9     BEQ $C7A8                       A:00 X:FF Y:00 P:26 SP:FF CYC:200 SL:182
C7A8  AD 02 20  LDA $2002 = FF                  A:00 X:FF Y:00 P:26 SP:FF CYC:209 SL:182
C7AB  29 80     AND #$80                        A:10 X:FF Y:00 P:24 SP:FF CYC:221 SL:182
C7AD  F0 F9     BEQ $C7A8                       A:00 X:FF Y:00 P:26 SP:FF CYC:227 SL:182
C7A8  AD 02 20  LDA $2002 = FF                  A:00 X:FF Y:00 P:26 SP:FF CYC:236 SL:182
C7AB  29 80     AND #$80                        A:10 X:FF Y:00 P:24 SP:FF CYC:248 SL:182
C7AD  F0 F9     BEQ $C7A8                       A:00 X:FF Y:00 P:26 SP:FF CYC:254 SL:182
C7A8  AD 02 20  LDA $2002 = FF                  A:00 X:FF Y:00 P:26 SP:FF CYC:263 SL:182
C7AB  29 80     AND #$80                        A:10 X:FF Y:00 P:24 SP:FF CYC:275 SL:182
C7AD  F0 F9     BEQ $C7A8                       A:00 X:FF Y:00 P:26 SP:FF CYC:281 SL:182
C7A8  AD 02 20  LDA $2002 = FF                  A:00 X:FF Y:00 P:26 SP:FF CYC:290 SL:182
C7AB  29 80     AND #$80                        A:10 X:FF Y:00 P:24 SP:FF CYC:302 SL:182
C7AD  F0 F9     BEQ $C7A8                       A:00 X:FF Y:00 P:26 SP:FF CYC:308 SL:182
C7A8  AD 02 20  LDA $2002 = FF                  A:00 X:FF Y:00 P:26 SP:FF CYC:317 SL:182
C7AB  29 80     AND #$80                        A:10 X:FF Y:00 P:24 SP:FF CYC:329 SL:182
C7AD  F0 F9     BEQ $C7A8                       A:00 X:FF Y:00 P:26 SP:FF CYC:335 SL:182
C7A8  AD 02 20  LDA $2002 = FF                  A:00 X:FF Y:00 P:26 SP:FF CYC:  3 SL:183
C7AB  29 80     AND #$80                        A:10 X:FF Y:00 P:24 SP:FF CYC: 15 SL:183
C7AD  F0 F9     BEQ $C7A8                       A:00 X:FF Y:00 P:26 SP:FF CYC: 21 SL:183
C7A8  AD 02 20  LDA $2002 = FF                  A:00 X:FF Y:00 P:26 SP:FF CYC: 30 SL:183
C7AB  29 80     AND #$80                        A:10 X:FF Y:00 P:24 SP:FF CYC: 42 SL:183
C7AD  F0 F9     BEQ $C7A8                       A:00 X:FF Y:00 P:26 SP:FF CYC: 48 SL:183
C7A8  AD 02 20  LDA $2002 = FF                  A:00 X:FF Y:00 P:26 SP:FF CYC: 57 SL:183
C7AB  29 80     AND #$80                        A:10 X:FF Y:00 P:24 SP:FF CYC: 69 SL:183
C7AD  F0 F9     BEQ $C7A8                       A:00 X:FF Y:00 P:26 SP:FF CYC: 75 SL:183
C7A8  AD 02 20  LDA $2002 = FF                  A:00 X:FF Y:00 P:26 SP:FF CYC: 84 SL:183
C7AB  29 80     AND #$80                        A:10 X:FF Y:00 P:24 SP:FF CYC: 96 SL:183
C7AD  F0 F9     BEQ $C7A8                       A:00 X:FF Y:00 P:26 SP:FF CYC:102 SL:183
C7A8  AD 02 20  LDA $2002 = FF                  A:00 X:FF Y:00 P:26 SP:FF CYC:111 SL:183
C7AB  29 80     AND #$80                        A:10 X:FF Y:00 P:24 SP:FF CYC:123 SL:183
C7AD  F0 F9     BEQ $C7A8                       A:00 X:FF Y:00 P:26 SP:FF CYC:129 SL:183
C7A8  AD 02 20  LDA $2002 = FF                  A:00 X:FF Y:00 P:26 SP:FF CYC:138 SL:183
C7AB  29 80     AND #$80                        A:10 X:FF Y:00 P:24 SP:FF CYC:150 SL:183
C7AD  F0 F9     BEQ $C7A8                       A:00 X:FF Y:00 P:26 SP:FF CYC:156 SL:183
C7A8  AD 02 20  LDA $2002 = FF                  A:00 X:FF Y:00 P:26 SP:FF CYC:165 SL:183
C7AB  29 80     AND #$80                        A:10 X:FF Y:00 P:24 SP:FF CYC:177 SL:183
C7AD  F0 F9     BEQ $C7A8                       A:00 X:FF Y:00 P:26 SP:FF CYC:183 SL:183
C7A8  AD 02 20  LDA $2002 = FF                  A:00 X:FF Y:00 P:26 SP:FF CYC:192 SL:183
C7AB  29 80     AND #$80                        A:10 X:FF Y:00 P:24 SP:FF CYC:204 SL:183
C7AD  F0 F9     BEQ $C7A8                       A:00 X:FF Y:00 P:26 SP:FF CYC:210 SL:183
C7A8  AD 02 20  LDA $2002 = FF                  A:00 X:FF Y:00 P:26 SP:FF CYC:219 SL:183
C7AB  29 80     AND #$80                        A:10 X:FF Y:00 P:24 SP:FF CYC:231 SL:183
C7AD  F0 F9     BEQ $C7A8                       A:00 X:FF Y:00 P:26 SP:FF CYC:237 SL:183
C7A8  AD 02 20  LDA $2002 = FF                  A:00 X:FF Y:00 P:26 SP:FF CYC:246 SL:183
C7AB  29 80     AND #$80                        A:10 X:FF Y:00 P:24 SP:FF CYC:258 SL:183
C7AD  F0 F9     BEQ $C7A8                       A:00 X:FF Y:00 P:26 SP:FF CYC:264 SL:183
C7A8  AD 02 20  LDA $2002 = FF                  A:00 X:FF Y:00 P:26 SP:FF CYC:273 SL:183
C7AB  29 80     AND #$80                        A:10 X:FF Y:00 P:24 SP:FF CYC:285 SL:183
C7AD  F0 F9     BEQ $C7A8                       A:00 X:FF Y:00 P:26 SP:FF CYC:291 SL:183
C7A8  AD 02 20  LDA $2002 = FF                  A:00 X:FF Y:00 P:26 SP:FF CYC:300 SL:183
C7AB  29 80     AND #$80                        A:10 X:FF Y:00 P:24 SP:FF CYC:312 SL:183
C7AD  F0 F9     BEQ $C7A8                       A:00 X:FF Y:00 P:26 SP:FF CYC:318 SL:183
C7A8  AD 02 20  LDA $2002 = FF                  A:00 X:FF Y:00 P:26 SP:FF CYC:327 SL:183
C7AB  29 80     AND #$80                        A:10 X:FF Y:00 P:24 SP:FF CYC:339 SL:183
C7AD  F0 F9     BEQ $C7A8                       A:00 X:FF Y:00 P:26 SP:FF CYC:  4 SL:184
C7A8  AD 02 20  LDA $2002 = FF                  A:00 X:FF Y:00 P:26 SP:FF CYC: 13 SL:184
C7AB  29 80     AND #$80                        A:10 X:FF Y:00 P:24 SP:FF CYC: 25 SL:184
C7AD  F0 F9     BEQ $C7A8                       A:00 X:FF Y:00 P:26 SP:FF CYC: 31 SL:184
C7A8  AD 02 20  LDA $2002 = FF                  A:00 X:FF Y:00 P:26 SP:FF CYC: 40 SL:184
C7AB  29 80     AND #$80                        A:10 X:FF Y:00 P:24 SP:FF CYC: 52 SL:184
C7AD  F0 F9     BEQ $C7A8                       A:00 X:FF Y:00 P:26 SP:FF CYC: 58 SL:184
C7A8  AD 02 20  LDA $2002 = FF                  A:00 X:FF Y:00 P:26 SP:FF CYC: 67 SL:184
C7AB  29 80     AND #$80                        A:10 X:FF Y:00 P:24 SP:FF CYC: 79 SL:184
C7AD  F0 F9     BEQ $C7A8                       A:00 X:FF Y:00 P:26 SP:FF CYC: 85 SL:184
C7A8  AD 02 20  LDA $2002 = FF                  A:00 X:FF Y:00 P:26 SP:FF CYC: 94 SL:184
C7AB  29 80     AND #$80                        A:10 X:FF Y:00 P:24 SP:FF CYC:106 SL:184
C7AD  F0 F9     BEQ $C7A8                       A:00 X:FF Y:00 P:26 SP:FF CYC:112 SL:184
C7A8  AD 02 20  LDA $2002 = FF                  A:00 X:FF Y:00 P:26 SP:FF CYC:121 SL:184
C7AB  29 80     AND #$80                        A:10 X:FF Y:00 P:24 SP:FF CYC:133 SL:184
C7AD  F0 F9     BEQ $C7A8                       A:00 X:FF Y:00 P:26 SP:FF CYC:139 SL:184
C7A8  AD 02 20  LDA $2002 = FF                  A:00 X:FF Y:00 P:26 SP:FF CYC:148 SL:184
C7AB  29 80     AND #$80                        A:10 X:FF Y:00 P:24 SP:FF CYC:160 SL:184
C7AD  F0 F9     BEQ $C7A8                       A:00 X:FF Y:00 P:26 SP:FF CYC:166 SL:184
C7A8  AD 02 20  LDA $2002 = FF                  A:00 X:FF Y:00 P:26 SP:FF CYC:175 SL:184
C7AB  29 80     AND #$80                        A:10 X:FF Y:00 P:24 SP:FF CYC:187 SL:184
C7AD  F0 F9     BEQ $C7A8                       A:00 X:FF Y:00 P:26 SP:FF CYC:193 SL:184
C7A8  AD 02 20  LDA $2002 = FF                  A:00 X:FF Y:00 P:26 SP:FF CYC:202 SL:184
C7AB  29 80     AND #$80                        A:10 X:FF Y:00 P:24 SP:FF CYC:214 SL:184
C7AD  F0 F9     BEQ $C7A8                       A:00 X:FF Y:00 P:26 SP:FF CYC:220 SL:184
C7A8  AD 02 20  LDA $2002 = FF                  A:00 X:FF Y:00 P:26 SP:FF CYC:229 SL:184
C7AB  29 80     AND #$80                        A:10 X:FF Y:00 P:24 SP:FF CYC:241 SL:184
C7AD  F0 F9     BEQ $C7A8                       A:00 X:FF Y:00 P:26 SP:FF CYC:247 SL:184
C7A8  AD 02 20  LDA $2002 = FF                  A:00 X:FF Y:00 P:26 SP:FF CYC:256 SL:184
C7AB  29 80     AND #$80                        A:10 X:FF Y:00 P:24 SP:FF CYC:268 SL:184
C7AD  F0 F9     BEQ $C7A8                       A:00 X:FF Y:00 P:26 SP:FF CYC:274 SL:184
C7A8  AD 02 20  LDA $2002 = FF                  A:00 X:FF Y:00 P:26 SP:FF CYC:283 SL:184
C7AB  29 80     AND #$80                        A:10 X:FF Y:00 P:24 SP:FF CYC:295 SL:184
C7AD  F0 F9     BEQ $C7A8                       A:00 X:FF Y:00 P:26 SP:FF CYC:301 SL:184
C7A8  AD 02 20  LDA $2002 = FF                  A:00 X:FF Y:00 P:26 SP:FF CYC:310 SL:184
C7AB  29 80     AND #$80                        A:10 X:FF Y:00 P:24 SP:FF CYC:322 SL:184
C7AD  F0 F9     BEQ $C7A8                       A:00 X:FF Y:00 P:26 SP:FF CYC:328 SL:184
C7A8  AD 02 20  LDA $2002 = FF                  A:00 X:FF Y:00 P:26 SP:FF CYC:337 SL:184
C7AB  29 80     AND #$80                        A:10 X:FF Y:00 P:24 SP:FF CYC:  8 SL:185
C7AD  F0 F9     BEQ $C7A8                       A:00 X:FF Y:00 P:26 SP:FF CYC: 14 SL:185
C7A8  AD 02 20  LDA $2002 = FF                  A:00 X:FF Y:00 P:26 SP:FF CYC: 23 SL:185
C7AB  29 80     AND #$80                        A:10 X:FF Y:00 P:24 SP:FF CYC: 35 SL:185
C7AD  F0 F9     BEQ $C7A8                       A:00 X:FF Y:00 P:26 SP:FF CYC: 41 SL:185
C7A8  AD 02 20  LDA $2002 = FF                  A:00 X:FF Y:00 P:26 SP:FF CYC: 50 SL:185
C7AB  29 80     AND #$80                        A:10 X:FF Y:00 P:24 SP:FF CYC: 62 SL:185
C7AD  F0 F9     BEQ $C7A8                       A:00 X:FF Y:00 P:26 SP:FF CYC: 68 SL:185
C7A8  AD 02 20  LDA $2002 = FF                  A:00 X:FF Y:00 P:26 SP:FF CYC: 77 SL:185
C7AB  29 80     AND #$80                        A:10 X:FF Y:00 P:24 SP:FF CYC: 89 SL:185
C7AD  F0 F9     BEQ $C7A8                       A:00 X:FF Y:00 P:26 SP:FF CYC: 95 SL:185
C7A8  AD 02 20  LDA $2002 = FF                  A:00 X:FF Y:00 P:26 SP:FF CYC:104 SL:185
C7AB  29 80     AND #$80                        A:10 X:FF Y:00 P:24 SP:FF CYC:116 SL:185
C7AD  F0 F9     BEQ $C7A8                       A:00 X:FF Y:00 P:26 SP:FF CYC:122 SL:185
C7A8  AD 02 20  LDA $2002 = FF                  A:00 X:FF Y:00 P:26 SP:FF CYC:131 SL:185
C7AB  29 80     AND #$80                        A:10 X:FF Y:00 P:24 SP:FF CYC:143 SL:185
C7AD  F0 F9     BEQ $C7A8                       A:00 X:FF Y:00 P:26 SP:FF CYC:149 SL:185
C7A8  AD 02 20  LDA $2002 = FF                  A:00 X:FF Y:00 P:26 SP:FF CYC:158 SL:185
C7AB  29 80     AND #$80                        A:10 X:FF Y:00 P:24 SP:FF CYC:170 SL:185
C7AD  F0 F9     BEQ $C7A8                       A:00 X:FF Y:00 P:26 SP:FF CYC:176 SL:185
C7A8  AD 02 20  LDA $2002 = FF                  A:00 X:FF Y:00 P:26 SP:FF CYC:185 SL:185
C7AB  29 80     AND #$80                        A:10 X:FF Y:00 P:24 SP:FF CYC:197 SL:185
C7AD  F0 F9     BEQ $C7A8                       A:00 X:FF Y:00 P:26 SP:FF CYC:203 SL:185
C7A8  AD 02 20  LDA $2002 = FF                  A:00 X:FF Y:00 P:26 SP:FF CYC:212 SL:185
C7AB  29 80     AND #$80                        A:10 X:FF Y:00 P:24 SP:FF CYC:224 SL:185
C7AD  F0 F9     BEQ $C7A8                       A:00 X:FF Y:00 P:26 SP:FF CYC:230 SL:185
C7A8  AD 02 20  LDA $2002 = FF                  A:00 X:FF Y:00 P:26 SP:FF CYC:239 SL:185
C7AB  29 80     AND #$80                        A:10 X:FF Y:00 P:24 SP:FF CYC:251 SL:185
C7AD  F0 F9     BEQ $C7A8                       A:00 X:FF Y:00 P:26 SP:FF CYC:257 SL:185
C7A8  AD 02 20  LDA $2002 = FF                  A:00 X:FF Y:00 P:26 SP:FF CYC:266 SL:185
C7AB  29 80     AND #$80                        A:10 X:FF Y:00 P:24 SP:FF CYC:278 SL:185
C7AD  F0 F9     BEQ $C7A8                       A:00 X:FF Y:00 P:26 SP:FF CYC:284 SL:185
C7A8  AD 02 20  LDA $2002 = FF                  A:00 X:FF Y:00 P:26 SP:FF CYC:293 SL:185
C7AB  29 80     AND #$80                        A:10 X:FF Y:00 P:24 SP:FF CYC:305 SL:185
C7AD  F0 F9     BEQ $C7A8                       A:00 X:FF Y:00 P:26 SP:FF CYC:311 SL:185
C7A8  AD 02 20  LDA $2002 = FF                  A:00 X:FF Y:00 P:26 SP:FF CYC:320 SL:185
C7AB  29 80     AND #$80                        A:10 X:FF Y:00 P:24 SP:FF CYC:332 SL:185
C7AD  F0 F9     BEQ $C7A8                       A:00 X:FF Y:00 P:26 SP:FF CYC:338 SL:185
C7A8  AD 02 20  LDA $2002 = FF                  A:00 X:FF Y:00 P:26 SP:FF CYC:  6 SL:186
C7AB  29 80     AND #$80                        A:10 X:FF Y:00 P:24 SP:FF CYC: 18 SL:186
C7AD  F0 F9     BEQ $C7A8                       A:00 X:FF Y:00 P:26 SP:FF CYC: 24 SL:186
C7A8  AD 02 20  LDA $2002 = FF                  A:00 X:FF Y:00 P:26 SP:FF CYC: 33 SL:186
C7AB  29 80     AND #$80                        A:10 X:FF Y:00 P:24 SP:FF CYC: 45 SL:186
C7AD  F0 F9     BEQ $C7A8                       A:00 X:FF Y:00 P:26 SP:FF CYC: 51 SL:186
C7A8  AD 02 20  LDA $2002 = FF                  A:00 X:FF Y:00 P:26 SP:FF CYC: 60 SL:186
C7AB  29 80     AND #$80                        A:10 X:FF Y:00 P:24 SP:FF CYC: 72 SL:186
C7AD  F0 F9     BEQ $C7A8                       A:00 X:FF Y:00 P:26 SP:FF CYC: 78 SL:186
C7A8  AD 02 20  LDA $2002 = FF                  A:00 X:FF Y:00 P:26 SP:FF CYC: 87 SL:186
C7AB  29 80     AND #$80                        A:10 X:FF Y:00 P:24 SP:FF CYC: 99 SL:186
C7AD  F0 F9     BEQ $C7A8                       A:00 X:FF Y:00 P:26 SP:FF CYC:105 SL:186
C7A8  AD 02 20  LDA $2002 = FF                  A:00 X:FF Y:00 P:26 SP:FF CYC:114 SL:186
C7AB  29 80     AND #$80                        A:10 X:FF Y:00 P:24 SP:FF CYC:126 SL:186
C7AD  F0 F9     BEQ $C7A8                       A:00 X:FF Y:00 P:26 SP:FF CYC:132 SL:186
C7A8  AD 02 20  LDA $2002 = FF                  A:00 X:FF Y:00 P:26 SP:FF CYC:141 SL:186
C7AB  29 80     AND #$80                        A:10 X:FF Y:00 P:24 SP:FF CYC:153 SL:186
C7AD  F0 F9     BEQ $C7A8                       A:00 X:FF Y:00 P:26 SP:FF CYC:159 SL:186
C7A8  AD 02 20  LDA $2002 = FF                  A:00 X:FF Y:00 P:26 SP:FF CYC:168 SL:186
C7AB  29 80     AND #$80                        A:10 X:FF Y:00 P:24 SP:FF CYC:180 SL:186
C7AD  F0 F9     BEQ $C7A8                       A:00 X:FF Y:00 P:26 SP:FF CYC:186 SL:186
C7A8  AD 02 20  LDA $2002 = FF                  A:00 X:FF Y:00 P:26 SP:FF CYC:195 SL:186
C7AB  29 80     AND #$80                        A:10 X:FF Y:00 P:24 SP:FF CYC:207 SL:186
C7AD  F0 F9     BEQ $C7A8                       A:00 X:FF Y:00 P:26 SP:FF CYC:213 SL:186
C7A8  AD 02 20  LDA $2002 = FF                  A:00 X:FF Y:00 P:26 SP:FF CYC:222 SL:186
C7AB  29 80     AND #$80                        A:10 X:FF Y:00 P:24 SP:FF CYC:234 SL:186
C7AD  F0 F9     BEQ $C7A8                       A:00 X:FF Y:00 P:26 SP:FF CYC:240 SL:186
C7A8  AD 02 20  LDA $2002 = FF                  A:00 X:FF Y:00 P:26 SP:FF CYC:249 SL:186
C7AB  29 80     AND #$80                        A:10 X:FF Y:00 P:24 SP:FF CYC:261 SL:186
C7AD  F0 F9     BEQ $C7A8                       A:00 X:FF Y:00 P:26 SP:FF CYC:267 SL:186
C7A8  AD 02 20  LDA $2002 = FF                  A:00 X:FF Y:00 P:26 SP:FF CYC:276 SL:186
C7AB  29 80     AND #$80                        A:10 X:FF Y:00 P:24 SP:FF CYC:288 SL:186
C7AD  F0 F9     BEQ $C7A8                       A:00 X:FF Y:00 P:26 SP:FF CYC:294 SL:186
C7A8  AD 02 20  LDA $2002 = FF                  A:00 X:FF Y:00 P:26 SP:FF CYC:303 SL:186
C7AB  29 80     AND #$80                        A:10 X:FF Y:00 P:24 SP:FF CYC:315 SL:186
C7AD  F0 F9     BEQ $C7A8                       A:00 X:FF Y:00 P:26 SP:FF CYC:321 SL:186
C7A8  AD 02 20  LDA $2002 = FF                  A:00 X:FF Y:00 P:26 SP:FF CYC:330 SL:186
C7AB  29 80     AND #$80                        A:10 X:FF Y:00 P:24 SP:FF CYC:  1 SL:187
C7AD  F0 F9     BEQ $C7A8                       A:00 X:FF Y:00 P:26 SP:FF CYC:  7 SL:187
C7A8  AD 02 20  LDA $2002 = FF                  A:00 X:FF Y:00 P:26 SP:FF CYC: 16 SL:187
C7AB  29 80     AND #$80                        A:10 X:FF Y:00 P:24 SP:FF CYC: 28 SL:187
C7AD  F0 F9     BEQ $C7A8                       A:00 X:FF Y:00 P:26 SP:FF CYC: 34 SL:187
C7A8  AD 02 20  LDA $2002 = FF                  A:00 X:FF Y:00 P:26 SP:FF CYC: 43 SL:187
C7AB  29 80     AND #$80                        A:10 X:FF Y:00 P:24 SP:FF CYC: 55 SL:187
C7AD  F0 F9     BEQ $C7A8                       A:00 X:FF Y:00 P:26 SP:FF CYC: 61 SL:187
C7A8  AD 02 20  LDA $2002 = FF                  A:00 X:FF Y:00 P:26 SP:FF CYC: 70 SL:187
C7AB  29 80     AND #$80                        A:10 X:FF Y:00 P:24 SP:FF CYC: 82 SL:187
C7AD  F0 F9     BEQ $C7A8                       A:00 X:FF Y:00 P:26 SP:FF CYC: 88 SL:187
C7A8  AD 02 20  LDA $2002 = FF                  A:00 X:FF Y:00 P:26 SP:FF CYC: 97 SL:187
C7AB  29 80     AND #$80                        A:10 X:FF Y:00 P:24 SP:FF CYC:109 SL:187
C7AD  F0 F9     BEQ $C7A8                       A:00 X:FF Y:00 P:26 SP:FF CYC:115 SL:187
C7A8  AD 02 20  LDA $2002 = FF                  A:00 X:FF Y:00 P:26 SP:FF CYC:124 SL:187
C7AB  29 80     AND #$80                        A:10 X:FF Y:00 P:24 SP:FF CYC:136 SL:187
C7AD  F0 F9     BEQ $C7A8                       A:00 X:FF Y:00 P:26 SP:FF CYC:142 SL:187
C7A8  AD 02 20  LDA $2002 = FF                  A:00 X:FF Y:00 P:26 SP:FF CYC:151 SL:187
C7AB  29 80     AND #$80                        A:10 X:FF Y:00 P:24 SP:FF CYC:163 SL:187
C7AD  F0 F9     BEQ $C7A8                       A:00 X:FF Y:00 P:26 SP:FF CYC:169 SL:187
C7A8  AD 02 20  LDA $2002 = FF                  A:00 X:FF Y:00 P:26 SP:FF CYC:178 SL:187
C7AB  29 80     AND #$80                        A:10 X:FF Y:00 P:24 SP:FF CYC:190 SL:187
C7AD  F0 F9     BEQ $C7A8                       A:00 X:FF Y:00 P:26 SP:FF CYC:196 SL:187
C7A8  AD 02 20  LDA $2002 = FF                  A:00 X:FF Y:00 P:26 SP:FF CYC:205 SL:187
C7AB  29 80     AND #$80                        A:10 X:FF Y:00 P:24 SP:FF CYC:217 SL:187
C7AD  F0 F9     BEQ $C7A8                       A:00 X:FF Y:00 P:26 SP:FF CYC:223 SL:187
C7A8  AD 02 20  LDA $2002 = FF                  A:00 X:FF Y:00 P:26 SP:FF CYC:232 SL:187
C7AB  29 80     AND #$80                        A:10 X:FF Y:00 P:24 SP:FF CYC:244 SL:187
C7AD  F0 F9     BEQ $C7A8                       A:00 X:FF Y:00 P:26 SP:FF CYC:250 SL:187
C7A8  AD 02 20  LDA $2002 = FF                  A:00 X:FF Y:00 P:26 SP:FF CYC:259 SL:187
C7AB  29 80     AND #$80                        A:10 X:FF Y:00 P:24 SP:FF CYC:271 SL:187
C7AD  F0 F9     BEQ $C7A8                       A:00 X:FF Y:00 P:26 SP:FF CYC:277 SL:187
C7A8  AD 02 20  LDA $2002 = FF                  A:00 X:FF Y:00 P:26 SP:FF CYC:286 SL:187
C7AB  29 80     AND #$80                        A:10 X:FF Y:00 P:24 SP:FF CYC:298 SL:187
C7AD  F0 F9     BEQ $C7A8                       A:00 X:FF Y:00 P:26 SP:FF CYC:304 SL:187
C7A8  AD 02 20  LDA $2002 = FF                  A:00 X:FF Y:00 P:26 SP:FF CYC:313 SL:187
C7AB  29 80     AND #$80                        A:10 X:FF Y:00 P:24 SP:FF CYC:325 SL:187
C7AD  F0 F9     BEQ $C7A8                       A:00 X:FF Y:00 P:26 SP:FF CYC:331 SL:187
C7A8  AD 02 20  LDA $2002 = FF                  A:00 X:FF Y:00 P:26 SP:FF CYC:340 SL:187
C7AB  29 80     AND #$80                        A:10 X:FF Y:00 P:24 SP:FF CYC: 11 SL:188
C7AD  F0 F9     BEQ $C7A8                       A:00 X:FF Y:00 P:26 SP:FF CYC: 17 SL:188
C7A8  AD 02 20  LDA $2002 = FF                  A:00 X:FF Y:00 P:26 SP:FF CYC: 26 SL:188
C7AB  29 80     AND #$80                        A:10 X:FF Y:00 P:24 SP:FF CYC: 38 SL:188
C7AD  F0 F9     BEQ $C7A8                       A:00 X:FF Y:00 P:26 SP:FF CYC: 44 SL:188
C7A8  AD 02 20  LDA $2002 = FF                  A:00 X:FF Y:00 P:26 SP:FF CYC: 53 SL:188
C7AB  29 80     AND #$80                        A:10 X:FF Y:00 P:24 SP:FF CYC: 65 SL:188
C7AD  F0 F9     BEQ $C7A8                       A:00 X:FF Y:00 P:26 SP:FF CYC: 71 SL:188
C7A8  AD 02 20  LDA $2002 = FF                  A:00 X:FF Y:00 P:26 SP:FF CYC: 80 SL:188
C7AB  29 80     AND #$80                        A:10 X:FF Y:00 P:24 SP:FF CYC: 92 SL:188
C7AD  F0 F9     BEQ $C7A8                       A:00 X:FF Y:00 P:26 SP:FF CYC: 98 SL:188
C7A8  AD 02 20  LDA $2002 = FF                  A:00 X:FF Y:00 P:26 SP:FF CYC:107 SL:188
C7AB  29 80     AND #$80                        A:10 X:FF Y:00 P:24 SP:FF CYC:119 SL:188
C7AD  F0 F9     BEQ $C7A8                       A:00 X:FF Y:00 P:26 SP:FF CYC:125 SL:188
C7A8  AD 02 20  LDA $2002 = FF                  A:00 X:FF Y:00 P:26 SP:FF CYC:134 SL:188
C7AB  29 80     AND #$80                        A:10 X:FF Y:00 P:24 SP:FF CYC:146 SL:188
C7AD  F0 F9     BEQ $C7A8                       A:00 X:FF Y:00 P:26 SP:FF CYC:152 SL:188
C7A8  AD 02 20  LDA $2002 = FF                  A:00 X:FF Y:00 P:26 SP:FF CYC:161 SL:188
C7AB  29 80     AND #$80                        A:10 X:FF Y:00 P:24 SP:FF CYC:173 SL:188
C7AD  F0 F9     BEQ $C7A8                       A:00 X:FF Y:00 P:26 SP:FF CYC:179 SL:188
C7A8  AD 02 20  LDA $2002 = FF                  A:00 X:FF Y:00 P:26 SP:FF CYC:188 SL:188
C7AB  29 80     AND #$80                        A:10 X:FF Y:00 P:24 SP:FF CYC:200 SL:188
C7AD  F0 F9     BEQ $C7A8                       A:00 X:FF Y:00 P:26 SP:FF CYC:206 SL:188
C7A8  AD 02 20  LDA $2002 = FF                  A:00 X:FF Y:00 P:26 SP:FF CYC:215 SL:188
C7AB  29 80     AND #$80                        A:10 X:FF Y:00 P:24 SP:FF CYC:227 SL:188
C7AD  F0 F9     BEQ $C7A8                       A:00 X:FF Y:00 P:26 SP:FF CYC:233 SL:188
C7A8  AD 02 20  LDA $2002 = FF                  A:00 X:FF Y:00 P:26 SP:FF CYC:242 SL:188
C7AB  29 80     AND #$80                        A:10 X:FF Y:00 P:24 SP:FF CYC:254 SL:188
C7AD  F0 F9     BEQ $C7A8                       A:00 X:FF Y:00 P:26 SP:FF CYC:260 SL:188
C7A8  AD 02 20  LDA $2002 = FF                  A:00 X:FF Y:00 P:26 SP:FF CYC:269 SL:188
C7AB  29 80     AND #$80                        A:10 X:FF Y:00 P:24 SP:FF CYC:281 SL:188
C7AD  F0 F9     BEQ $C7A8                       A:00 X:FF Y:00 P:26 SP:FF CYC:287 SL:188
C7A8  AD 02 20  LDA $2002 = FF                  A:00 X:FF Y:00 P:26 SP:FF CYC:296 SL:188
C7AB  29 80     AND #$80                        A:10 X:FF Y:00 P:24 SP:FF CYC:308 SL:188
C7AD  F0 F9     BEQ $C7A8                       A:00 X:FF Y:00 P:26 SP:FF CYC:314 SL:188
C7A8  AD 02 20  LDA $2002 = FF                  A:00 X:FF Y:00 P:26 SP:FF CYC:323 SL:188
C7AB  29 80     AND #$80                        A:10 X:FF Y:00 P:24 SP:FF CYC:335 SL:188
C7AD  F0 F9     BEQ $C7A8                       A:00 X:FF Y:00 P:26 SP:FF CYC:  0 SL:189
C7A8  AD 02 20  LDA $2002 = FF                  A:00 X:FF Y:00 P:26 SP:FF CYC:  9 SL:189
C7AB  29 80     AND #$80                        A:10 X:FF Y:00 P:24 SP:FF CYC: 21 SL:189
C7AD  F0 F9     BEQ $C7A8                       A:00 X:FF Y:00 P:26 SP:FF CYC: 27 SL:189
C7A8  AD 02 20  LDA $2002 = FF                  A:00 X:FF Y:00 P:26 SP:FF CYC: 36 SL:189
C7AB  29 80     AND #$80                        A:10 X:FF Y:00 P:24 SP:FF CYC: 48 SL:189
C7AD  F0 F9     BEQ $C7A8                       A:00 X:FF Y:00 P:26 SP:FF CYC: 54 SL:189
C7A8  AD 02 20  LDA $2002 = FF                  A:00 X:FF Y:00 P:26 SP:FF CYC: 63 SL:189
C7AB  29 80     AND #$80                        A:10 X:FF Y:00 P:24 SP:FF CYC: 75 SL:189
C7AD  F0 F9     BEQ $C7A8                       A:00 X:FF Y:00 P:26 SP:FF CYC: 81 SL:189
C7A8  AD 02 20  LDA $2002 = FF                  A:00 X:FF Y:00 P:26 SP:FF CYC: 90 SL:189
C7AB  29 80     AND #$80                        A:10 X:FF Y:00 P:24 SP:FF CYC:102 SL:189
C7AD  F0 F9     BEQ $C7A8                       A:00 X:FF Y:00 P:26 SP:FF CYC:108 SL:189
C7A8  AD 02 20  LDA $2002 = FF                  A:00 X:FF Y:00 P:26 SP:FF CYC:117 SL:189
C7AB  29 80     AND #$80                        A:10 X:FF Y:00 P:24 SP:FF CYC:129 SL:189
C7AD  F0 F9     BEQ $C7A8                       A:00 X:FF Y:00 P:26 SP:FF CYC:135 SL:189
C7A8  AD 02 20  LDA $2002 = FF                  A:00 X:FF Y:00 P:26 SP:FF CYC:144 SL:189
C7AB  29 80     AND #$80                        A:10 X:FF Y:00 P:24 SP:FF CYC:156 SL:189
C7AD  F0 F9     BEQ $C7A8                       A:00 X:FF Y:00 P:26 SP:FF CYC:162 SL:189
C7A8  AD 02 20  LDA $2002 = FF                  A:00 X:FF Y:00 P:26 SP:FF CYC:171 SL:189
C7AB  29 80     AND #$80                        A:10 X:FF Y:00 P:24 SP:FF CYC:183 SL:189
C7AD  F0 F9     BEQ $C7A8                       A:00 X:FF Y:00 P:26 SP:FF CYC:189 SL:189
C7A8  AD 02 20  LDA $2002 = FF                  A:00 X:FF Y:00 P:26 SP:FF CYC:198 SL:189
C7AB  29 80     AND #$80                        A:10 X:FF Y:00 P:24 SP:FF CYC:210 SL:189
C7AD  F0 F9     BEQ $C7A8                       A:00 X:FF Y:00 P:26 SP:FF CYC:216 SL:189
C7A8  AD 02 20  LDA $2002 = FF                  A:00 X:FF Y:00 P:26 SP:FF CYC:225 SL:189
C7AB  29 80     AND #$80                        A:10 X:FF Y:00 P:24 SP:FF CYC:237 SL:189
C7AD  F0 F9     BEQ $C7A8                       A:00 X:FF Y:00 P:26 SP:FF CYC:243 SL:189
C7A8  AD 02 20  LDA $2002 = FF                  A:00 X:FF Y:00 P:26 SP:FF CYC:252 SL:189
C7AB  29 80     AND #$80                        A:10 X:FF Y:00 P:24 SP:FF CYC:264 SL:189
C7AD  F0 F9     BEQ $C7A8                       A:00 X:FF Y:00 P:26 SP:FF CYC:270 SL:189
C7A8  AD 02 20  LDA $2002 = FF                  A:00 X:FF Y:00 P:26 SP:FF CYC:279 SL:189
C7AB  29 80     AND #$80                        A:10 X:FF Y:00 P:24 SP:FF CYC:291 SL:189
C7AD  F0 F9     BEQ $C7A8                       A:00 X:FF Y:00 P:26 SP:FF CYC:297 SL:189
C7A8  AD 02 20  LDA $2002 = FF                  A:00 X:FF Y:00 P:26 SP:FF CYC:306 SL:189
C7AB  29 80     AND #$80                        A:10 X:FF Y:00 P:24 SP:FF CYC:318 SL:189
C7AD  F0 F9     BEQ $C7A8                       A:00 X:FF Y:00 P:26 SP:FF CYC:324 SL:189
C7A8  AD 02 20  LDA $2002 = FF                  A:00 X:FF Y:00 P:26 SP:FF CYC:333 SL:189
C7AB  29 80     AND #$80                        A:10 X:FF Y:00 P:24 SP:FF CYC:  4 SL:190
C7AD  F0 F9     BEQ $C7A8                       A:00 X:FF Y:00 P:26 SP:FF CYC: 10 SL:190
C7A8  AD 02 20  LDA $2002 = FF                  A:00 X:FF Y:00 P:26 SP:FF CYC: 19 SL:190
C7AB  29 80     AND #$80                        A:10 X:FF Y:00 P:24 SP:FF CYC: 31 SL:190
C7AD  F0 F9     BEQ $C7A8                       A:00 X:FF Y:00 P:26 SP:FF CYC: 37 SL:190
C7A8  AD 02 20  LDA $2002 = FF                  A:00 X:FF Y:00 P:26 SP:FF CYC: 46 SL:190
C7AB  29 80     AND #$80                        A:10 X:FF Y:00 P:24 SP:FF CYC: 58 SL:190
C7AD  F0 F9     BEQ $C7A8                       A:00 X:FF Y:00 P:26 SP:FF CYC: 64 SL:190
C7A8  AD 02 20  LDA $2002 = FF                  A:00 X:FF Y:00 P:26 SP:FF CYC: 73 SL:190
C7AB  29 80     AND #$80                        A:10 X:FF Y:00 P:24 SP:FF CYC: 85 SL:190
C7AD  F0 F9     BEQ $C7A8                       A:00 X:FF Y:00 P:26 SP:FF CYC: 91 SL:190
C7A8  AD 02 20  LDA $2002 = FF                  A:00 X:FF Y:00 P:26 SP:FF CYC:100 SL:190
C7AB  29 80     AND #$80                        A:10 X:FF Y:00 P:24 SP:FF CYC:112 SL:190
C7AD  F0 F9     BEQ $C7A8                       A:00 X:FF Y:00 P:26 SP:FF CYC:118 SL:190
C7A8  AD 02 20  LDA $2002 = FF                  A:00 X:FF Y:00 P:26 SP:FF CYC:127 SL:190
C7AB  29 80     AND #$80                        A:10 X:FF Y:00 P:24 SP:FF CYC:139 SL:190
C7AD  F0 F9     BEQ $C7A8                       A:00 X:FF Y:00 P:26 SP:FF CYC:145 SL:190
C7A8  AD 02 20  LDA $2002 = FF                  A:00 X:FF Y:00 P:26 SP:FF CYC:154 SL:190
C7AB  29 80     AND #$80                        A:10 X:FF Y:00 P:24 SP:FF CYC:166 SL:190
C7AD  F0 F9     BEQ $C7A8                       A:00 X:FF Y:00 P:26 SP:FF CYC:172 SL:190
C7A8  AD 02 20  LDA $2002 = FF                  A:00 X:FF Y:00 P:26 SP:FF CYC:181 SL:190
C7AB  29 80     AND #$80                        A:10 X:FF Y:00 P:24 SP:FF CYC:193 SL:190
C7AD  F0 F9     BEQ $C7A8                       A:00 X:FF Y:00 P:26 SP:FF CYC:199 SL:190
C7A8  AD 02 20  LDA $2002 = FF                  A:00 X:FF Y:00 P:26 SP:FF CYC:208 SL:190
C7AB  29 80     AND #$80                        A:10 X:FF Y:00 P:24 SP:FF CYC:220 SL:190
C7AD  F0 F9     BEQ $C7A8                       A:00 X:FF Y:00 P:26 SP:FF CYC:226 SL:190
C7A8  AD 02 20  LDA $2002 = FF                  A:00 X:FF Y:00 P:26 SP:FF CYC:235 SL:190
C7AB  29 80     AND #$80                        A:10 X:FF Y:00 P:24 SP:FF CYC:247 SL:190
C7AD  F0 F9     BEQ $C7A8                       A:00 X:FF Y:00 P:26 SP:FF CYC:253 SL:190
C7A8  AD 02 20  LDA $2002 = FF                  A:00 X:FF Y:00 P:26 SP:FF CYC:262 SL:190
C7AB  29 80     AND #$80                        A:10 X:FF Y:00 P:24 SP:FF CYC:274 SL:190
C7AD  F0 F9     BEQ $C7A8                       A:00 X:FF Y:00 P:26 SP:FF CYC:280 SL:190
C7A8  AD 02 20  LDA $2002 = FF                  A:00 X:FF Y:00 P:26 SP:FF CYC:289 SL:190
C7AB  29 80     AND #$80                        A:10 X:FF Y:00 P:24 SP:FF CYC:301 SL:190
C7AD  F0 F9     BEQ $C7A8                       A:00 X:FF Y:00 P:26 SP:FF CYC:307 SL:190
C7A8  AD 02 20  LDA $2002 = FF                  A:00 X:FF Y:00 P:26 SP:FF CYC:316 SL:190
C7AB  29 80     AND #$80                        A:10 X:FF Y:00 P:24 SP:FF CYC:328 SL:190
C7AD  F0 F9     BEQ $C7A8                       A:00 X:FF Y:00 P:26 SP:FF CYC:334 SL:190
C7A8  AD 02 20  LDA $2002 = FF                  A:00 X:FF Y:00 P:26 SP:FF CYC:  2 SL:191
C7AB  29 80     AND #$80                        A:10 X:FF Y:00 P:24 SP:FF CYC: 14 SL:191
C7AD  F0 F9     BEQ $C7A8                       A:00 X:FF Y:00 P:26 SP:FF CYC: 20 SL:191
C7A8  AD 02 20  LDA $2002 = FF                  A:00 X:FF Y:00 P:26 SP:FF CYC: 29 SL:191
C7AB  29 80     AND #$80                        A:10 X:FF Y:00 P:24 SP:FF CYC: 41 SL:191
C7AD  F0 F9     BEQ $C7A8                       A:00 X:FF Y:00 P:26 SP:FF CYC: 47 SL:191
C7A8  AD 02 20  LDA $2002 = FF                  A:00 X:FF Y:00 P:26 SP:FF CYC: 56 SL:191
C7AB  29 80     AND #$80                        A:10 X:FF Y:00 P:24 SP:FF CYC: 68 SL:191
C7AD  F0 F9     BEQ $C7A8                       A:00 X:FF Y:00 P:26 SP:FF CYC: 74 SL:191
C7A8  AD 02 20  LDA $2002 = FF                  A:00 X:FF Y:00 P:26 SP:FF CYC: 83 SL:191
C7AB  29 80     AND #$80                        A:10 X:FF Y:00 P:24 SP:FF CYC: 95 SL:191
C7AD  F0 F9     BEQ $C7A8                       A:00 X:FF Y:00 P:26 SP:FF CYC:101 SL:191
C7A8  AD 02 20  LDA $2002 = FF                  A:00 X:FF Y:00 P:26 SP:FF CYC:110 SL:191
C7AB  29 80     AND #$80                        A:10 X:FF Y:00 P:24 SP:FF CYC:122 SL:191
C7AD  F0 F9     BEQ $C7A8                       A:00 X:FF Y:00 P:26 SP:FF CYC:128 SL:191
C7A8  AD 02 20  LDA $2002 = FF                  A:00 X:FF Y:00 P:26 SP:FF CYC:137 SL:191
C7AB  29 80     AND #$80                        A:10 X:FF Y:00 P:24 SP:FF CYC:149 SL:191
C7AD  F0 F9     BEQ $C7A8                       A:00 X:FF Y:00 P:26 SP:FF CYC:155 SL:191
C7A8  AD 02 20  LDA $2002 = FF                  A:00 X:FF Y:00 P:26 SP:FF CYC:164 SL:191
C7AB  29 80     AND #$80                        A:10 X:FF Y:00 P:24 SP:FF CYC:176 SL:191
C7AD  F0 F9     BEQ $C7A8                       A:00 X:FF Y:00 P:26 SP:FF CYC:182 SL:191
C7A8  AD 02 20  LDA $2002 = FF                  A:00 X:FF Y:00 P:26 SP:FF CYC:191 SL:191
C7AB  29 80     AND #$80                        A:10 X:FF Y:00 P:24 SP:FF CYC:203 SL:191
C7AD  F0 F9     BEQ $C7A8                       A:00 X:FF Y:00 P:26 SP:FF CYC:209 SL:191
C7A8  AD 02 20  LDA $2002 = FF                  A:00 X:FF Y:00 P:26 SP:FF CYC:218 SL:191
C7AB  29 80     AND #$80                        A:10 X:FF Y:00 P:24 SP:FF CYC:230 SL:191
C7AD  F0 F9     BEQ $C7A8                       A:00 X:FF Y:00 P:26 SP:FF CYC:236 SL:191
C7A8  AD 02 20  LDA $2002 = FF                  A:00 X:FF Y:00 P:26 SP:FF CYC:245 SL:191
C7AB  29 80     AND #$80                        A:10 X:FF Y:00 P:24 SP:FF CYC:257 SL:191
C7AD  F0 F9     BEQ $C7A8                       A:00 X:FF Y:00 P:26 SP:FF CYC:263 SL:191
C7A8  AD 02 20  LDA $2002 = FF                  A:00 X:FF Y:00 P:26 SP:FF CYC:272 SL:191
C7AB  29 80     AND #$80                        A:10 X:FF Y:00 P:24 SP:FF CYC:284 SL:191
C7AD  F0 F9     BEQ $C7A8                       A:00 X:FF Y:00 P:26 SP:FF CYC:290 SL:191
C7A8  AD 02 20  LDA $2002 = FF                  A:00 X:FF Y:00 P:26 SP:FF CYC:299 SL:191
C7AB  29 80     AND #$80                        A:10 X:FF Y:00 P:24 SP:FF CYC:311 SL:191
C7AD  F0 F9     BEQ $C7A8                       A:00 X:FF Y:00 P:26 SP:FF CYC:317 SL:191
C7A8  AD 02 20  LDA $2002 = FF                  A:00 X:FF Y:00 P:26 SP:FF CYC:326 SL:191
C7AB  29 80     AND #$80                        A:10 X:FF Y:00 P:24 SP:FF CYC:338 SL:191
C7AD  F0 F9     BEQ $C7A8                       A:00 X:FF Y:00 P:26 SP:FF CYC:  3 SL:192
C7A8  AD 02 20  LDA $2002 = FF                  A:00 X:FF Y:00 P:26 SP:FF CYC: 12 SL:192
C7AB  29 80     AND #$80                        A:10 X:FF Y:00 P:24 SP:FF CYC: 24 SL:192
C7AD  F0 F9     BEQ $C7A8                       A:00 X:FF Y:00 P:26 SP:FF CYC: 30 SL:192
C7A8  AD 02 20  LDA $2002 = FF                  A:00 X:FF Y:00 P:26 SP:FF CYC: 39 SL:192
C7AB  29 80     AND #$80                        A:10 X:FF Y:00 P:24 SP:FF CYC: 51 SL:192
C7AD  F0 F9     BEQ $C7A8                       A:00 X:FF Y:00 P:26 SP:FF CYC: 57 SL:192
C7A8  AD 02 20  LDA $2002 = FF                  A:00 X:FF Y:00 P:26 SP:FF CYC: 66 SL:192
C7AB  29 80     AND #$80                        A:10 X:FF Y:00 P:24 SP:FF CYC: 78 SL:192
C7AD  F0 F9     BEQ $C7A8                       A:00 X:FF Y:00 P:26 SP:FF CYC: 84 SL:192
C7A8  AD 02 20  LDA $2002 = FF                  A:00 X:FF Y:00 P:26 SP:FF CYC: 93 SL:192
C7AB  29 80     AND #$80                        A:10 X:FF Y:00 P:24 SP:FF CYC:105 SL:192
C7AD  F0 F9     BEQ $C7A8                       A:00 X:FF Y:00 P:26 SP:FF CYC:111 SL:192
C7A8  AD 02 20  LDA $2002 = FF                  A:00 X:FF Y:00 P:26 SP:FF CYC:120 SL:192
C7AB  29 80     AND #$80                        A:10 X:FF Y:00 P:24 SP:FF CYC:132 SL:192
C7AD  F0 F9     BEQ $C7A8                       A:00 X:FF Y:00 P:26 SP:FF CYC:138 SL:192
C7A8  AD 02 20  LDA $2002 = FF                  A:00 X:FF Y:00 P:26 SP:FF CYC:147 SL:192
C7AB  29 80     AND #$80                        A:10 X:FF Y:00 P:24 SP:FF CYC:159 SL:192
C7AD  F0 F9     BEQ $C7A8                       A:00 X:FF Y:00 P:26 SP:FF CYC:165 SL:192
C7A8  AD 02 20  LDA $2002 = FF                  A:00 X:FF Y:00 P:26 SP:FF CYC:174 SL:192
C7AB  29 80     AND #$80                        A:10 X:FF Y:00 P:24 SP:FF CYC:186 SL:192
C7AD  F0 F9     BEQ $C7A8                       A:00 X:FF Y:00 P:26 SP:FF CYC:192 SL:192
C7A8  AD 02 20  LDA $2002 = FF                  A:00 X:FF Y:00 P:26 SP:FF CYC:201 SL:192
C7AB  29 80     AND #$80                        A:10 X:FF Y:00 P:24 SP:FF CYC:213 SL:192
C7AD  F0 F9     BEQ $C7A8                       A:00 X:FF Y:00 P:26 SP:FF CYC:219 SL:192
C7A8  AD 02 20  LDA $2002 = FF                  A:00 X:FF Y:00 P:26 SP:FF CYC:228 SL:192
C7AB  29 80     AND #$80                        A:10 X:FF Y:00 P:24 SP:FF CYC:240 SL:192
C7AD  F0 F9     BEQ $C7A8                       A:00 X:FF Y:00 P:26 SP:FF CYC:246 SL:192
C7A8  AD 02 20  LDA $2002 = FF                  A:00 X:FF Y:00 P:26 SP:FF CYC:255 SL:192
C7AB  29 80     AND #$80                        A:10 X:FF Y:00 P:24 SP:FF CYC:267 SL:192
C7AD  F0 F9     BEQ $C7A8                       A:00 X:FF Y:00 P:26 SP:FF CYC:273 SL:192
C7A8  AD 02 20  LDA $2002 = FF                  A:00 X:FF Y:00 P:26 SP:FF CYC:282 SL:192
C7AB  29 80     AND #$80                        A:10 X:FF Y:00 P:24 SP:FF CYC:294 SL:192
C7AD  F0 F9     BEQ $C7A8                       A:00 X:FF Y:00 P:26 SP:FF CYC:300 SL:192
C7A8  AD 02 20  LDA $2002 = FF                  A:00 X:FF Y:00 P:26 SP:FF CYC:309 SL:192
C7AB  29 80     AND #$80                        A:10 X:FF Y:00 P:24 SP:FF CYC:321 SL:192
C7AD  F0 F9     BEQ $C7A8                       A:00 X:FF Y:00 P:26 SP:FF CYC:327 SL:192
C7A8  AD 02 20  LDA $2002 = FF                  A:00 X:FF Y:00 P:26 SP:FF CYC:336 SL:192
C7AB  29 80     AND #$80                        A:10 X:FF Y:00 P:24 SP:FF CYC:  7 SL:193
C7AD  F0 F9     BEQ $C7A8                       A:00 X:FF Y:00 P:26 SP:FF CYC: 13 SL:193
C7A8  AD 02 20  LDA $2002 = FF                  A:00 X:FF Y:00 P:26 SP:FF CYC: 22 SL:193
C7AB  29 80     AND #$80                        A:10 X:FF Y:00 P:24 SP:FF CYC: 34 SL:193
C7AD  F0 F9     BEQ $C7A8                       A:00 X:FF Y:00 P:26 SP:FF CYC: 40 SL:193
C7A8  AD 02 20  LDA $2002 = FF                  A:00 X:FF Y:00 P:26 SP:FF CYC: 49 SL:193
C7AB  29 80     AND #$80                        A:10 X:FF Y:00 P:24 SP:FF CYC: 61 SL:193
C7AD  F0 F9     BEQ $C7A8                       A:00 X:FF Y:00 P:26 SP:FF CYC: 67 SL:193
C7A8  AD 02 20  LDA $2002 = FF                  A:00 X:FF Y:00 P:26 SP:FF CYC: 76 SL:193
C7AB  29 80     AND #$80                        A:10 X:FF Y:00 P:24 SP:FF CYC: 88 SL:193
C7AD  F0 F9     BEQ $C7A8                       A:00 X:FF Y:00 P:26 SP:FF CYC: 94 SL:193
C7A8  AD 02 20  LDA $2002 = FF                  A:00 X:FF Y:00 P:26 SP:FF CYC:103 SL:193
C7AB  29 80     AND #$80                        A:10 X:FF Y:00 P:24 SP:FF CYC:115 SL:193
C7AD  F0 F9     BEQ $C7A8                       A:00 X:FF Y:00 P:26 SP:FF CYC:121 SL:193
C7A8  AD 02 20  LDA $2002 = FF                  A:00 X:FF Y:00 P:26 SP:FF CYC:130 SL:193
C7AB  29 80     AND #$80                        A:10 X:FF Y:00 P:24 SP:FF CYC:142 SL:193
C7AD  F0 F9     BEQ $C7A8                       A:00 X:FF Y:00 P:26 SP:FF CYC:148 SL:193
C7A8  AD 02 20  LDA $2002 = FF                  A:00 X:FF Y:00 P:26 SP:FF CYC:157 SL:193
C7AB  29 80     AND #$80                        A:10 X:FF Y:00 P:24 SP:FF CYC:169 SL:193
C7AD  F0 F9     BEQ $C7A8                       A:00 X:FF Y:00 P:26 SP:FF CYC:175 SL:193
C7A8  AD 02 20  LDA $2002 = FF                  A:00 X:FF Y:00 P:26 SP:FF CYC:184 SL:193
C7AB  29 80     AND #$80                        A:10 X:FF Y:00 P:24 SP:FF CYC:196 SL:193
C7AD  F0 F9     BEQ $C7A8                       A:00 X:FF Y:00 P:26 SP:FF CYC:202 SL:193
C7A8  AD 02 20  LDA $2002 = FF                  A:00 X:FF Y:00 P:26 SP:FF CYC:211 SL:193
C7AB  29 80     AND #$80                        A:10 X:FF Y:00 P:24 SP:FF CYC:223 SL:193
C7AD  F0 F9     BEQ $C7A8                       A:00 X:FF Y:00 P:26 SP:FF CYC:229 SL:193
C7A8  AD 02 20  LDA $2002 = FF                  A:00 X:FF Y:00 P:26 SP:FF CYC:238 SL:193
C7AB  29 80     AND #$80                        A:10 X:FF Y:00 P:24 SP:FF CYC:250 SL:193
C7AD  F0 F9     BEQ $C7A8                       A:00 X:FF Y:00 P:26 SP:FF CYC:256 SL:193
C7A8  AD 02 20  LDA $2002 = FF                  A:00 X:FF Y:00 P:26 SP:FF CYC:265 SL:193
C7AB  29 80     AND #$80                        A:10 X:FF Y:00 P:24 SP:FF CYC:277 SL:193
C7AD  F0 F9     BEQ $C7A8                       A:00 X:FF Y:00 P:26 SP:FF CYC:283 SL:193
C7A8  AD 02 20  LDA $2002 = FF                  A:00 X:FF Y:00 P:26 SP:FF CYC:292 SL:193
C7AB  29 80     AND #$80                        A:10 X:FF Y:00 P:24 SP:FF CYC:304 SL:193
C7AD  F0 F9     BEQ $C7A8                       A:00 X:FF Y:00 P:26 SP:FF CYC:310 SL:193
C7A8  AD 02 20  LDA $2002 = FF                  A:00 X:FF Y:00 P:26 SP:FF CYC:319 SL:193
C7AB  29 80     AND #$80                        A:10 X:FF Y:00 P:24 SP:FF CYC:331 SL:193
C7AD  F0 F9     BEQ $C7A8                       A:00 X:FF Y:00 P:26 SP:FF CYC:337 SL:193
C7A8  AD 02 20  LDA $2002 = FF                  A:00 X:FF Y:00 P:26 SP:FF CYC:  5 SL:194
C7AB  29 80     AND #$80                        A:10 X:FF Y:00 P:24 SP:FF CYC: 17 SL:194
C7AD  F0 F9     BEQ $C7A8                       A:00 X:FF Y:00 P:26 SP:FF CYC: 23 SL:194
C7A8  AD 02 20  LDA $2002 = FF                  A:00 X:FF Y:00 P:26 SP:FF CYC: 32 SL:194
C7AB  29 80     AND #$80                        A:10 X:FF Y:00 P:24 SP:FF CYC: 44 SL:194
C7AD  F0 F9     BEQ $C7A8                       A:00 X:FF Y:00 P:26 SP:FF CYC: 50 SL:194
C7A8  AD 02 20  LDA $2002 = FF                  A:00 X:FF Y:00 P:26 SP:FF CYC: 59 SL:194
C7AB  29 80     AND #$80                        A:10 X:FF Y:00 P:24 SP:FF CYC: 71 SL:194
C7AD  F0 F9     BEQ $C7A8                       A:00 X:FF Y:00 P:26 SP:FF CYC: 77 SL:194
C7A8  AD 02 20  LDA $2002 = FF                  A:00 X:FF Y:00 P:26 SP:FF CYC: 86 SL:194
C7AB  29 80     AND #$80                        A:10 X:FF Y:00 P:24 SP:FF CYC: 98 SL:194
C7AD  F0 F9     BEQ $C7A8                       A:00 X:FF Y:00 P:26 SP:FF CYC:104 SL:194
C7A8  AD 02 20  LDA $2002 = FF                  A:00 X:FF Y:00 P:26 SP:FF CYC:113 SL:194
C7AB  29 80     AND #$80                        A:10 X:FF Y:00 P:24 SP:FF CYC:125 SL:194
C7AD  F0 F9     BEQ $C7A8                       A:00 X:FF Y:00 P:26 SP:FF CYC:131 SL:194
C7A8  AD 02 20  LDA $2002 = FF                  A:00 X:FF Y:00 P:26 SP:FF CYC:140 SL:194
C7AB  29 80     AND #$80                        A:10 X:FF Y:00 P:24 SP:FF CYC:152 SL:194
C7AD  F0 F9     BEQ $C7A8                       A:00 X:FF Y:00 P:26 SP:FF CYC:158 SL:194
C7A8  AD 02 20  LDA $2002 = FF                  A:00 X:FF Y:00 P:26 SP:FF CYC:167 SL:194
C7AB  29 80     AND #$80                        A:10 X:FF Y:00 P:24 SP:FF CYC:179 SL:194
C7AD  F0 F9     BEQ $C7A8                       A:00 X:FF Y:00 P:26 SP:FF CYC:185 SL:194
C7A8  AD 02 20  LDA $2002 = FF                  A:00 X:FF Y:00 P:26 SP:FF CYC:194 SL:194
C7AB  29 80     AND #$80                        A:10 X:FF Y:00 P:24 SP:FF CYC:206 SL:194
C7AD  F0 F9     BEQ $C7A8                       A:00 X:FF Y:00 P:26 SP:FF CYC:212 SL:194
C7A8  AD 02 20  LDA $2002 = FF                  A:00 X:FF Y:00 P:26 SP:FF CYC:221 SL:194
C7AB  29 80     AND #$80                        A:10 X:FF Y:00 P:24 SP:FF CYC:233 SL:194
C7AD  F0 F9     BEQ $C7A8                       A:00 X:FF Y:00 P:26 SP:FF CYC:239 SL:194
C7A8  AD 02 20  LDA $2002 = FF                  A:00 X:FF Y:00 P:26 SP:FF CYC:248 SL:194
C7AB  29 80     AND #$80                        A:10 X:FF Y:00 P:24 SP:FF CYC:260 SL:194
C7AD  F0 F9     BEQ $C7A8                       A:00 X:FF Y:00 P:26 SP:FF CYC:266 SL:194
C7A8  AD 02 20  LDA $2002 = FF                  A:00 X:FF Y:00 P:26 SP:FF CYC:275 SL:194
C7AB  29 80     AND #$80                        A:10 X:FF Y:00 P:24 SP:FF CYC:287 SL:194
C7AD  F0 F9     BEQ $C7A8                       A:00 X:FF Y:00 P:26 SP:FF CYC:293 SL:194
C7A8  AD 02 20  LDA $2002 = FF                  A:00 X:FF Y:00 P:26 SP:FF CYC:302 SL:194
C7AB  29 80     AND #$80                        A:10 X:FF Y:00 P:24 SP:FF CYC:314 SL:194
C7AD  F0 F9     BEQ $C7A8                       A:00 X:FF Y:00 P:26 SP:FF CYC:320 SL:194
C7A8  AD 02 20  LDA $2002 = FF                  A:00 X:FF Y:00 P:26 SP:FF CYC:329 SL:194
C7AB  29 80     AND #$80                        A:10 X:FF Y:00 P:24 SP:FF CYC:  0 SL:195
C7AD  F0 F9     BEQ $C7A8                       A:00 X:FF Y:00 P:26 SP:FF CYC:  6 SL:195
C7A8  AD 02 20  LDA $2002 = FF                  A:00 X:FF Y:00 P:26 SP:FF CYC: 15 SL:195
C7AB  29 80     AND #$80                        A:10 X:FF Y:00 P:24 SP:FF CYC: 27 SL:195
C7AD  F0 F9     BEQ $C7A8                       A:00 X:FF Y:00 P:26 SP:FF CYC: 33 SL:195
C7A8  AD 02 20  LDA $2002 = FF                  A:00 X:FF Y:00 P:26 SP:FF CYC: 42 SL:195
C7AB  29 80     AND #$80                        A:10 X:FF Y:00 P:24 SP:FF CYC: 54 SL:195
C7AD  F0 F9     BEQ $C7A8                       A:00 X:FF Y:00 P:26 SP:FF CYC: 60 SL:195
C7A8  AD 02 20  LDA $2002 = FF                  A:00 X:FF Y:00 P:26 SP:FF CYC: 69 SL:195
C7AB  29 80     AND #$80                        A:10 X:FF Y:00 P:24 SP:FF CYC: 81 SL:195
C7AD  F0 F9     BEQ $C7A8                       A:00 X:FF Y:00 P:26 SP:FF CYC: 87 SL:195
C7A8  AD 02 20  LDA $2002 = FF                  A:00 X:FF Y:00 P:26 SP:FF CYC: 96 SL:195
C7AB  29 80     AND #$80                        A:10 X:FF Y:00 P:24 SP:FF CYC:108 SL:195
C7AD  F0 F9     BEQ $C7A8                       A:00 X:FF Y:00 P:26 SP:FF CYC:114 SL:195
C7A8  AD 02 20  LDA $2002 = FF                  A:00 X:FF Y:00 P:26 SP:FF CYC:123 SL:195
C7AB  29 80     AND #$80                        A:10 X:FF Y:00 P:24 SP:FF CYC:135 SL:195
C7AD  F0 F9     BEQ $C7A8                       A:00 X:FF Y:00 P:26 SP:FF CYC:141 SL:195
C7A8  AD 02 20  LDA $2002 = FF                  A:00 X:FF Y:00 P:26 SP:FF CYC:150 SL:195
C7AB  29 80     AND #$80                        A:10 X:FF Y:00 P:24 SP:FF CYC:162 SL:195
C7AD  F0 F9     BEQ $C7A8                       A:00 X:FF Y:00 P:26 SP:FF CYC:168 SL:195
C7A8  AD 02 20  LDA $2002 = FF                  A:00 X:FF Y:00 P:26 SP:FF CYC:177 SL:195
C7AB  29 80     AND #$80                        A:10 X:FF Y:00 P:24 SP:FF CYC:189 SL:195
C7AD  F0 F9     BEQ $C7A8                       A:00 X:FF Y:00 P:26 SP:FF CYC:195 SL:195
C7A8  AD 02 20  LDA $2002 = FF                  A:00 X:FF Y:00 P:26 SP:FF CYC:204 SL:195
C7AB  29 80     AND #$80                        A:10 X:FF Y:00 P:24 SP:FF CYC:216 SL:195
C7AD  F0 F9     BEQ $C7A8                       A:00 X:FF Y:00 P:26 SP:FF CYC:222 SL:195
C7A8  AD 02 20  LDA $2002 = FF                  A:00 X:FF Y:00 P:26 SP:FF CYC:231 SL:195
C7AB  29 80     AND #$80                        A:10 X:FF Y:00 P:24 SP:FF CYC:243 SL:195
C7AD  F0 F9     BEQ $C7A8                       A:00 X:FF Y:00 P:26 SP:FF CYC:249 SL:195
C7A8  AD 02 20  LDA $2002 = FF                  A:00 X:FF Y:00 P:26 SP:FF CYC:258 SL:195
C7AB  29 80     AND #$80                        A:10 X:FF Y:00 P:24 SP:FF CYC:270 SL:195
C7AD  F0 F9     BEQ $C7A8                       A:00 X:FF Y:00 P:26 SP:FF CYC:276 SL:195
C7A8  AD 02 20  LDA $2002 = FF                  A:00 X:FF Y:00 P:26 SP:FF CYC:285 SL:195
C7AB  29 80     AND #$80                        A:10 X:FF Y:00 P:24 SP:FF CYC:297 SL:195
C7AD  F0 F9     BEQ $C7A8                       A:00 X:FF Y:00 P:26 SP:FF CYC:303 SL:195
C7A8  AD 02 20  LDA $2002 = FF                  A:00 X:FF Y:00 P:26 SP:FF CYC:312 SL:195
C7AB  29 80     AND #$80                        A:10 X:FF Y:00 P:24 SP:FF CYC:324 SL:195
C7AD  F0 F9     BEQ $C7A8                       A:00 X:FF Y:00 P:26 SP:FF CYC:330 SL:195
C7A8  AD 02 20  LDA $2002 = FF                  A:00 X:FF Y:00 P:26 SP:FF CYC:339 SL:195
C7AB  29 80     AND #$80                        A:10 X:FF Y:00 P:24 SP:FF CYC: 10 SL:196
C7AD  F0 F9     BEQ $C7A8                       A:00 X:FF Y:00 P:26 SP:FF CYC: 16 SL:196
C7A8  AD 02 20  LDA $2002 = FF                  A:00 X:FF Y:00 P:26 SP:FF CYC: 25 SL:196
C7AB  29 80     AND #$80                        A:10 X:FF Y:00 P:24 SP:FF CYC: 37 SL:196
C7AD  F0 F9     BEQ $C7A8                       A:00 X:FF Y:00 P:26 SP:FF CYC: 43 SL:196
C7A8  AD 02 20  LDA $2002 = FF                  A:00 X:FF Y:00 P:26 SP:FF CYC: 52 SL:196
C7AB  29 80     AND #$80                        A:10 X:FF Y:00 P:24 SP:FF CYC: 64 SL:196
C7AD  F0 F9     BEQ $C7A8                       A:00 X:FF Y:00 P:26 SP:FF CYC: 70 SL:196
C7A8  AD 02 20  LDA $2002 = FF                  A:00 X:FF Y:00 P:26 SP:FF CYC: 79 SL:196
C7AB  29 80     AND #$80                        A:10 X:FF Y:00 P:24 SP:FF CYC: 91 SL:196
C7AD  F0 F9     BEQ $C7A8                       A:00 X:FF Y:00 P:26 SP:FF CYC: 97 SL:196
C7A8  AD 02 20  LDA $2002 = FF                  A:00 X:FF Y:00 P:26 SP:FF CYC:106 SL:196
C7AB  29 80     AND #$80                        A:10 X:FF Y:00 P:24 SP:FF CYC:118 SL:196
C7AD  F0 F9     BEQ $C7A8                       A:00 X:FF Y:00 P:26 SP:FF CYC:124 SL:196
C7A8  AD 02 20  LDA $2002 = FF                  A:00 X:FF Y:00 P:26 SP:FF CYC:133 SL:196
C7AB  29 80     AND #$80                        A:10 X:FF Y:00 P:24 SP:FF CYC:145 SL:196
C7AD  F0 F9     BEQ $C7A8                       A:00 X:FF Y:00 P:26 SP:FF CYC:151 SL:196
C7A8  AD 02 20  LDA $2002 = FF                  A:00 X:FF Y:00 P:26 SP:FF CYC:160 SL:196
C7AB  29 80     AND #$80                        A:10 X:FF Y:00 P:24 SP:FF CYC:172 SL:196
C7AD  F0 F9     BEQ $C7A8                       A:00 X:FF Y:00 P:26 SP:FF CYC:178 SL:196
C7A8  AD 02 20  LDA $2002 = FF                  A:00 X:FF Y:00 P:26 SP:FF CYC:187 SL:196
C7AB  29 80     AND #$80                        A:10 X:FF Y:00 P:24 SP:FF CYC:199 SL:196
C7AD  F0 F9     BEQ $C7A8                       A:00 X:FF Y:00 P:26 SP:FF CYC:205 SL:196
C7A8  AD 02 20  LDA $2002 = FF                  A:00 X:FF Y:00 P:26 SP:FF CYC:214 SL:196
C7AB  29 80     AND #$80                        A:10 X:FF Y:00 P:24 SP:FF CYC:226 SL:196
C7AD  F0 F9     BEQ $C7A8                       A:00 X:FF Y:00 P:26 SP:FF CYC:232 SL:196
C7A8  AD 02 20  LDA $2002 = FF                  A:00 X:FF Y:00 P:26 SP:FF CYC:241 SL:196
C7AB  29 80     AND #$80                        A:10 X:FF Y:00 P:24 SP:FF CYC:253 SL:196
C7AD  F0 F9     BEQ $C7A8                       A:00 X:FF Y:00 P:26 SP:FF CYC:259 SL:196
C7A8  AD 02 20  LDA $2002 = FF                  A:00 X:FF Y:00 P:26 SP:FF CYC:268 SL:196
C7AB  29 80     AND #$80                        A:10 X:FF Y:00 P:24 SP:FF CYC:280 SL:196
C7AD  F0 F9     BEQ $C7A8                       A:00 X:FF Y:00 P:26 SP:FF CYC:286 SL:196
C7A8  AD 02 20  LDA $2002 = FF                  A:00 X:FF Y:00 P:26 SP:FF CYC:295 SL:196
C7AB  29 80     AND #$80                        A:10 X:FF Y:00 P:24 SP:FF CYC:307 SL:196
C7AD  F0 F9     BEQ $C7A8                       A:00 X:FF Y:00 P:26 SP:FF CYC:313 SL:196
C7A8  AD 02 20  LDA $2002 = FF                  A:00 X:FF Y:00 P:26 SP:FF CYC:322 SL:196
C7AB  29 80     AND #$80                        A:10 X:FF Y:00 P:24 SP:FF CYC:334 SL:196
C7AD  F0 F9     BEQ $C7A8                       A:00 X:FF Y:00 P:26 SP:FF CYC:340 SL:196
C7A8  AD 02 20  LDA $2002 = FF                  A:00 X:FF Y:00 P:26 SP:FF CYC:  8 SL:197
C7AB  29 80     AND #$80                        A:10 X:FF Y:00 P:24 SP:FF CYC: 20 SL:197
C7AD  F0 F9     BEQ $C7A8                       A:00 X:FF Y:00 P:26 SP:FF CYC: 26 SL:197
C7A8  AD 02 20  LDA $2002 = FF                  A:00 X:FF Y:00 P:26 SP:FF CYC: 35 SL:197
C7AB  29 80     AND #$80                        A:10 X:FF Y:00 P:24 SP:FF CYC: 47 SL:197
C7AD  F0 F9     BEQ $C7A8                       A:00 X:FF Y:00 P:26 SP:FF CYC: 53 SL:197
C7A8  AD 02 20  LDA $2002 = FF                  A:00 X:FF Y:00 P:26 SP:FF CYC: 62 SL:197
C7AB  29 80     AND #$80                        A:10 X:FF Y:00 P:24 SP:FF CYC: 74 SL:197
C7AD  F0 F9     BEQ $C7A8                       A:00 X:FF Y:00 P:26 SP:FF CYC: 80 SL:197
C7A8  AD 02 20  LDA $2002 = FF                  A:00 X:FF Y:00 P:26 SP:FF CYC: 89 SL:197
C7AB  29 80     AND #$80                        A:10 X:FF Y:00 P:24 SP:FF CYC:101 SL:197
C7AD  F0 F9     BEQ $C7A8                       A:00 X:FF Y:00 P:26 SP:FF CYC:107 SL:197
C7A8  AD 02 20  LDA $2002 = FF                  A:00 X:FF Y:00 P:26 SP:FF CYC:116 SL:197
C7AB  29 80     AND #$80                        A:10 X:FF Y:00 P:24 SP:FF CYC:128 SL:197
C7AD  F0 F9     BEQ $C7A8                       A:00 X:FF Y:00 P:26 SP:FF CYC:134 SL:197
C7A8  AD 02 20  LDA $2002 = FF                  A:00 X:FF Y:00 P:26 SP:FF CYC:143 SL:197
C7AB  29 80     AND #$80                        A:10 X:FF Y:00 P:24 SP:FF CYC:155 SL:197
C7AD  F0 F9     BEQ $C7A8                       A:00 X:FF Y:00 P:26 SP:FF CYC:161 SL:197
C7A8  AD 02 20  LDA $2002 = FF                  A:00 X:FF Y:00 P:26 SP:FF CYC:170 SL:197
C7AB  29 80     AND #$80                        A:10 X:FF Y:00 P:24 SP:FF CYC:182 SL:197
C7AD  F0 F9     BEQ $C7A8                       A:00 X:FF Y:00 P:26 SP:FF CYC:188 SL:197
C7A8  AD 02 20  LDA $2002 = FF                  A:00 X:FF Y:00 P:26 SP:FF CYC:197 SL:197
C7AB  29 80     AND #$80                        A:10 X:FF Y:00 P:24 SP:FF CYC:209 SL:197
C7AD  F0 F9     BEQ $C7A8                       A:00 X:FF Y:00 P:26 SP:FF CYC:215 SL:197
C7A8  AD 02 20  LDA $2002 = FF                  A:00 X:FF Y:00 P:26 SP:FF CYC:224 SL:197
C7AB  29 80     AND #$80                        A:10 X:FF Y:00 P:24 SP:FF CYC:236 SL:197
C7AD  F0 F9     BEQ $C7A8                       A:00 X:FF Y:00 P:26 SP:FF CYC:242 SL:197
C7A8  AD 02 20  LDA $2002 = FF                  A:00 X:FF Y:00 P:26 SP:FF CYC:251 SL:197
C7AB  29 80     AND #$80                        A:10 X:FF Y:00 P:24 SP:FF CYC:263 SL:197
C7AD  F0 F9     BEQ $C7A8                       A:00 X:FF Y:00 P:26 SP:FF CYC:269 SL:197
C7A8  AD 02 20  LDA $2002 = FF                  A:00 X:FF Y:00 P:26 SP:FF CYC:278 SL:197
C7AB  29 80     AND #$80                        A:10 X:FF Y:00 P:24 SP:FF CYC:290 SL:197
C7AD  F0 F9     BEQ $C7A8                       A:00 X:FF Y:00 P:26 SP:FF CYC:296 SL:197
C7A8  AD 02 20  LDA $2002 = FF                  A:00 X:FF Y:00 P:26 SP:FF CYC:305 SL:197
C7AB  29 80     AND #$80                        A:10 X:FF Y:00 P:24 SP:FF CYC:317 SL:197
C7AD  F0 F9     BEQ $C7A8                       A:00 X:FF Y:00 P:26 SP:FF CYC:323 SL:197
C7A8  AD 02 20  LDA $2002 = FF                  A:00 X:FF Y:00 P:26 SP:FF CYC:332 SL:197
C7AB  29 80     AND #$80                        A:10 X:FF Y:00 P:24 SP:FF CYC:  3 SL:198
C7AD  F0 F9     BEQ $C7A8                       A:00 X:FF Y:00 P:26 SP:FF CYC:  9 SL:198
C7A8  AD 02 20  LDA $2002 = FF                  A:00 X:FF Y:00 P:26 SP:FF CYC: 18 SL:198
C7AB  29 80     AND #$80                        A:10 X:FF Y:00 P:24 SP:FF CYC: 30 SL:198
C7AD  F0 F9     BEQ $C7A8                       A:00 X:FF Y:00 P:26 SP:FF CYC: 36 SL:198
C7A8  AD 02 20  LDA $2002 = FF                  A:00 X:FF Y:00 P:26 SP:FF CYC: 45 SL:198
C7AB  29 80     AND #$80                        A:10 X:FF Y:00 P:24 SP:FF CYC: 57 SL:198
C7AD  F0 F9     BEQ $C7A8                       A:00 X:FF Y:00 P:26 SP:FF CYC: 63 SL:198
C7A8  AD 02 20  LDA $2002 = FF                  A:00 X:FF Y:00 P:26 SP:FF CYC: 72 SL:198
C7AB  29 80     AND #$80                        A:10 X:FF Y:00 P:24 SP:FF CYC: 84 SL:198
C7AD  F0 F9     BEQ $C7A8                       A:00 X:FF Y:00 P:26 SP:FF CYC: 90 SL:198
C7A8  AD 02 20  LDA $2002 = FF                  A:00 X:FF Y:00 P:26 SP:FF CYC: 99 SL:198
C7AB  29 80     AND #$80                        A:10 X:FF Y:00 P:24 SP:FF CYC:111 SL:198
C7AD  F0 F9     BEQ $C7A8                       A:00 X:FF Y:00 P:26 SP:FF CYC:117 SL:198
C7A8  AD 02 20  LDA $2002 = FF                  A:00 X:FF Y:00 P:26 SP:FF CYC:126 SL:198
C7AB  29 80     AND #$80                        A:10 X:FF Y:00 P:24 SP:FF CYC:138 SL:198
C7AD  F0 F9     BEQ $C7A8                       A:00 X:FF Y:00 P:26 SP:FF CYC:144 SL:198
C7A8  AD 02 20  LDA $2002 = FF                  A:00 X:FF Y:00 P:26 SP:FF CYC:153 SL:198
C7AB  29 80     AND #$80                        A:10 X:FF Y:00 P:24 SP:FF CYC:165 SL:198
C7AD  F0 F9     BEQ $C7A8                       A:00 X:FF Y:00 P:26 SP:FF CYC:171 SL:198
C7A8  AD 02 20  LDA $2002 = FF                  A:00 X:FF Y:00 P:26 SP:FF CYC:180 SL:198
C7AB  29 80     AND #$80                        A:10 X:FF Y:00 P:24 SP:FF CYC:192 SL:198
C7AD  F0 F9     BEQ $C7A8                       A:00 X:FF Y:00 P:26 SP:FF CYC:198 SL:198
C7A8  AD 02 20  LDA $2002 = FF                  A:00 X:FF Y:00 P:26 SP:FF CYC:207 SL:198
C7AB  29 80     AND #$80                        A:10 X:FF Y:00 P:24 SP:FF CYC:219 SL:198
C7AD  F0 F9     BEQ $C7A8                       A:00 X:FF Y:00 P:26 SP:FF CYC:225 SL:198
C7A8  AD 02 20  LDA $2002 = FF                  A:00 X:FF Y:00 P:26 SP:FF CYC:234 SL:198
C7AB  29 80     AND #$80                        A:10 X:FF Y:00 P:24 SP:FF CYC:246 SL:198
C7AD  F0 F9     BEQ $C7A8                       A:00 X:FF Y:00 P:26 SP:FF CYC:252 SL:198
C7A8  AD 02 20  LDA $2002 = FF                  A:00 X:FF Y:00 P:26 SP:FF CYC:261 SL:198
C7AB  29 80     AND #$80                        A:10 X:FF Y:00 P:24 SP:FF CYC:273 SL:198
C7AD  F0 F9     BEQ $C7A8                       A:00 X:FF Y:00 P:26 SP:FF CYC:279 SL:198
C7A8  AD 02 20  LDA $2002 = FF                  A:00 X:FF Y:00 P:26 SP:FF CYC:288 SL:198
C7AB  29 80     AND #$80                        A:10 X:FF Y:00 P:24 SP:FF CYC:300 SL:198
C7AD  F0 F9     BEQ $C7A8                       A:00 X:FF Y:00 P:26 SP:FF CYC:306 SL:198
C7A8  AD 02 20  LDA $2002 = FF                  A:00 X:FF Y:00 P:26 SP:FF CYC:315 SL:198
C7AB  29 80     AND #$80                        A:10 X:FF Y:00 P:24 SP:FF CYC:327 SL:198
C7AD  F0 F9     BEQ $C7A8                       A:00 X:FF Y:00 P:26 SP:FF CYC:333 SL:198
C7A8  AD 02 20  LDA $2002 = FF                  A:00 X:FF Y:00 P:26 SP:FF CYC:  1 SL:199
C7AB  29 80     AND #$80                        A:10 X:FF Y:00 P:24 SP:FF CYC: 13 SL:199
C7AD  F0 F9     BEQ $C7A8                       A:00 X:FF Y:00 P:26 SP:FF CYC: 19 SL:199
C7A8  AD 02 20  LDA $2002 = FF                  A:00 X:FF Y:00 P:26 SP:FF CYC: 28 SL:199
C7AB  29 80     AND #$80                        A:10 X:FF Y:00 P:24 SP:FF CYC: 40 SL:199
C7AD  F0 F9     BEQ $C7A8                       A:00 X:FF Y:00 P:26 SP:FF CYC: 46 SL:199
C7A8  AD 02 20  LDA $2002 = FF                  A:00 X:FF Y:00 P:26 SP:FF CYC: 55 SL:199
C7AB  29 80     AND #$80                        A:10 X:FF Y:00 P:24 SP:FF CYC: 67 SL:199
C7AD  F0 F9     BEQ $C7A8                       A:00 X:FF Y:00 P:26 SP:FF CYC: 73 SL:199
C7A8  AD 02 20  LDA $2002 = FF                  A:00 X:FF Y:00 P:26 SP:FF CYC: 82 SL:199
C7AB  29 80     AND #$80                        A:10 X:FF Y:00 P:24 SP:FF CYC: 94 SL:199
C7AD  F0 F9     BEQ $C7A8                       A:00 X:FF Y:00 P:26 SP:FF CYC:100 SL:199
C7A8  AD 02 20  LDA $2002 = FF                  A:00 X:FF Y:00 P:26 SP:FF CYC:109 SL:199
C7AB  29 80     AND #$80                        A:10 X:FF Y:00 P:24 SP:FF CYC:121 SL:199
C7AD  F0 F9     BEQ $C7A8                       A:00 X:FF Y:00 P:26 SP:FF CYC:127 SL:199
C7A8  AD 02 20  LDA $2002 = FF                  A:00 X:FF Y:00 P:26 SP:FF CYC:136 SL:199
C7AB  29 80     AND #$80                        A:10 X:FF Y:00 P:24 SP:FF CYC:148 SL:199
C7AD  F0 F9     BEQ $C7A8                       A:00 X:FF Y:00 P:26 SP:FF CYC:154 SL:199
C7A8  AD 02 20  LDA $2002 = FF                  A:00 X:FF Y:00 P:26 SP:FF CYC:163 SL:199
C7AB  29 80     AND #$80                        A:10 X:FF Y:00 P:24 SP:FF CYC:175 SL:199
C7AD  F0 F9     BEQ $C7A8                       A:00 X:FF Y:00 P:26 SP:FF CYC:181 SL:199
C7A8  AD 02 20  LDA $2002 = FF                  A:00 X:FF Y:00 P:26 SP:FF CYC:190 SL:199
C7AB  29 80     AND #$80                        A:10 X:FF Y:00 P:24 SP:FF CYC:202 SL:199
C7AD  F0 F9     BEQ $C7A8                       A:00 X:FF Y:00 P:26 SP:FF CYC:208 SL:199
C7A8  AD 02 20  LDA $2002 = FF                  A:00 X:FF Y:00 P:26 SP:FF CYC:217 SL:199
C7AB  29 80     AND #$80                        A:10 X:FF Y:00 P:24 SP:FF CYC:229 SL:199
C7AD  F0 F9     BEQ $C7A8                       A:00 X:FF Y:00 P:26 SP:FF CYC:235 SL:199
C7A8  AD 02 20  LDA $2002 = FF                  A:00 X:FF Y:00 P:26 SP:FF CYC:244 SL:199
C7AB  29 80     AND #$80                        A:10 X:FF Y:00 P:24 SP:FF CYC:256 SL:199
C7AD  F0 F9     BEQ $C7A8                       A:00 X:FF Y:00 P:26 SP:FF CYC:262 SL:199
C7A8  AD 02 20  LDA $2002 = FF                  A:00 X:FF Y:00 P:26 SP:FF CYC:271 SL:199
C7AB  29 80     AND #$80                        A:10 X:FF Y:00 P:24 SP:FF CYC:283 SL:199
C7AD  F0 F9     BEQ $C7A8                       A:00 X:FF Y:00 P:26 SP:FF CYC:289 SL:199
C7A8  AD 02 20  LDA $2002 = FF                  A:00 X:FF Y:00 P:26 SP:FF CYC:298 SL:199
C7AB  29 80     AND #$80                        A:10 X:FF Y:00 P:24 SP:FF CYC:310 SL:199
C7AD  F0 F9     BEQ $C7A8                       A:00 X:FF Y:00 P:26 SP:FF CYC:316 SL:199
C7A8  AD 02 20  LDA $2002 = FF                  A:00 X:FF Y:00 P:26 SP:FF CYC:325 SL:199
C7AB  29 80     AND #$80                        A:10 X:FF Y:00 P:24 SP:FF CYC:337 SL:199
C7AD  F0 F9     BEQ $C7A8                       A:00 X:FF Y:00 P:26 SP:FF CYC:  2 SL:200
C7A8  AD 02 20  LDA $2002 = FF                  A:00 X:FF Y:00 P:26 SP:FF CYC: 11 SL:200
C7AB  29 80     AND #$80                        A:10 X:FF Y:00 P:24 SP:FF CYC: 23 SL:200
C7AD  F0 F9     BEQ $C7A8                       A:00 X:FF Y:00 P:26 SP:FF CYC: 29 SL:200
C7A8  AD 02 20  LDA $2002 = FF                  A:00 X:FF Y:00 P:26 SP:FF CYC: 38 SL:200
C7AB  29 80     AND #$80                        A:10 X:FF Y:00 P:24 SP:FF CYC: 50 SL:200
C7AD  F0 F9     BEQ $C7A8                       A:00 X:FF Y:00 P:26 SP:FF CYC: 56 SL:200
C7A8  AD 02 20  LDA $2002 = FF                  A:00 X:FF Y:00 P:26 SP:FF CYC: 65 SL:200
C7AB  29 80     AND #$80                        A:10 X:FF Y:00 P:24 SP:FF CYC: 77 SL:200
C7AD  F0 F9     BEQ $C7A8                       A:00 X:FF Y:00 P:26 SP:FF CYC: 83 SL:200
C7A8  AD 02 20  LDA $2002 = FF                  A:00 X:FF Y:00 P:26 SP:FF CYC: 92 SL:200
C7AB  29 80     AND #$80                        A:10 X:FF Y:00 P:24 SP:FF CYC:104 SL:200
C7AD  F0 F9     BEQ $C7A8                       A:00 X:FF Y:00 P:26 SP:FF CYC:110 SL:200
C7A8  AD 02 20  LDA $2002 = FF                  A:00 X:FF Y:00 P:26 SP:FF CYC:119 SL:200
C7AB  29 80     AND #$80                        A:10 X:FF Y:00 P:24 SP:FF CYC:131 SL:200
C7AD  F0 F9     BEQ $C7A8                       A:00 X:FF Y:00 P:26 SP:FF CYC:137 SL:200
C7A8  AD 02 20  LDA $2002 = FF                  A:00 X:FF Y:00 P:26 SP:FF CYC:146 SL:200
C7AB  29 80     AND #$80                        A:10 X:FF Y:00 P:24 SP:FF CYC:158 SL:200
C7AD  F0 F9     BEQ $C7A8                       A:00 X:FF Y:00 P:26 SP:FF CYC:164 SL:200
C7A8  AD 02 20  LDA $2002 = FF                  A:00 X:FF Y:00 P:26 SP:FF CYC:173 SL:200
C7AB  29 80     AND #$80                        A:10 X:FF Y:00 P:24 SP:FF CYC:185 SL:200
C7AD  F0 F9     BEQ $C7A8                       A:00 X:FF Y:00 P:26 SP:FF CYC:191 SL:200
C7A8  AD 02 20  LDA $2002 = FF                  A:00 X:FF Y:00 P:26 SP:FF CYC:200 SL:200
C7AB  29 80     AND #$80                        A:10 X:FF Y:00 P:24 SP:FF CYC:212 SL:200
C7AD  F0 F9     BEQ $C7A8                       A:00 X:FF Y:00 P:26 SP:FF CYC:218 SL:200
C7A8  AD 02 20  LDA $2002 = FF                  A:00 X:FF Y:00 P:26 SP:FF CYC:227 SL:200
C7AB  29 80     AND #$80                        A:10 X:FF Y:00 P:24 SP:FF CYC:239 SL:200
C7AD  F0 F9     BEQ $C7A8                       A:00 X:FF Y:00 P:26 SP:FF CYC:245 SL:200
C7A8  AD 02 20  LDA $2002 = FF                  A:00 X:FF Y:00 P:26 SP:FF CYC:254 SL:200
C7AB  29 80     AND #$80                        A:10 X:FF Y:00 P:24 SP:FF CYC:266 SL:200
C7AD  F0 F9     BEQ $C7A8                       A:00 X:FF Y:00 P:26 SP:FF CYC:272 SL:200
C7A8  AD 02 20  LDA $2002 = FF                  A:00 X:FF Y:00 P:26 SP:FF CYC:281 SL:200
C7AB  29 80     AND #$80                        A:10 X:FF Y:00 P:24 SP:FF CYC:293 SL:200
C7AD  F0 F9     BEQ $C7A8                       A:00 X:FF Y:00 P:26 SP:FF CYC:299 SL:200
C7A8  AD 02 20  LDA $2002 = FF                  A:00 X:FF Y:00 P:26 SP:FF CYC:308 SL:200
C7AB  29 80     AND #$80                        A:10 X:FF Y:00 P:24 SP:FF CYC:320 SL:200
C7AD  F0 F9     BEQ $C7A8                       A:00 X:FF Y:00 P:26 SP:FF CYC:326 SL:200
C7A8  AD 02 20  LDA $2002 = FF                  A:00 X:FF Y:00 P:26 SP:FF CYC:335 SL:200
C7AB  29 80     AND #$80                        A:10 X:FF Y:00 P:24 SP:FF CYC:  6 SL:201
C7AD  F0 F9     BEQ $C7A8                       A:00 X:FF Y:00 P:26 SP:FF CYC: 12 SL:201
C7A8  AD 02 20  LDA $2002 = FF                  A:00 X:FF Y:00 P:26 SP:FF CYC: 21 SL:201
C7AB  29 80     AND #$80                        A:10 X:FF Y:00 P:24 SP:FF CYC: 33 SL:201
C7AD  F0 F9     BEQ $C7A8                       A:00 X:FF Y:00 P:26 SP:FF CYC: 39 SL:201
C7A8  AD 02 20  LDA $2002 = FF                  A:00 X:FF Y:00 P:26 SP:FF CYC: 48 SL:201
C7AB  29 80     AND #$80                        A:10 X:FF Y:00 P:24 SP:FF CYC: 60 SL:201
C7AD  F0 F9     BEQ $C7A8                       A:00 X:FF Y:00 P:26 SP:FF CYC: 66 SL:201
C7A8  AD 02 20  LDA $2002 = FF                  A:00 X:FF Y:00 P:26 SP:FF CYC: 75 SL:201
C7AB  29 80     AND #$80                        A:10 X:FF Y:00 P:24 SP:FF CYC: 87 SL:201
C7AD  F0 F9     BEQ $C7A8                       A:00 X:FF Y:00 P:26 SP:FF CYC: 93 SL:201
C7A8  AD 02 20  LDA $2002 = FF                  A:00 X:FF Y:00 P:26 SP:FF CYC:102 SL:201
C7AB  29 80     AND #$80                        A:10 X:FF Y:00 P:24 SP:FF CYC:114 SL:201
C7AD  F0 F9     BEQ $C7A8                       A:00 X:FF Y:00 P:26 SP:FF CYC:120 SL:201
C7A8  AD 02 20  LDA $2002 = FF                  A:00 X:FF Y:00 P:26 SP:FF CYC:129 SL:201
C7AB  29 80     AND #$80                        A:10 X:FF Y:00 P:24 SP:FF CYC:141 SL:201
C7AD  F0 F9     BEQ $C7A8                       A:00 X:FF Y:00 P:26 SP:FF CYC:147 SL:201
C7A8  AD 02 20  LDA $2002 = FF                  A:00 X:FF Y:00 P:26 SP:FF CYC:156 SL:201
C7AB  29 80     AND #$80                        A:10 X:FF Y:00 P:24 SP:FF CYC:168 SL:201
C7AD  F0 F9     BEQ $C7A8                       A:00 X:FF Y:00 P:26 SP:FF CYC:174 SL:201
C7A8  AD 02 20  LDA $2002 = FF                  A:00 X:FF Y:00 P:26 SP:FF CYC:183 SL:201
C7AB  29 80     AND #$80                        A:10 X:FF Y:00 P:24 SP:FF CYC:195 SL:201
C7AD  F0 F9     BEQ $C7A8                       A:00 X:FF Y:00 P:26 SP:FF CYC:201 SL:201
C7A8  AD 02 20  LDA $2002 = FF                  A:00 X:FF Y:00 P:26 SP:FF CYC:210 SL:201
C7AB  29 80     AND #$80                        A:10 X:FF Y:00 P:24 SP:FF CYC:222 SL:201
C7AD  F0 F9     BEQ $C7A8                       A:00 X:FF Y:00 P:26 SP:FF CYC:228 SL:201
C7A8  AD 02 20  LDA $2002 = FF                  A:00 X:FF Y:00 P:26 SP:FF CYC:237 SL:201
C7AB  29 80     AND #$80                        A:10 X:FF Y:00 P:24 SP:FF CYC:249 SL:201
C7AD  F0 F9     BEQ $C7A8                       A:00 X:FF Y:00 P:26 SP:FF CYC:255 SL:201
C7A8  AD 02 20  LDA $2002 = FF                  A:00 X:FF Y:00 P:26 SP:FF CYC:264 SL:201
C7AB  29 80     AND #$80                        A:10 X:FF Y:00 P:24 SP:FF CYC:276 SL:201
C7AD  F0 F9     BEQ $C7A8                       A:00 X:FF Y:00 P:26 SP:FF CYC:282 SL:201
C7A8  AD 02 20  LDA $2002 = FF                  A:00 X:FF Y:00 P:26 SP:FF CYC:291 SL:201
C7AB  29 80     AND #$80                        A:10 X:FF Y:00 P:24 SP:FF CYC:303 SL:201
C7AD  F0 F9     BEQ $C7A8                       A:00 X:FF Y:00 P:26 SP:FF CYC:309 SL:201
C7A8  AD 02 20  LDA $2002 = FF                  A:00 X:FF Y:00 P:26 SP:FF CYC:318 SL:201
C7AB  29 80     AND #$80                        A:10 X:FF Y:00 P:24 SP:FF CYC:330 SL:201
C7AD  F0 F9     BEQ $C7A8                       A:00 X:FF Y:00 P:26 SP:FF CYC:336 SL:201
C7A8  AD 02 20  LDA $2002 = FF                  A:00 X:FF Y:00 P:26 SP:FF CYC:  4 SL:202
C7AB  29 80     AND #$80                        A:10 X:FF Y:00 P:24 SP:FF CYC: 16 SL:202
C7AD  F0 F9     BEQ $C7A8                       A:00 X:FF Y:00 P:26 SP:FF CYC: 22 SL:202
C7A8  AD 02 20  LDA $2002 = FF                  A:00 X:FF Y:00 P:26 SP:FF CYC: 31 SL:202
C7AB  29 80     AND #$80                        A:10 X:FF Y:00 P:24 SP:FF CYC: 43 SL:202
C7AD  F0 F9     BEQ $C7A8                       A:00 X:FF Y:00 P:26 SP:FF CYC: 49 SL:202
C7A8  AD 02 20  LDA $2002 = FF                  A:00 X:FF Y:00 P:26 SP:FF CYC: 58 SL:202
C7AB  29 80     AND #$80                        A:10 X:FF Y:00 P:24 SP:FF CYC: 70 SL:202
C7AD  F0 F9     BEQ $C7A8                       A:00 X:FF Y:00 P:26 SP:FF CYC: 76 SL:202
C7A8  AD 02 20  LDA $2002 = FF                  A:00 X:FF Y:00 P:26 SP:FF CYC: 85 SL:202
C7AB  29 80     AND #$80                        A:10 X:FF Y:00 P:24 SP:FF CYC: 97 SL:202
C7AD  F0 F9     BEQ $C7A8                       A:00 X:FF Y:00 P:26 SP:FF CYC:103 SL:202
C7A8  AD 02 20  LDA $2002 = FF                  A:00 X:FF Y:00 P:26 SP:FF CYC:112 SL:202
C7AB  29 80     AND #$80                        A:10 X:FF Y:00 P:24 SP:FF CYC:124 SL:202
C7AD  F0 F9     BEQ $C7A8                       A:00 X:FF Y:00 P:26 SP:FF CYC:130 SL:202
C7A8  AD 02 20  LDA $2002 = FF                  A:00 X:FF Y:00 P:26 SP:FF CYC:139 SL:202
C7AB  29 80     AND #$80                        A:10 X:FF Y:00 P:24 SP:FF CYC:151 SL:202
C7AD  F0 F9     BEQ $C7A8                       A:00 X:FF Y:00 P:26 SP:FF CYC:157 SL:202
C7A8  AD 02 20  LDA $2002 = FF                  A:00 X:FF Y:00 P:26 SP:FF CYC:166 SL:202
C7AB  29 80     AND #$80                        A:10 X:FF Y:00 P:24 SP:FF CYC:178 SL:202
C7AD  F0 F9     BEQ $C7A8                       A:00 X:FF Y:00 P:26 SP:FF CYC:184 SL:202
C7A8  AD 02 20  LDA $2002 = FF                  A:00 X:FF Y:00 P:26 SP:FF CYC:193 SL:202
C7AB  29 80     AND #$80                        A:10 X:FF Y:00 P:24 SP:FF CYC:205 SL:202
C7AD  F0 F9     BEQ $C7A8                       A:00 X:FF Y:00 P:26 SP:FF CYC:211 SL:202
C7A8  AD 02 20  LDA $2002 = FF                  A:00 X:FF Y:00 P:26 SP:FF CYC:220 SL:202
C7AB  29 80     AND #$80                        A:10 X:FF Y:00 P:24 SP:FF CYC:232 SL:202
C7AD  F0 F9     BEQ $C7A8                       A:00 X:FF Y:00 P:26 SP:FF CYC:238 SL:202
C7A8  AD 02 20  LDA $2002 = FF                  A:00 X:FF Y:00 P:26 SP:FF CYC:247 SL:202
C7AB  29 80     AND #$80                        A:10 X:FF Y:00 P:24 SP:FF CYC:259 SL:202
C7AD  F0 F9     BEQ $C7A8                       A:00 X:FF Y:00 P:26 SP:FF CYC:265 SL:202
C7A8  AD 02 20  LDA $2002 = FF                  A:00 X:FF Y:00 P:26 SP:FF CYC:274 SL:202
C7AB  29 80     AND #$80                        A:10 X:FF Y:00 P:24 SP:FF CYC:286 SL:202
C7AD  F0 F9     BEQ $C7A8                       A:00 X:FF Y:00 P:26 SP:FF CYC:292 SL:202
C7A8  AD 02 20  LDA $2002 = FF                  A:00 X:FF Y:00 P:26 SP:FF CYC:301 SL:202
C7AB  29 80     AND #$80                        A:10 X:FF Y:00 P:24 SP:FF CYC:313 SL:202
C7AD  F0 F9     BEQ $C7A8                       A:00 X:FF Y:00 P:26 SP:FF CYC:319 SL:202
C7A8  AD 02 20  LDA $2002 = FF                  A:00 X:FF Y:00 P:26 SP:FF CYC:328 SL:202
C7AB  29 80     AND #$80                        A:10 X:FF Y:00 P:24 SP:FF CYC:340 SL:202
C7AD  F0 F9     BEQ $C7A8                       A:00 X:FF Y:00 P:26 SP:FF CYC:  5 SL:203
C7A8  AD 02 20  LDA $2002 = FF                  A:00 X:FF Y:00 P:26 SP:FF CYC: 14 SL:203
C7AB  29 80     AND #$80                        A:10 X:FF Y:00 P:24 SP:FF CYC: 26 SL:203
C7AD  F0 F9     BEQ $C7A8                       A:00 X:FF Y:00 P:26 SP:FF CYC: 32 SL:203
C7A8  AD 02 20  LDA $2002 = FF                  A:00 X:FF Y:00 P:26 SP:FF CYC: 41 SL:203
C7AB  29 80     AND #$80                        A:10 X:FF Y:00 P:24 SP:FF CYC: 53 SL:203
C7AD  F0 F9     BEQ $C7A8                       A:00 X:FF Y:00 P:26 SP:FF CYC: 59 SL:203
C7A8  AD 02 20  LDA $2002 = FF                  A:00 X:FF Y:00 P:26 SP:FF CYC: 68 SL:203
C7AB  29 80     AND #$80                        A:10 X:FF Y:00 P:24 SP:FF CYC: 80 SL:203
C7AD  F0 F9     BEQ $C7A8                       A:00 X:FF Y:00 P:26 SP:FF CYC: 86 SL:203
C7A8  AD 02 20  LDA $2002 = FF                  A:00 X:FF Y:00 P:26 SP:FF CYC: 95 SL:203
C7AB  29 80     AND #$80                        A:10 X:FF Y:00 P:24 SP:FF CYC:107 SL:203
C7AD  F0 F9     BEQ $C7A8                       A:00 X:FF Y:00 P:26 SP:FF CYC:113 SL:203
C7A8  AD 02 20  LDA $2002 = FF                  A:00 X:FF Y:00 P:26 SP:FF CYC:122 SL:203
C7AB  29 80     AND #$80                        A:10 X:FF Y:00 P:24 SP:FF CYC:134 SL:203
C7AD  F0 F9     BEQ $C7A8                       A:00 X:FF Y:00 P:26 SP:FF CYC:140 SL:203
C7A8  AD 02 20  LDA $2002 = FF                  A:00 X:FF Y:00 P:26 SP:FF CYC:149 SL:203
C7AB  29 80     AND #$80                        A:10 X:FF Y:00 P:24 SP:FF CYC:161 SL:203
C7AD  F0 F9     BEQ $C7A8                       A:00 X:FF Y:00 P:26 SP:FF CYC:167 SL:203
C7A8  AD 02 20  LDA $2002 = FF                  A:00 X:FF Y:00 P:26 SP:FF CYC:176 SL:203
C7AB  29 80     AND #$80                        A:10 X:FF Y:00 P:24 SP:FF CYC:188 SL:203
C7AD  F0 F9     BEQ $C7A8                       A:00 X:FF Y:00 P:26 SP:FF CYC:194 SL:203
C7A8  AD 02 20  LDA $2002 = FF                  A:00 X:FF Y:00 P:26 SP:FF CYC:203 SL:203
C7AB  29 80     AND #$80                        A:10 X:FF Y:00 P:24 SP:FF CYC:215 SL:203
C7AD  F0 F9     BEQ $C7A8                       A:00 X:FF Y:00 P:26 SP:FF CYC:221 SL:203
C7A8  AD 02 20  LDA $2002 = FF                  A:00 X:FF Y:00 P:26 SP:FF CYC:230 SL:203
C7AB  29 80     AND #$80                        A:10 X:FF Y:00 P:24 SP:FF CYC:242 SL:203
C7AD  F0 F9     BEQ $C7A8                       A:00 X:FF Y:00 P:26 SP:FF CYC:248 SL:203
C7A8  AD 02 20  LDA $2002 = FF                  A:00 X:FF Y:00 P:26 SP:FF CYC:257 SL:203
C7AB  29 80     AND #$80                        A:10 X:FF Y:00 P:24 SP:FF CYC:269 SL:203
C7AD  F0 F9     BEQ $C7A8                       A:00 X:FF Y:00 P:26 SP:FF CYC:275 SL:203
C7A8  AD 02 20  LDA $2002 = FF                  A:00 X:FF Y:00 P:26 SP:FF CYC:284 SL:203
C7AB  29 80     AND #$80                        A:10 X:FF Y:00 P:24 SP:FF CYC:296 SL:203
C7AD  F0 F9     BEQ $C7A8                       A:00 X:FF Y:00 P:26 SP:FF CYC:302 SL:203
C7A8  AD 02 20  LDA $2002 = FF                  A:00 X:FF Y:00 P:26 SP:FF CYC:311 SL:203
C7AB  29 80     AND #$80                        A:10 X:FF Y:00 P:24 SP:FF CYC:323 SL:203
C7AD  F0 F9     BEQ $C7A8                       A:00 X:FF Y:00 P:26 SP:FF CYC:329 SL:203
C7A8  AD 02 20  LDA $2002 = FF                  A:00 X:FF Y:00 P:26 SP:FF CYC:338 SL:203
C7AB  29 80     AND #$80                        A:10 X:FF Y:00 P:24 SP:FF CYC:  9 SL:204
C7AD  F0 F9     BEQ $C7A8                       A:00 X:FF Y:00 P:26 SP:FF CYC: 15 SL:204
C7A8  AD 02 20  LDA $2002 = FF                  A:00 X:FF Y:00 P:26 SP:FF CYC: 24 SL:204
C7AB  29 80     AND #$80                        A:10 X:FF Y:00 P:24 SP:FF CYC: 36 SL:204
C7AD  F0 F9     BEQ $C7A8                       A:00 X:FF Y:00 P:26 SP:FF CYC: 42 SL:204
C7A8  AD 02 20  LDA $2002 = FF                  A:00 X:FF Y:00 P:26 SP:FF CYC: 51 SL:204
C7AB  29 80     AND #$80                        A:10 X:FF Y:00 P:24 SP:FF CYC: 63 SL:204
C7AD  F0 F9     BEQ $C7A8                       A:00 X:FF Y:00 P:26 SP:FF CYC: 69 SL:204
C7A8  AD 02 20  LDA $2002 = FF                  A:00 X:FF Y:00 P:26 SP:FF CYC: 78 SL:204
C7AB  29 80     AND #$80                        A:10 X:FF Y:00 P:24 SP:FF CYC: 90 SL:204
C7AD  F0 F9     BEQ $C7A8                       A:00 X:FF Y:00 P:26 SP:FF CYC: 96 SL:204
C7A8  AD 02 20  LDA $2002 = FF                  A:00 X:FF Y:00 P:26 SP:FF CYC:105 SL:204
C7AB  29 80     AND #$80                        A:10 X:FF Y:00 P:24 SP:FF CYC:117 SL:204
C7AD  F0 F9     BEQ $C7A8                       A:00 X:FF Y:00 P:26 SP:FF CYC:123 SL:204
C7A8  AD 02 20  LDA $2002 = FF                  A:00 X:FF Y:00 P:26 SP:FF CYC:132 SL:204
C7AB  29 80     AND #$80                        A:10 X:FF Y:00 P:24 SP:FF CYC:144 SL:204
C7AD  F0 F9     BEQ $C7A8                       A:00 X:FF Y:00 P:26 SP:FF CYC:150 SL:204
C7A8  AD 02 20  LDA $2002 = FF                  A:00 X:FF Y:00 P:26 SP:FF CYC:159 SL:204
C7AB  29 80     AND #$80                        A:10 X:FF Y:00 P:24 SP:FF CYC:171 SL:204
C7AD  F0 F9     BEQ $C7A8                       A:00 X:FF Y:00 P:26 SP:FF CYC:177 SL:204
C7A8  AD 02 20  LDA $2002 = FF                  A:00 X:FF Y:00 P:26 SP:FF CYC:186 SL:204
C7AB  29 80     AND #$80                        A:10 X:FF Y:00 P:24 SP:FF CYC:198 SL:204
C7AD  F0 F9     BEQ $C7A8                       A:00 X:FF Y:00 P:26 SP:FF CYC:204 SL:204
C7A8  AD 02 20  LDA $2002 = FF                  A:00 X:FF Y:00 P:26 SP:FF CYC:213 SL:204
C7AB  29 80     AND #$80                        A:10 X:FF Y:00 P:24 SP:FF CYC:225 SL:204
C7AD  F0 F9     BEQ $C7A8                       A:00 X:FF Y:00 P:26 SP:FF CYC:231 SL:204
C7A8  AD 02 20  LDA $2002 = FF                  A:00 X:FF Y:00 P:26 SP:FF CYC:240 SL:204
C7AB  29 80     AND #$80                        A:10 X:FF Y:00 P:24 SP:FF CYC:252 SL:204
C7AD  F0 F9     BEQ $C7A8                       A:00 X:FF Y:00 P:26 SP:FF CYC:258 SL:204
C7A8  AD 02 20  LDA $2002 = FF                  A:00 X:FF Y:00 P:26 SP:FF CYC:267 SL:204
C7AB  29 80     AND #$80                        A:10 X:FF Y:00 P:24 SP:FF CYC:279 SL:204
C7AD  F0 F9     BEQ $C7A8                       A:00 X:FF Y:00 P:26 SP:FF CYC:285 SL:204
C7A8  AD 02 20  LDA $2002 = FF                  A:00 X:FF Y:00 P:26 SP:FF CYC:294 SL:204
C7AB  29 80     AND #$80                        A:10 X:FF Y:00 P:24 SP:FF CYC:306 SL:204
C7AD  F0 F9     BEQ $C7A8                       A:00 X:FF Y:00 P:26 SP:FF CYC:312 SL:204
C7A8  AD 02 20  LDA $2002 = FF                  A:00 X:FF Y:00 P:26 SP:FF CYC:321 SL:204
C7AB  29 80     AND #$80                        A:10 X:FF Y:00 P:24 SP:FF CYC:333 SL:204
C7AD  F0 F9     BEQ $C7A8                       A:00 X:FF Y:00 P:26 SP:FF CYC:339 SL:204
C7A8  AD 02 20  LDA $2002 = FF                  A:00 X:FF Y:00 P:26 SP:FF CYC:  7 SL:205
C7AB  29 80     AND #$80                        A:10 X:FF Y:00 P:24 SP:FF CYC: 19 SL:205
C7AD  F0 F9     BEQ $C7A8                       A:00 X:FF Y:00 P:26 SP:FF CYC: 25 SL:205
C7A8  AD 02 20  LDA $2002 = FF                  A:00 X:FF Y:00 P:26 SP:FF CYC: 34 SL:205
C7AB  29 80     AND #$80                        A:10 X:FF Y:00 P:24 SP:FF CYC: 46 SL:205
C7AD  F0 F9     BEQ $C7A8                       A:00 X:FF Y:00 P:26 SP:FF CYC: 52 SL:205
C7A8  AD 02 20  LDA $2002 = FF                  A:00 X:FF Y:00 P:26 SP:FF CYC: 61 SL:205
C7AB  29 80     AND #$80                        A:10 X:FF Y:00 P:24 SP:FF CYC: 73 SL:205
C7AD  F0 F9     BEQ $C7A8                       A:00 X:FF Y:00 P:26 SP:FF CYC: 79 SL:205
C7A8  AD 02 20  LDA $2002 = FF                  A:00 X:FF Y:00 P:26 SP:FF CYC: 88 SL:205
C7AB  29 80     AND #$80                        A:10 X:FF Y:00 P:24 SP:FF CYC:100 SL:205
C7AD  F0 F9     BEQ $C7A8                       A:00 X:FF Y:00 P:26 SP:FF CYC:106 SL:205
C7A8  AD 02 20  LDA $2002 = FF                  A:00 X:FF Y:00 P:26 SP:FF CYC:115 SL:205
C7AB  29 80     AND #$80                        A:10 X:FF Y:00 P:24 SP:FF CYC:127 SL:205
C7AD  F0 F9     BEQ $C7A8                       A:00 X:FF Y:00 P:26 SP:FF CYC:133 SL:205
C7A8  AD 02 20  LDA $2002 = FF                  A:00 X:FF Y:00 P:26 SP:FF CYC:142 SL:205
C7AB  29 80     AND #$80                        A:10 X:FF Y:00 P:24 SP:FF CYC:154 SL:205
C7AD  F0 F9     BEQ $C7A8                       A:00 X:FF Y:00 P:26 SP:FF CYC:160 SL:205
C7A8  AD 02 20  LDA $2002 = FF                  A:00 X:FF Y:00 P:26 SP:FF CYC:169 SL:205
C7AB  29 80     AND #$80                        A:10 X:FF Y:00 P:24 SP:FF CYC:181 SL:205
C7AD  F0 F9     BEQ $C7A8                       A:00 X:FF Y:00 P:26 SP:FF CYC:187 SL:205
C7A8  AD 02 20  LDA $2002 = FF                  A:00 X:FF Y:00 P:26 SP:FF CYC:196 SL:205
C7AB  29 80     AND #$80                        A:10 X:FF Y:00 P:24 SP:FF CYC:208 SL:205
C7AD  F0 F9     BEQ $C7A8                       A:00 X:FF Y:00 P:26 SP:FF CYC:214 SL:205
C7A8  AD 02 20  LDA $2002 = FF                  A:00 X:FF Y:00 P:26 SP:FF CYC:223 SL:205
C7AB  29 80     AND #$80                        A:10 X:FF Y:00 P:24 SP:FF CYC:235 SL:205
C7AD  F0 F9     BEQ $C7A8                       A:00 X:FF Y:00 P:26 SP:FF CYC:241 SL:205
C7A8  AD 02 20  LDA $2002 = FF                  A:00 X:FF Y:00 P:26 SP:FF CYC:250 SL:205
C7AB  29 80     AND #$80                        A:10 X:FF Y:00 P:24 SP:FF CYC:262 SL:205
C7AD  F0 F9     BEQ $C7A8                       A:00 X:FF Y:00 P:26 SP:FF CYC:268 SL:205
C7A8  AD 02 20  LDA $2002 = FF                  A:00 X:FF Y:00 P:26 SP:FF CYC:277 SL:205
C7AB  29 80     AND #$80                        A:10 X:FF Y:00 P:24 SP:FF CYC:289 SL:205
C7AD  F0 F9     BEQ $C7A8                       A:00 X:FF Y:00 P:26 SP:FF CYC:295 SL:205
C7A8  AD 02 20  LDA $2002 = FF                  A:00 X:FF Y:00 P:26 SP:FF CYC:304 SL:205
C7AB  29 80     AND #$80                        A:10 X:FF Y:00 P:24 SP:FF CYC:316 SL:205
C7AD  F0 F9     BEQ $C7A8                       A:00 X:FF Y:00 P:26 SP:FF CYC:322 SL:205
C7A8  AD 02 20  LDA $2002 = FF                  A:00 X:FF Y:00 P:26 SP:FF CYC:331 SL:205
C7AB  29 80     AND #$80                        A:10 X:FF Y:00 P:24 SP:FF CYC:  2 SL:206
C7AD  F0 F9     BEQ $C7A8                       A:00 X:FF Y:00 P:26 SP:FF CYC:  8 SL:206
C7A8  AD 02 20  LDA $2002 = FF                  A:00 X:FF Y:00 P:26 SP:FF CYC: 17 SL:206
C7AB  29 80     AND #$80                        A:10 X:FF Y:00 P:24 SP:FF CYC: 29 SL:206
C7AD  F0 F9     BEQ $C7A8                       A:00 X:FF Y:00 P:26 SP:FF CYC: 35 SL:206
C7A8  AD 02 20  LDA $2002 = FF                  A:00 X:FF Y:00 P:26 SP:FF CYC: 44 SL:206
C7AB  29 80     AND #$80                        A:10 X:FF Y:00 P:24 SP:FF CYC: 56 SL:206
C7AD  F0 F9     BEQ $C7A8                       A:00 X:FF Y:00 P:26 SP:FF CYC: 62 SL:206
C7A8  AD 02 20  LDA $2002 = FF                  A:00 X:FF Y:00 P:26 SP:FF CYC: 71 SL:206
C7AB  29 80     AND #$80                        A:10 X:FF Y:00 P:24 SP:FF CYC: 83 SL:206
C7AD  F0 F9     BEQ $C7A8                       A:00 X:FF Y:00 P:26 SP:FF CYC: 89 SL:206
C7A8  AD 02 20  LDA $2002 = FF                  A:00 X:FF Y:00 P:26 SP:FF CYC: 98 SL:206
C7AB  29 80     AND #$80                        A:10 X:FF Y:00 P:24 SP:FF CYC:110 SL:206
C7AD  F0 F9     BEQ $C7A8                       A:00 X:FF Y:00 P:26 SP:FF CYC:116 SL:206
C7A8  AD 02 20  LDA $2002 = FF                  A:00 X:FF Y:00 P:26 SP:FF CYC:125 SL:206
C7AB  29 80     AND #$80                        A:10 X:FF Y:00 P:24 SP:FF CYC:137 SL:206
C7AD  F0 F9     BEQ $C7A8                       A:00 X:FF Y:00 P:26 SP:FF CYC:143 SL:206
C7A8  AD 02 20  LDA $2002 = FF                  A:00 X:FF Y:00 P:26 SP:FF CYC:152 SL:206
C7AB  29 80     AND #$80                        A:10 X:FF Y:00 P:24 SP:FF CYC:164 SL:206
C7AD  F0 F9     BEQ $C7A8                       A:00 X:FF Y:00 P:26 SP:FF CYC:170 SL:206
C7A8  AD 02 20  LDA $2002 = FF                  A:00 X:FF Y:00 P:26 SP:FF CYC:179 SL:206
C7AB  29 80     AND #$80                        A:10 X:FF Y:00 P:24 SP:FF CYC:191 SL:206
C7AD  F0 F9     BEQ $C7A8                       A:00 X:FF Y:00 P:26 SP:FF CYC:197 SL:206
C7A8  AD 02 20  LDA $2002 = FF                  A:00 X:FF Y:00 P:26 SP:FF CYC:206 SL:206
C7AB  29 80     AND #$80                        A:10 X:FF Y:00 P:24 SP:FF CYC:218 SL:206
C7AD  F0 F9     BEQ $C7A8                       A:00 X:FF Y:00 P:26 SP:FF CYC:224 SL:206
C7A8  AD 02 20  LDA $2002 = FF                  A:00 X:FF Y:00 P:26 SP:FF CYC:233 SL:206
C7AB  29 80     AND #$80                        A:10 X:FF Y:00 P:24 SP:FF CYC:245 SL:206
C7AD  F0 F9     BEQ $C7A8                       A:00 X:FF Y:00 P:26 SP:FF CYC:251 SL:206
C7A8  AD 02 20  LDA $2002 = FF                  A:00 X:FF Y:00 P:26 SP:FF CYC:260 SL:206
C7AB  29 80     AND #$80                        A:10 X:FF Y:00 P:24 SP:FF CYC:272 SL:206
C7AD  F0 F9     BEQ $C7A8                       A:00 X:FF Y:00 P:26 SP:FF CYC:278 SL:206
C7A8  AD 02 20  LDA $2002 = FF                  A:00 X:FF Y:00 P:26 SP:FF CYC:287 SL:206
C7AB  29 80     AND #$80                        A:10 X:FF Y:00 P:24 SP:FF CYC:299 SL:206
C7AD  F0 F9     BEQ $C7A8                       A:00 X:FF Y:00 P:26 SP:FF CYC:305 SL:206
C7A8  AD 02 20  LDA $2002 = FF                  A:00 X:FF Y:00 P:26 SP:FF CYC:314 SL:206
C7AB  29 80     AND #$80                        A:10 X:FF Y:00 P:24 SP:FF CYC:326 SL:206
C7AD  F0 F9     BEQ $C7A8                       A:00 X:FF Y:00 P:26 SP:FF CYC:332 SL:206
C7A8  AD 02 20  LDA $2002 = FF                  A:00 X:FF Y:00 P:26 SP:FF CYC:  0 SL:207
C7AB  29 80     AND #$80                        A:10 X:FF Y:00 P:24 SP:FF CYC: 12 SL:207
C7AD  F0 F9     BEQ $C7A8                       A:00 X:FF Y:00 P:26 SP:FF CYC: 18 SL:207
C7A8  AD 02 20  LDA $2002 = FF                  A:00 X:FF Y:00 P:26 SP:FF CYC: 27 SL:207
C7AB  29 80     AND #$80                        A:10 X:FF Y:00 P:24 SP:FF CYC: 39 SL:207
C7AD  F0 F9     BEQ $C7A8                       A:00 X:FF Y:00 P:26 SP:FF CYC: 45 SL:207
C7A8  AD 02 20  LDA $2002 = FF                  A:00 X:FF Y:00 P:26 SP:FF CYC: 54 SL:207
C7AB  29 80     AND #$80                        A:10 X:FF Y:00 P:24 SP:FF CYC: 66 SL:207
C7AD  F0 F9     BEQ $C7A8                       A:00 X:FF Y:00 P:26 SP:FF CYC: 72 SL:207
C7A8  AD 02 20  LDA $2002 = FF                  A:00 X:FF Y:00 P:26 SP:FF CYC: 81 SL:207
C7AB  29 80     AND #$80                        A:10 X:FF Y:00 P:24 SP:FF CYC: 93 SL:207
C7AD  F0 F9     BEQ $C7A8                       A:00 X:FF Y:00 P:26 SP:FF CYC: 99 SL:207
C7A8  AD 02 20  LDA $2002 = FF                  A:00 X:FF Y:00 P:26 SP:FF CYC:108 SL:207
C7AB  29 80     AND #$80                        A:10 X:FF Y:00 P:24 SP:FF CYC:120 SL:207
C7AD  F0 F9     BEQ $C7A8                       A:00 X:FF Y:00 P:26 SP:FF CYC:126 SL:207
C7A8  AD 02 20  LDA $2002 = FF                  A:00 X:FF Y:00 P:26 SP:FF CYC:135 SL:207
C7AB  29 80     AND #$80                        A:10 X:FF Y:00 P:24 SP:FF CYC:147 SL:207
C7AD  F0 F9     BEQ $C7A8                       A:00 X:FF Y:00 P:26 SP:FF CYC:153 SL:207
C7A8  AD 02 20  LDA $2002 = FF                  A:00 X:FF Y:00 P:26 SP:FF CYC:162 SL:207
C7AB  29 80     AND #$80                        A:10 X:FF Y:00 P:24 SP:FF CYC:174 SL:207
C7AD  F0 F9     BEQ $C7A8                       A:00 X:FF Y:00 P:26 SP:FF CYC:180 SL:207
C7A8  AD 02 20  LDA $2002 = FF                  A:00 X:FF Y:00 P:26 SP:FF CYC:189 SL:207
C7AB  29 80     AND #$80                        A:10 X:FF Y:00 P:24 SP:FF CYC:201 SL:207
C7AD  F0 F9     BEQ $C7A8                       A:00 X:FF Y:00 P:26 SP:FF CYC:207 SL:207
C7A8  AD 02 20  LDA $2002 = FF                  A:00 X:FF Y:00 P:26 SP:FF CYC:216 SL:207
C7AB  29 80     AND #$80                        A:10 X:FF Y:00 P:24 SP:FF CYC:228 SL:207
C7AD  F0 F9     BEQ $C7A8                       A:00 X:FF Y:00 P:26 SP:FF CYC:234 SL:207
C7A8  AD 02 20  LDA $2002 = FF                  A:00 X:FF Y:00 P:26 SP:FF CYC:243 SL:207
C7AB  29 80     AND #$80                        A:10 X:FF Y:00 P:24 SP:FF CYC:255 SL:207
C7AD  F0 F9     BEQ $C7A8                       A:00 X:FF Y:00 P:26 SP:FF CYC:261 SL:207
C7A8  AD 02 20  LDA $2002 = FF                  A:00 X:FF Y:00 P:26 SP:FF CYC:270 SL:207
C7AB  29 80     AND #$80                        A:10 X:FF Y:00 P:24 SP:FF CYC:282 SL:207
C7AD  F0 F9     BEQ $C7A8                       A:00 X:FF Y:00 P:26 SP:FF CYC:288 SL:207
C7A8  AD 02 20  LDA $2002 = FF                  A:00 X:FF Y:00 P:26 SP:FF CYC:297 SL:207
C7AB  29 80     AND #$80                        A:10 X:FF Y:00 P:24 SP:FF CYC:309 SL:207
C7AD  F0 F9     BEQ $C7A8                       A:00 X:FF Y:00 P:26 SP:FF CYC:315 SL:207
C7A8  AD 02 20  LDA $2002 = FF                  A:00 X:FF Y:00 P:26 SP:FF CYC:324 SL:207
C7AB  29 80     AND #$80                        A:10 X:FF Y:00 P:24 SP:FF CYC:336 SL:207
C7AD  F0 F9     BEQ $C7A8                       A:00 X:FF Y:00 P:26 SP:FF CYC:  1 SL:208
C7A8  AD 02 20  LDA $2002 = FF                  A:00 X:FF Y:00 P:26 SP:FF CYC: 10 SL:208
C7AB  29 80     AND #$80                        A:10 X:FF Y:00 P:24 SP:FF CYC: 22 SL:208
C7AD  F0 F9     BEQ $C7A8                       A:00 X:FF Y:00 P:26 SP:FF CYC: 28 SL:208
C7A8  AD 02 20  LDA $2002 = FF                  A:00 X:FF Y:00 P:26 SP:FF CYC: 37 SL:208
C7AB  29 80     AND #$80                        A:10 X:FF Y:00 P:24 SP:FF CYC: 49 SL:208
C7AD  F0 F9     BEQ $C7A8                       A:00 X:FF Y:00 P:26 SP:FF CYC: 55 SL:208
C7A8  AD 02 20  LDA $2002 = FF                  A:00 X:FF Y:00 P:26 SP:FF CYC: 64 SL:208
C7AB  29 80     AND #$80                        A:10 X:FF Y:00 P:24 SP:FF CYC: 76 SL:208
C7AD  F0 F9     BEQ $C7A8                       A:00 X:FF Y:00 P:26 SP:FF CYC: 82 SL:208
C7A8  AD 02 20  LDA $2002 = FF                  A:00 X:FF Y:00 P:26 SP:FF CYC: 91 SL:208
C7AB  29 80     AND #$80                        A:10 X:FF Y:00 P:24 SP:FF CYC:103 SL:208
C7AD  F0 F9     BEQ $C7A8                       A:00 X:FF Y:00 P:26 SP:FF CYC:109 SL:208
C7A8  AD 02 20  LDA $2002 = FF                  A:00 X:FF Y:00 P:26 SP:FF CYC:118 SL:208
C7AB  29 80     AND #$80                        A:10 X:FF Y:00 P:24 SP:FF CYC:130 SL:208
C7AD  F0 F9     BEQ $C7A8                       A:00 X:FF Y:00 P:26 SP:FF CYC:136 SL:208
C7A8  AD 02 20  LDA $2002 = FF                  A:00 X:FF Y:00 P:26 SP:FF CYC:145 SL:208
C7AB  29 80     AND #$80                        A:10 X:FF Y:00 P:24 SP:FF CYC:157 SL:208
C7AD  F0 F9     BEQ $C7A8                       A:00 X:FF Y:00 P:26 SP:FF CYC:163 SL:208
C7A8  AD 02 20  LDA $2002 = FF                  A:00 X:FF Y:00 P:26 SP:FF CYC:172 SL:208
C7AB  29 80     AND #$80                        A:10 X:FF Y:00 P:24 SP:FF CYC:184 SL:208
C7AD  F0 F9     BEQ $C7A8                       A:00 X:FF Y:00 P:26 SP:FF CYC:190 SL:208
C7A8  AD 02 20  LDA $2002 = FF                  A:00 X:FF Y:00 P:26 SP:FF CYC:199 SL:208
C7AB  29 80     AND #$80                        A:10 X:FF Y:00 P:24 SP:FF CYC:211 SL:208
C7AD  F0 F9     BEQ $C7A8                       A:00 X:FF Y:00 P:26 SP:FF CYC:217 SL:208
C7A8  AD 02 20  LDA $2002 = FF                  A:00 X:FF Y:00 P:26 SP:FF CYC:226 SL:208
C7AB  29 80     AND #$80                        A:10 X:FF Y:00 P:24 SP:FF CYC:238 SL:208
C7AD  F0 F9     BEQ $C7A8                       A:00 X:FF Y:00 P:26 SP:FF CYC:244 SL:208
C7A8  AD 02 20  LDA $2002 = FF                  A:00 X:FF Y:00 P:26 SP:FF CYC:253 SL:208
C7AB  29 80     AND #$80                        A:10 X:FF Y:00 P:24 SP:FF CYC:265 SL:208
C7AD  F0 F9     BEQ $C7A8                       A:00 X:FF Y:00 P:26 SP:FF CYC:271 SL:208
C7A8  AD 02 20  LDA $2002 = FF                  A:00 X:FF Y:00 P:26 SP:FF CYC:280 SL:208
C7AB  29 80     AND #$80                        A:10 X:FF Y:00 P:24 SP:FF CYC:292 SL:208
C7AD  F0 F9     BEQ $C7A8                       A:00 X:FF Y:00 P:26 SP:FF CYC:298 SL:208
C7A8  AD 02 20  LDA $2002 = FF                  A:00 X:FF Y:00 P:26 SP:FF CYC:307 SL:208
C7AB  29 80     AND #$80                        A:10 X:FF Y:00 P:24 SP:FF CYC:319 SL:208
C7AD  F0 F9     BEQ $C7A8                       A:00 X:FF Y:00 P:26 SP:FF CYC:325 SL:208
C7A8  AD 02 20  LDA $2002 = FF                  A:00 X:FF Y:00 P:26 SP:FF CYC:334 SL:208
C7AB  29 80     AND #$80                        A:10 X:FF Y:00 P:24 SP:FF CYC:  5 SL:209
C7AD  F0 F9     BEQ $C7A8                       A:00 X:FF Y:00 P:26 SP:FF CYC: 11 SL:209
C7A8  AD 02 20  LDA $2002 = FF                  A:00 X:FF Y:00 P:26 SP:FF CYC: 20 SL:209
C7AB  29 80     AND #$80                        A:10 X:FF Y:00 P:24 SP:FF CYC: 32 SL:209
C7AD  F0 F9     BEQ $C7A8                       A:00 X:FF Y:00 P:26 SP:FF CYC: 38 SL:209
C7A8  AD 02 20  LDA $2002 = FF                  A:00 X:FF Y:00 P:26 SP:FF CYC: 47 SL:209
C7AB  29 80     AND #$80                        A:10 X:FF Y:00 P:24 SP:FF CYC: 59 SL:209
C7AD  F0 F9     BEQ $C7A8                       A:00 X:FF Y:00 P:26 SP:FF CYC: 65 SL:209
C7A8  AD 02 20  LDA $2002 = FF                  A:00 X:FF Y:00 P:26 SP:FF CYC: 74 SL:209
C7AB  29 80     AND #$80                        A:10 X:FF Y:00 P:24 SP:FF CYC: 86 SL:209
C7AD  F0 F9     BEQ $C7A8                       A:00 X:FF Y:00 P:26 SP:FF CYC: 92 SL:209
C7A8  AD 02 20  LDA $2002 = FF                  A:00 X:FF Y:00 P:26 SP:FF CYC:101 SL:209
C7AB  29 80     AND #$80                        A:10 X:FF Y:00 P:24 SP:FF CYC:113 SL:209
C7AD  F0 F9     BEQ $C7A8                       A:00 X:FF Y:00 P:26 SP:FF CYC:119 SL:209
C7A8  AD 02 20  LDA $2002 = FF                  A:00 X:FF Y:00 P:26 SP:FF CYC:128 SL:209
C7AB  29 80     AND #$80                        A:10 X:FF Y:00 P:24 SP:FF CYC:140 SL:209
C7AD  F0 F9     BEQ $C7A8                       A:00 X:FF Y:00 P:26 SP:FF CYC:146 SL:209
C7A8  AD 02 20  LDA $2002 = FF                  A:00 X:FF Y:00 P:26 SP:FF CYC:155 SL:209
C7AB  29 80     AND #$80                        A:10 X:FF Y:00 P:24 SP:FF CYC:167 SL:209
C7AD  F0 F9     BEQ $C7A8                       A:00 X:FF Y:00 P:26 SP:FF CYC:173 SL:209
C7A8  AD 02 20  LDA $2002 = FF                  A:00 X:FF Y:00 P:26 SP:FF CYC:182 SL:209
C7AB  29 80     AND #$80                        A:10 X:FF Y:00 P:24 SP:FF CYC:194 SL:209
C7AD  F0 F9     BEQ $C7A8                       A:00 X:FF Y:00 P:26 SP:FF CYC:200 SL:209
C7A8  AD 02 20  LDA $2002 = FF                  A:00 X:FF Y:00 P:26 SP:FF CYC:209 SL:209
C7AB  29 80     AND #$80                        A:10 X:FF Y:00 P:24 SP:FF CYC:221 SL:209
C7AD  F0 F9     BEQ $C7A8                       A:00 X:FF Y:00 P:26 SP:FF CYC:227 SL:209
C7A8  AD 02 20  LDA $2002 = FF                  A:00 X:FF Y:00 P:26 SP:FF CYC:236 SL:209
C7AB  29 80     AND #$80                        A:10 X:FF Y:00 P:24 SP:FF CYC:248 SL:209
C7AD  F0 F9     BEQ $C7A8                       A:00 X:FF Y:00 P:26 SP:FF CYC:254 SL:209
C7A8  AD 02 20  LDA $2002 = FF                  A:00 X:FF Y:00 P:26 SP:FF CYC:263 SL:209
C7AB  29 80     AND #$80                        A:10 X:FF Y:00 P:24 SP:FF CYC:275 SL:209
C7AD  F0 F9     BEQ $C7A8                       A:00 X:FF Y:00 P:26 SP:FF CYC:281 SL:209
C7A8  AD 02 20  LDA $2002 = FF                  A:00 X:FF Y:00 P:26 SP:FF CYC:290 SL:209
C7AB  29 80     AND #$80                        A:10 X:FF Y:00 P:24 SP:FF CYC:302 SL:209
C7AD  F0 F9     BEQ $C7A8                       A:00 X:FF Y:00 P:26 SP:FF CYC:308 SL:209
C7A8  AD 02 20  LDA $2002 = FF                  A:00 X:FF Y:00 P:26 SP:FF CYC:317 SL:209
C7AB  29 80     AND #$80                        A:10 X:FF Y:00 P:24 SP:FF CYC:329 SL:209
C7AD  F0 F9     BEQ $C7A8                       A:00 X:FF Y:00 P:26 SP:FF CYC:335 SL:209
C7A8  AD 02 20  LDA $2002 = FF                  A:00 X:FF Y:00 P:26 SP:FF CYC:  3 SL:210
C7AB  29 80     AND #$80                        A:10 X:FF Y:00 P:24 SP:FF CYC: 15 SL:210
C7AD  F0 F9     BEQ $C7A8                       A:00 X:FF Y:00 P:26 SP:FF CYC: 21 SL:210
C7A8  AD 02 20  LDA $2002 = FF                  A:00 X:FF Y:00 P:26 SP:FF CYC: 30 SL:210
C7AB  29 80     AND #$80                        A:10 X:FF Y:00 P:24 SP:FF CYC: 42 SL:210
C7AD  F0 F9     BEQ $C7A8                       A:00 X:FF Y:00 P:26 SP:FF CYC: 48 SL:210
C7A8  AD 02 20  LDA $2002 = FF                  A:00 X:FF Y:00 P:26 SP:FF CYC: 57 SL:210
C7AB  29 80     AND #$80                        A:10 X:FF Y:00 P:24 SP:FF CYC: 69 SL:210
C7AD  F0 F9     BEQ $C7A8                       A:00 X:FF Y:00 P:26 SP:FF CYC: 75 SL:210
C7A8  AD 02 20  LDA $2002 = FF                  A:00 X:FF Y:00 P:26 SP:FF CYC: 84 SL:210
C7AB  29 80     AND #$80                        A:10 X:FF Y:00 P:24 SP:FF CYC: 96 SL:210
C7AD  F0 F9     BEQ $C7A8                       A:00 X:FF Y:00 P:26 SP:FF CYC:102 SL:210
C7A8  AD 02 20  LDA $2002 = FF                  A:00 X:FF Y:00 P:26 SP:FF CYC:111 SL:210
C7AB  29 80     AND #$80                        A:10 X:FF Y:00 P:24 SP:FF CYC:123 SL:210
C7AD  F0 F9     BEQ $C7A8                       A:00 X:FF Y:00 P:26 SP:FF CYC:129 SL:210
C7A8  AD 02 20  LDA $2002 = FF                  A:00 X:FF Y:00 P:26 SP:FF CYC:138 SL:210
C7AB  29 80     AND #$80                        A:10 X:FF Y:00 P:24 SP:FF CYC:150 SL:210
C7AD  F0 F9     BEQ $C7A8                       A:00 X:FF Y:00 P:26 SP:FF CYC:156 SL:210
C7A8  AD 02 20  LDA $2002 = FF                  A:00 X:FF Y:00 P:26 SP:FF CYC:165 SL:210
C7AB  29 80     AND #$80                        A:10 X:FF Y:00 P:24 SP:FF CYC:177 SL:210
C7AD  F0 F9     BEQ $C7A8                       A:00 X:FF Y:00 P:26 SP:FF CYC:183 SL:210
C7A8  AD 02 20  LDA $2002 = FF                  A:00 X:FF Y:00 P:26 SP:FF CYC:192 SL:210
C7AB  29 80     AND #$80                        A:10 X:FF Y:00 P:24 SP:FF CYC:204 SL:210
C7AD  F0 F9     BEQ $C7A8                       A:00 X:FF Y:00 P:26 SP:FF CYC:210 SL:210
C7A8  AD 02 20  LDA $2002 = FF                  A:00 X:FF Y:00 P:26 SP:FF CYC:219 SL:210
C7AB  29 80     AND #$80                        A:10 X:FF Y:00 P:24 SP:FF CYC:231 SL:210
C7AD  F0 F9     BEQ $C7A8                       A:00 X:FF Y:00 P:26 SP:FF CYC:237 SL:210
C7A8  AD 02 20  LDA $2002 = FF                  A:00 X:FF Y:00 P:26 SP:FF CYC:246 SL:210
C7AB  29 80     AND #$80                        A:10 X:FF Y:00 P:24 SP:FF CYC:258 SL:210
C7AD  F0 F9     BEQ $C7A8                       A:00 X:FF Y:00 P:26 SP:FF CYC:264 SL:210
C7A8  AD 02 20  LDA $2002 = FF                  A:00 X:FF Y:00 P:26 SP:FF CYC:273 SL:210
C7AB  29 80     AND #$80                        A:10 X:FF Y:00 P:24 SP:FF CYC:285 SL:210
C7AD  F0 F9     BEQ $C7A8                       A:00 X:FF Y:00 P:26 SP:FF CYC:291 SL:210
C7A8  AD 02 20  LDA $2002 = FF                  A:00 X:FF Y:00 P:26 SP:FF CYC:300 SL:210
C7AB  29 80     AND #$80                        A:10 X:FF Y:00 P:24 SP:FF CYC:312 SL:210
C7AD  F0 F9     BEQ $C7A8                       A:00 X:FF Y:00 P:26 SP:FF CYC:318 SL:210
C7A8  AD 02 20  LDA $2002 = FF                  A:00 X:FF Y:00 P:26 SP:FF CYC:327 SL:210
C7AB  29 80     AND #$80                        A:10 X:FF Y:00 P:24 SP:FF CYC:339 SL:210
C7AD  F0 F9     BEQ $C7A8                       A:00 X:FF Y:00 P:26 SP:FF CYC:  4 SL:211
C7A8  AD 02 20  LDA $2002 = FF                  A:00 X:FF Y:00 P:26 SP:FF CYC: 13 SL:211
C7AB  29 80     AND #$80                        A:10 X:FF Y:00 P:24 SP:FF CYC: 25 SL:211
C7AD  F0 F9     BEQ $C7A8                       A:00 X:FF Y:00 P:26 SP:FF CYC: 31 SL:211
C7A8  AD 02 20  LDA $2002 = FF                  A:00 X:FF Y:00 P:26 SP:FF CYC: 40 SL:211
C7AB  29 80     AND #$80                        A:10 X:FF Y:00 P:24 SP:FF CYC: 52 SL:211
C7AD  F0 F9     BEQ $C7A8                       A:00 X:FF Y:00 P:26 SP:FF CYC: 58 SL:211
C7A8  AD 02 20  LDA $2002 = FF                  A:00 X:FF Y:00 P:26 SP:FF CYC: 67 SL:211
C7AB  29 80     AND #$80                        A:10 X:FF Y:00 P:24 SP:FF CYC: 79 SL:211
C7AD  F0 F9     BEQ $C7A8                       A:00 X:FF Y:00 P:26 SP:FF CYC: 85 SL:211
C7A8  AD 02 20  LDA $2002 = FF                  A:00 X:FF Y:00 P:26 SP:FF CYC: 94 SL:211
C7AB  29 80     AND #$80                        A:10 X:FF Y:00 P:24 SP:FF CYC:106 SL:211
C7AD  F0 F9     BEQ $C7A8                       A:00 X:FF Y:00 P:26 SP:FF CYC:112 SL:211
C7A8  AD 02 20  LDA $2002 = FF                  A:00 X:FF Y:00 P:26 SP:FF CYC:121 SL:211
C7AB  29 80     AND #$80                        A:10 X:FF Y:00 P:24 SP:FF CYC:133 SL:211
C7AD  F0 F9     BEQ $C7A8                       A:00 X:FF Y:00 P:26 SP:FF CYC:139 SL:211
C7A8  AD 02 20  LDA $2002 = FF                  A:00 X:FF Y:00 P:26 SP:FF CYC:148 SL:211
C7AB  29 80     AND #$80                        A:10 X:FF Y:00 P:24 SP:FF CYC:160 SL:211
C7AD  F0 F9     BEQ $C7A8                       A:00 X:FF Y:00 P:26 SP:FF CYC:166 SL:211
C7A8  AD 02 20  LDA $2002 = FF                  A:00 X:FF Y:00 P:26 SP:FF CYC:175 SL:211
C7AB  29 80     AND #$80                        A:10 X:FF Y:00 P:24 SP:FF CYC:187 SL:211
C7AD  F0 F9     BEQ $C7A8                       A:00 X:FF Y:00 P:26 SP:FF CYC:193 SL:211
C7A8  AD 02 20  LDA $2002 = FF                  A:00 X:FF Y:00 P:26 SP:FF CYC:202 SL:211
C7AB  29 80     AND #$80                        A:10 X:FF Y:00 P:24 SP:FF CYC:214 SL:211
C7AD  F0 F9     BEQ $C7A8                       A:00 X:FF Y:00 P:26 SP:FF CYC:220 SL:211
C7A8  AD 02 20  LDA $2002 = FF                  A:00 X:FF Y:00 P:26 SP:FF CYC:229 SL:211
C7AB  29 80     AND #$80                        A:10 X:FF Y:00 P:24 SP:FF CYC:241 SL:211
C7AD  F0 F9     BEQ $C7A8                       A:00 X:FF Y:00 P:26 SP:FF CYC:247 SL:211
C7A8  AD 02 20  LDA $2002 = FF                  A:00 X:FF Y:00 P:26 SP:FF CYC:256 SL:211
C7AB  29 80     AND #$80                        A:10 X:FF Y:00 P:24 SP:FF CYC:268 SL:211
C7AD  F0 F9     BEQ $C7A8                       A:00 X:FF Y:00 P:26 SP:FF CYC:274 SL:211
C7A8  AD 02 20  LDA $2002 = FF                  A:00 X:FF Y:00 P:26 SP:FF CYC:283 SL:211
C7AB  29 80     AND #$80                        A:10 X:FF Y:00 P:24 SP:FF CYC:295 SL:211
C7AD  F0 F9     BEQ $C7A8                       A:00 X:FF Y:00 P:26 SP:FF CYC:301 SL:211
C7A8  AD 02 20  LDA $2002 = FF                  A:00 X:FF Y:00 P:26 SP:FF CYC:310 SL:211
C7AB  29 80     AND #$80                        A:10 X:FF Y:00 P:24 SP:FF CYC:322 SL:211
C7AD  F0 F9     BEQ $C7A8                       A:00 X:FF Y:00 P:26 SP:FF CYC:328 SL:211
C7A8  AD 02 20  LDA $2002 = FF                  A:00 X:FF Y:00 P:26 SP:FF CYC:337 SL:211
C7AB  29 80     AND #$80                        A:10 X:FF Y:00 P:24 SP:FF CYC:  8 SL:212
C7AD  F0 F9     BEQ $C7A8                       A:00 X:FF Y:00 P:26 SP:FF CYC: 14 SL:212
C7A8  AD 02 20  LDA $2002 = FF                  A:00 X:FF Y:00 P:26 SP:FF CYC: 23 SL:212
C7AB  29 80     AND #$80                        A:10 X:FF Y:00 P:24 SP:FF CYC: 35 SL:212
C7AD  F0 F9     BEQ $C7A8                       A:00 X:FF Y:00 P:26 SP:FF CYC: 41 SL:212
C7A8  AD 02 20  LDA $2002 = FF                  A:00 X:FF Y:00 P:26 SP:FF CYC: 50 SL:212
C7AB  29 80     AND #$80                        A:10 X:FF Y:00 P:24 SP:FF CYC: 62 SL:212
C7AD  F0 F9     BEQ $C7A8                       A:00 X:FF Y:00 P:26 SP:FF CYC: 68 SL:212
C7A8  AD 02 20  LDA $2002 = FF                  A:00 X:FF Y:00 P:26 SP:FF CYC: 77 SL:212
C7AB  29 80     AND #$80                        A:10 X:FF Y:00 P:24 SP:FF CYC: 89 SL:212
C7AD  F0 F9     BEQ $C7A8                       A:00 X:FF Y:00 P:26 SP:FF CYC: 95 SL:212
C7A8  AD 02 20  LDA $2002 = FF                  A:00 X:FF Y:00 P:26 SP:FF CYC:104 SL:212
C7AB  29 80     AND #$80                        A:10 X:FF Y:00 P:24 SP:FF CYC:116 SL:212
C7AD  F0 F9     BEQ $C7A8                       A:00 X:FF Y:00 P:26 SP:FF CYC:122 SL:212
C7A8  AD 02 20  LDA $2002 = FF                  A:00 X:FF Y:00 P:26 SP:FF CYC:131 SL:212
C7AB  29 80     AND #$80                        A:10 X:FF Y:00 P:24 SP:FF CYC:143 SL:212
C7AD  F0 F9     BEQ $C7A8                       A:00 X:FF Y:00 P:26 SP:FF CYC:149 SL:212
C7A8  AD 02 20  LDA $2002 = FF                  A:00 X:FF Y:00 P:26 SP:FF CYC:158 SL:212
C7AB  29 80     AND #$80                        A:10 X:FF Y:00 P:24 SP:FF CYC:170 SL:212
C7AD  F0 F9     BEQ $C7A8                       A:00 X:FF Y:00 P:26 SP:FF CYC:176 SL:212
C7A8  AD 02 20  LDA $2002 = FF                  A:00 X:FF Y:00 P:26 SP:FF CYC:185 SL:212
C7AB  29 80     AND #$80                        A:10 X:FF Y:00 P:24 SP:FF CYC:197 SL:212
C7AD  F0 F9     BEQ $C7A8                       A:00 X:FF Y:00 P:26 SP:FF CYC:203 SL:212
C7A8  AD 02 20  LDA $2002 = FF                  A:00 X:FF Y:00 P:26 SP:FF CYC:212 SL:212
C7AB  29 80     AND #$80                        A:10 X:FF Y:00 P:24 SP:FF CYC:224 SL:212
C7AD  F0 F9     BEQ $C7A8                       A:00 X:FF Y:00 P:26 SP:FF CYC:230 SL:212
C7A8  AD 02 20  LDA $2002 = FF                  A:00 X:FF Y:00 P:26 SP:FF CYC:239 SL:212
C7AB  29 80     AND #$80                        A:10 X:FF Y:00 P:24 SP:FF CYC:251 SL:212
C7AD  F0 F9     BEQ $C7A8                       A:00 X:FF Y:00 P:26 SP:FF CYC:257 SL:212
C7A8  AD 02 20  LDA $2002 = FF                  A:00 X:FF Y:00 P:26 SP:FF CYC:266 SL:212
C7AB  29 80     AND #$80                        A:10 X:FF Y:00 P:24 SP:FF CYC:278 SL:212
C7AD  F0 F9     BEQ $C7A8                       A:00 X:FF Y:00 P:26 SP:FF CYC:284 SL:212
C7A8  AD 02 20  LDA $2002 = FF                  A:00 X:FF Y:00 P:26 SP:FF CYC:293 SL:212
C7AB  29 80     AND #$80                        A:10 X:FF Y:00 P:24 SP:FF CYC:305 SL:212
C7AD  F0 F9     BEQ $C7A8                       A:00 X:FF Y:00 P:26 SP:FF CYC:311 SL:212
C7A8  AD 02 20  LDA $2002 = FF                  A:00 X:FF Y:00 P:26 SP:FF CYC:320 SL:212
C7AB  29 80     AND #$80                        A:10 X:FF Y:00 P:24 SP:FF CYC:332 SL:212
C7AD  F0 F9     BEQ $C7A8                       A:00 X:FF Y:00 P:26 SP:FF CYC:338 SL:212
C7A8  AD 02 20  LDA $2002 = FF                  A:00 X:FF Y:00 P:26 SP:FF CYC:  6 SL:213
C7AB  29 80     AND #$80                        A:10 X:FF Y:00 P:24 SP:FF CYC: 18 SL:213
C7AD  F0 F9     BEQ $C7A8                       A:00 X:FF Y:00 P:26 SP:FF CYC: 24 SL:213
C7A8  AD 02 20  LDA $2002 = FF                  A:00 X:FF Y:00 P:26 SP:FF CYC: 33 SL:213
C7AB  29 80     AND #$80                        A:10 X:FF Y:00 P:24 SP:FF CYC: 45 SL:213
C7AD  F0 F9     BEQ $C7A8                       A:00 X:FF Y:00 P:26 SP:FF CYC: 51 SL:213
C7A8  AD 02 20  LDA $2002 = FF                  A:00 X:FF Y:00 P:26 SP:FF CYC: 60 SL:213
C7AB  29 80     AND #$80                        A:10 X:FF Y:00 P:24 SP:FF CYC: 72 SL:213
C7AD  F0 F9     BEQ $C7A8                       A:00 X:FF Y:00 P:26 SP:FF CYC: 78 SL:213
C7A8  AD 02 20  LDA $2002 = FF                  A:00 X:FF Y:00 P:26 SP:FF CYC: 87 SL:213
C7AB  29 80     AND #$80                        A:10 X:FF Y:00 P:24 SP:FF CYC: 99 SL:213
C7AD  F0 F9     BEQ $C7A8                       A:00 X:FF Y:00 P:26 SP:FF CYC:105 SL:213
C7A8  AD 02 20  LDA $2002 = FF                  A:00 X:FF Y:00 P:26 SP:FF CYC:114 SL:213
C7AB  29 80     AND #$80                        A:10 X:FF Y:00 P:24 SP:FF CYC:126 SL:213
C7AD  F0 F9     BEQ $C7A8                       A:00 X:FF Y:00 P:26 SP:FF CYC:132 SL:213
C7A8  AD 02 20  LDA $2002 = FF                  A:00 X:FF Y:00 P:26 SP:FF CYC:141 SL:213
C7AB  29 80     AND #$80                        A:10 X:FF Y:00 P:24 SP:FF CYC:153 SL:213
C7AD  F0 F9     BEQ $C7A8                       A:00 X:FF Y:00 P:26 SP:FF CYC:159 SL:213
C7A8  AD 02 20  LDA $2002 = FF                  A:00 X:FF Y:00 P:26 SP:FF CYC:168 SL:213
C7AB  29 80     AND #$80                        A:10 X:FF Y:00 P:24 SP:FF CYC:180 SL:213
C7AD  F0 F9     BEQ $C7A8                       A:00 X:FF Y:00 P:26 SP:FF CYC:186 SL:213
C7A8  AD 02 20  LDA $2002 = FF                  A:00 X:FF Y:00 P:26 SP:FF CYC:195 SL:213
C7AB  29 80     AND #$80                        A:10 X:FF Y:00 P:24 SP:FF CYC:207 SL:213
C7AD  F0 F9     BEQ $C7A8                       A:00 X:FF Y:00 P:26 SP:FF CYC:213 SL:213
C7A8  AD 02 20  LDA $2002 = FF                  A:00 X:FF Y:00 P:26 SP:FF CYC:222 SL:213
C7AB  29 80     AND #$80                        A:10 X:FF Y:00 P:24 SP:FF CYC:234 SL:213
C7AD  F0 F9     BEQ $C7A8                       A:00 X:FF Y:00 P:26 SP:FF CYC:240 SL:213
C7A8  AD 02 20  LDA $2002 = FF                  A:00 X:FF Y:00 P:26 SP:FF CYC:249 SL:213
C7AB  29 80     AND #$80                        A:10 X:FF Y:00 P:24 SP:FF CYC:261 SL:213
C7AD  F0 F9     BEQ $C7A8                       A:00 X:FF Y:00 P:26 SP:FF CYC:267 SL:213
C7A8  AD 02 20  LDA $2002 = FF                  A:00 X:FF Y:00 P:26 SP:FF CYC:276 SL:213
C7AB  29 80     AND #$80                        A:10 X:FF Y:00 P:24 SP:FF CYC:288 SL:213
C7AD  F0 F9     BEQ $C7A8                       A:00 X:FF Y:00 P:26 SP:FF CYC:294 SL:213
C7A8  AD 02 20  LDA $2002 = FF                  A:00 X:FF Y:00 P:26 SP:FF CYC:303 SL:213
C7AB  29 80     AND #$80                        A:10 X:FF Y:00 P:24 SP:FF CYC:315 SL:213
C7AD  F0 F9     BEQ $C7A8                       A:00 X:FF Y:00 P:26 SP:FF CYC:321 SL:213
C7A8  AD 02 20  LDA $2002 = FF                  A:00 X:FF Y:00 P:26 SP:FF CYC:330 SL:213
C7AB  29 80     AND #$80                        A:10 X:FF Y:00 P:24 SP:FF CYC:  1 SL:214
C7AD  F0 F9     BEQ $C7A8                       A:00 X:FF Y:00 P:26 SP:FF CYC:  7 SL:214
C7A8  AD 02 20  LDA $2002 = FF                  A:00 X:FF Y:00 P:26 SP:FF CYC: 16 SL:214
C7AB  29 80     AND #$80                        A:10 X:FF Y:00 P:24 SP:FF CYC: 28 SL:214
C7AD  F0 F9     BEQ $C7A8                       A:00 X:FF Y:00 P:26 SP:FF CYC: 34 SL:214
C7A8  AD 02 20  LDA $2002 = FF                  A:00 X:FF Y:00 P:26 SP:FF CYC: 43 SL:214
C7AB  29 80     AND #$80                        A:10 X:FF Y:00 P:24 SP:FF CYC: 55 SL:214
C7AD  F0 F9     BEQ $C7A8                       A:00 X:FF Y:00 P:26 SP:FF CYC: 61 SL:214
C7A8  AD 02 20  LDA $2002 = FF                  A:00 X:FF Y:00 P:26 SP:FF CYC: 70 SL:214
C7AB  29 80     AND #$80                        A:10 X:FF Y:00 P:24 SP:FF CYC: 82 SL:214
C7AD  F0 F9     BEQ $C7A8                       A:00 X:FF Y:00 P:26 SP:FF CYC: 88 SL:214
C7A8  AD 02 20  LDA $2002 = FF                  A:00 X:FF Y:00 P:26 SP:FF CYC: 97 SL:214
C7AB  29 80     AND #$80                        A:10 X:FF Y:00 P:24 SP:FF CYC:109 SL:214
C7AD  F0 F9     BEQ $C7A8                       A:00 X:FF Y:00 P:26 SP:FF CYC:115 SL:214
C7A8  AD 02 20  LDA $2002 = FF                  A:00 X:FF Y:00 P:26 SP:FF CYC:124 SL:214
C7AB  29 80     AND #$80                        A:10 X:FF Y:00 P:24 SP:FF CYC:136 SL:214
C7AD  F0 F9     BEQ $C7A8                       A:00 X:FF Y:00 P:26 SP:FF CYC:142 SL:214
C7A8  AD 02 20  LDA $2002 = FF                  A:00 X:FF Y:00 P:26 SP:FF CYC:151 SL:214
C7AB  29 80     AND #$80                        A:10 X:FF Y:00 P:24 SP:FF CYC:163 SL:214
C7AD  F0 F9     BEQ $C7A8                       A:00 X:FF Y:00 P:26 SP:FF CYC:169 SL:214
C7A8  AD 02 20  LDA $2002 = FF                  A:00 X:FF Y:00 P:26 SP:FF CYC:178 SL:214
C7AB  29 80     AND #$80                        A:10 X:FF Y:00 P:24 SP:FF CYC:190 SL:214
C7AD  F0 F9     BEQ $C7A8                       A:00 X:FF Y:00 P:26 SP:FF CYC:196 SL:214
C7A8  AD 02 20  LDA $2002 = FF                  A:00 X:FF Y:00 P:26 SP:FF CYC:205 SL:214
C7AB  29 80     AND #$80                        A:10 X:FF Y:00 P:24 SP:FF CYC:217 SL:214
C7AD  F0 F9     BEQ $C7A8                       A:00 X:FF Y:00 P:26 SP:FF CYC:223 SL:214
C7A8  AD 02 20  LDA $2002 = FF                  A:00 X:FF Y:00 P:26 SP:FF CYC:232 SL:214
C7AB  29 80     AND #$80                        A:10 X:FF Y:00 P:24 SP:FF CYC:244 SL:214
C7AD  F0 F9     BEQ $C7A8                       A:00 X:FF Y:00 P:26 SP:FF CYC:250 SL:214
C7A8  AD 02 20  LDA $2002 = FF                  A:00 X:FF Y:00 P:26 SP:FF CYC:259 SL:214
C7AB  29 80     AND #$80                        A:10 X:FF Y:00 P:24 SP:FF CYC:271 SL:214
C7AD  F0 F9     BEQ $C7A8                       A:00 X:FF Y:00 P:26 SP:FF CYC:277 SL:214
C7A8  AD 02 20  LDA $2002 = FF                  A:00 X:FF Y:00 P:26 SP:FF CYC:286 SL:214
C7AB  29 80     AND #$80                        A:10 X:FF Y:00 P:24 SP:FF CYC:298 SL:214
C7AD  F0 F9     BEQ $C7A8                       A:00 X:FF Y:00 P:26 SP:FF CYC:304 SL:214
C7A8  AD 02 20  LDA $2002 = FF                  A:00 X:FF Y:00 P:26 SP:FF CYC:313 SL:214
C7AB  29 80     AND #$80                        A:10 X:FF Y:00 P:24 SP:FF CYC:325 SL:214
C7AD  F0 F9     BEQ $C7A8                       A:00 X:FF Y:00 P:26 SP:FF CYC:331 SL:214
C7A8  AD 02 20  LDA $2002 = FF                  A:00 X:FF Y:00 P:26 SP:FF CYC:340 SL:214
C7AB  29 80     AND #$80                        A:10 X:FF Y:00 P:24 SP:FF CYC: 11 SL:215
C7AD  F0 F9     BEQ $C7A8                       A:00 X:FF Y:00 P:26 SP:FF CYC: 17 SL:215
C7A8  AD 02 20  LDA $2002 = FF                  A:00 X:FF Y:00 P:26 SP:FF CYC: 26 SL:215
C7AB  29 80     AND #$80                        A:10 X:FF Y:00 P:24 SP:FF CYC: 38 SL:215
C7AD  F0 F9     BEQ $C7A8                       A:00 X:FF Y:00 P:26 SP:FF CYC: 44 SL:215
C7A8  AD 02 20  LDA $2002 = FF                  A:00 X:FF Y:00 P:26 SP:FF CYC: 53 SL:215
C7AB  29 80     AND #$80                        A:10 X:FF Y:00 P:24 SP:FF CYC: 65 SL:215
C7AD  F0 F9     BEQ $C7A8                       A:00 X:FF Y:00 P:26 SP:FF CYC: 71 SL:215
C7A8  AD 02 20  LDA $2002 = FF                  A:00 X:FF Y:00 P:26 SP:FF CYC: 80 SL:215
C7AB  29 80     AND #$80                        A:10 X:FF Y:00 P:24 SP:FF CYC: 92 SL:215
C7AD  F0 F9     BEQ $C7A8                       A:00 X:FF Y:00 P:26 SP:FF CYC: 98 SL:215
C7A8  AD 02 20  LDA $2002 = FF                  A:00 X:FF Y:00 P:26 SP:FF CYC:107 SL:215
C7AB  29 80     AND #$80                        A:10 X:FF Y:00 P:24 SP:FF CYC:119 SL:215
C7AD  F0 F9     BEQ $C7A8                       A:00 X:FF Y:00 P:26 SP:FF CYC:125 SL:215
C7A8  AD 02 20  LDA $2002 = FF                  A:00 X:FF Y:00 P:26 SP:FF CYC:134 SL:215
C7AB  29 80     AND #$80                        A:10 X:FF Y:00 P:24 SP:FF CYC:146 SL:215
C7AD  F0 F9     BEQ $C7A8                       A:00 X:FF Y:00 P:26 SP:FF CYC:152 SL:215
C7A8  AD 02 20  LDA $2002 = FF                  A:00 X:FF Y:00 P:26 SP:FF CYC:161 SL:215
C7AB  29 80     AND #$80                        A:10 X:FF Y:00 P:24 SP:FF CYC:173 SL:215
C7AD  F0 F9     BEQ $C7A8                       A:00 X:FF Y:00 P:26 SP:FF CYC:179 SL:215
C7A8  AD 02 20  LDA $2002 = FF                  A:00 X:FF Y:00 P:26 SP:FF CYC:188 SL:215
C7AB  29 80     AND #$80                        A:10 X:FF Y:00 P:24 SP:FF CYC:200 SL:215
C7AD  F0 F9     BEQ $C7A8                       A:00 X:FF Y:00 P:26 SP:FF CYC:206 SL:215
C7A8  AD 02 20  LDA $2002 = FF                  A:00 X:FF Y:00 P:26 SP:FF CYC:215 SL:215
C7AB  29 80     AND #$80                        A:10 X:FF Y:00 P:24 SP:FF CYC:227 SL:215
C7AD  F0 F9     BEQ $C7A8                       A:00 X:FF Y:00 P:26 SP:FF CYC:233 SL:215
C7A8  AD 02 20  LDA $2002 = FF                  A:00 X:FF Y:00 P:26 SP:FF CYC:242 SL:215
C7AB  29 80     AND #$80                        A:10 X:FF Y:00 P:24 SP:FF CYC:254 SL:215
C7AD  F0 F9     BEQ $C7A8                       A:00 X:FF Y:00 P:26 SP:FF CYC:260 SL:215
C7A8  AD 02 20  LDA $2002 = FF                  A:00 X:FF Y:00 P:26 SP:FF CYC:269 SL:215
C7AB  29 80     AND #$80                        A:10 X:FF Y:00 P:24 SP:FF CYC:281 SL:215
C7AD  F0 F9     BEQ $C7A8                       A:00 X:FF Y:00 P:26 SP:FF CYC:287 SL:215
C7A8  AD 02 20  LDA $2002 = FF                  A:00 X:FF Y:00 P:26 SP:FF CYC:296 SL:215
C7AB  29 80     AND #$80                        A:10 X:FF Y:00 P:24 SP:FF CYC:308 SL:215
C7AD  F0 F9     BEQ $C7A8                       A:00 X:FF Y:00 P:26 SP:FF CYC:314 SL:215
C7A8  AD 02 20  LDA $2002 = FF                  A:00 X:FF Y:00 P:26 SP:FF CYC:323 SL:215
C7AB  29 80     AND #$80                        A:10 X:FF Y:00 P:24 SP:FF CYC:335 SL:215
C7AD  F0 F9     BEQ $C7A8                       A:00 X:FF Y:00 P:26 SP:FF CYC:  0 SL:216
C7A8  AD 02 20  LDA $2002 = FF                  A:00 X:FF Y:00 P:26 SP:FF CYC:  9 SL:216
C7AB  29 80     AND #$80                        A:10 X:FF Y:00 P:24 SP:FF CYC: 21 SL:216
C7AD  F0 F9     BEQ $C7A8                       A:00 X:FF Y:00 P:26 SP:FF CYC: 27 SL:216
C7A8  AD 02 20  LDA $2002 = FF                  A:00 X:FF Y:00 P:26 SP:FF CYC: 36 SL:216
C7AB  29 80     AND #$80                        A:10 X:FF Y:00 P:24 SP:FF CYC: 48 SL:216
C7AD  F0 F9     BEQ $C7A8                       A:00 X:FF Y:00 P:26 SP:FF CYC: 54 SL:216
C7A8  AD 02 20  LDA $2002 = FF                  A:00 X:FF Y:00 P:26 SP:FF CYC: 63 SL:216
C7AB  29 80     AND #$80                        A:10 X:FF Y:00 P:24 SP:FF CYC: 75 SL:216
C7AD  F0 F9     BEQ $C7A8                       A:00 X:FF Y:00 P:26 SP:FF CYC: 81 SL:216
C7A8  AD 02 20  LDA $2002 = FF                  A:00 X:FF Y:00 P:26 SP:FF CYC: 90 SL:216
C7AB  29 80     AND #$80                        A:10 X:FF Y:00 P:24 SP:FF CYC:102 SL:216
C7AD  F0 F9     BEQ $C7A8                       A:00 X:FF Y:00 P:26 SP:FF CYC:108 SL:216
C7A8  AD 02 20  LDA $2002 = FF                  A:00 X:FF Y:00 P:26 SP:FF CYC:117 SL:216
C7AB  29 80     AND #$80                        A:10 X:FF Y:00 P:24 SP:FF CYC:129 SL:216
C7AD  F0 F9     BEQ $C7A8                       A:00 X:FF Y:00 P:26 SP:FF CYC:135 SL:216
C7A8  AD 02 20  LDA $2002 = FF                  A:00 X:FF Y:00 P:26 SP:FF CYC:144 SL:216
C7AB  29 80     AND #$80                        A:10 X:FF Y:00 P:24 SP:FF CYC:156 SL:216
C7AD  F0 F9     BEQ $C7A8                       A:00 X:FF Y:00 P:26 SP:FF CYC:162 SL:216
C7A8  AD 02 20  LDA $2002 = FF                  A:00 X:FF Y:00 P:26 SP:FF CYC:171 SL:216
C7AB  29 80     AND #$80                        A:10 X:FF Y:00 P:24 SP:FF CYC:183 SL:216
C7AD  F0 F9     BEQ $C7A8                       A:00 X:FF Y:00 P:26 SP:FF CYC:189 SL:216
C7A8  AD 02 20  LDA $2002 = FF                  A:00 X:FF Y:00 P:26 SP:FF CYC:198 SL:216
C7AB  29 80     AND #$80                        A:10 X:FF Y:00 P:24 SP:FF CYC:210 SL:216
C7AD  F0 F9     BEQ $C7A8                       A:00 X:FF Y:00 P:26 SP:FF CYC:216 SL:216
C7A8  AD 02 20  LDA $2002 = FF                  A:00 X:FF Y:00 P:26 SP:FF CYC:225 SL:216
C7AB  29 80     AND #$80                        A:10 X:FF Y:00 P:24 SP:FF CYC:237 SL:216
C7AD  F0 F9     BEQ $C7A8                       A:00 X:FF Y:00 P:26 SP:FF CYC:243 SL:216
C7A8  AD 02 20  LDA $2002 = FF                  A:00 X:FF Y:00 P:26 SP:FF CYC:252 SL:216
C7AB  29 80     AND #$80                        A:10 X:FF Y:00 P:24 SP:FF CYC:264 SL:216
C7AD  F0 F9     BEQ $C7A8                       A:00 X:FF Y:00 P:26 SP:FF CYC:270 SL:216
C7A8  AD 02 20  LDA $2002 = FF                  A:00 X:FF Y:00 P:26 SP:FF CYC:279 SL:216
C7AB  29 80     AND #$80                        A:10 X:FF Y:00 P:24 SP:FF CYC:291 SL:216
C7AD  F0 F9     BEQ $C7A8                       A:00 X:FF Y:00 P:26 SP:FF CYC:297 SL:216
C7A8  AD 02 20  LDA $2002 = FF                  A:00 X:FF Y:00 P:26 SP:FF CYC:306 SL:216
C7AB  29 80     AND #$80                        A:10 X:FF Y:00 P:24 SP:FF CYC:318 SL:216
C7AD  F0 F9     BEQ $C7A8                       A:00 X:FF Y:00 P:26 SP:FF CYC:324 SL:216
C7A8  AD 02 20  LDA $2002 = FF                  A:00 X:FF Y:00 P:26 SP:FF CYC:333 SL:216
C7AB  29 80     AND #$80                        A:10 X:FF Y:00 P:24 SP:FF CYC:  4 SL:217
C7AD  F0 F9     BEQ $C7A8                       A:00 X:FF Y:00 P:26 SP:FF CYC: 10 SL:217
C7A8  AD 02 20  LDA $2002 = FF                  A:00 X:FF Y:00 P:26 SP:FF CYC: 19 SL:217
C7AB  29 80     AND #$80                        A:10 X:FF Y:00 P:24 SP:FF CYC: 31 SL:217
C7AD  F0 F9     BEQ $C7A8                       A:00 X:FF Y:00 P:26 SP:FF CYC: 37 SL:217
C7A8  AD 02 20  LDA $2002 = FF                  A:00 X:FF Y:00 P:26 SP:FF CYC: 46 SL:217
C7AB  29 80     AND #$80                        A:10 X:FF Y:00 P:24 SP:FF CYC: 58 SL:217
C7AD  F0 F9     BEQ $C7A8                       A:00 X:FF Y:00 P:26 SP:FF CYC: 64 SL:217
C7A8  AD 02 20  LDA $2002 = FF                  A:00 X:FF Y:00 P:26 SP:FF CYC: 73 SL:217
C7AB  29 80     AND #$80                        A:10 X:FF Y:00 P:24 SP:FF CYC: 85 SL:217
C7AD  F0 F9     BEQ $C7A8                       A:00 X:FF Y:00 P:26 SP:FF CYC: 91 SL:217
C7A8  AD 02 20  LDA $2002 = FF                  A:00 X:FF Y:00 P:26 SP:FF CYC:100 SL:217
C7AB  29 80     AND #$80                        A:10 X:FF Y:00 P:24 SP:FF CYC:112 SL:217
C7AD  F0 F9     BEQ $C7A8                       A:00 X:FF Y:00 P:26 SP:FF CYC:118 SL:217
C7A8  AD 02 20  LDA $2002 = FF                  A:00 X:FF Y:00 P:26 SP:FF CYC:127 SL:217
C7AB  29 80     AND #$80                        A:10 X:FF Y:00 P:24 SP:FF CYC:139 SL:217
C7AD  F0 F9     BEQ $C7A8                       A:00 X:FF Y:00 P:26 SP:FF CYC:145 SL:217
C7A8  AD 02 20  LDA $2002 = FF                  A:00 X:FF Y:00 P:26 SP:FF CYC:154 SL:217
C7AB  29 80     AND #$80                        A:10 X:FF Y:00 P:24 SP:FF CYC:166 SL:217
C7AD  F0 F9     BEQ $C7A8                       A:00 X:FF Y:00 P:26 SP:FF CYC:172 SL:217
C7A8  AD 02 20  LDA $2002 = FF                  A:00 X:FF Y:00 P:26 SP:FF CYC:181 SL:217
C7AB  29 80     AND #$80                        A:10 X:FF Y:00 P:24 SP:FF CYC:193 SL:217
C7AD  F0 F9     BEQ $C7A8                       A:00 X:FF Y:00 P:26 SP:FF CYC:199 SL:217
C7A8  AD 02 20  LDA $2002 = FF                  A:00 X:FF Y:00 P:26 SP:FF CYC:208 SL:217
C7AB  29 80     AND #$80                        A:10 X:FF Y:00 P:24 SP:FF CYC:220 SL:217
C7AD  F0 F9     BEQ $C7A8                       A:00 X:FF Y:00 P:26 SP:FF CYC:226 SL:217
C7A8  AD 02 20  LDA $2002 = FF                  A:00 X:FF Y:00 P:26 SP:FF CYC:235 SL:217
C7AB  29 80     AND #$80                        A:10 X:FF Y:00 P:24 SP:FF CYC:247 SL:217
C7AD  F0 F9     BEQ $C7A8                       A:00 X:FF Y:00 P:26 SP:FF CYC:253 SL:217
C7A8  AD 02 20  LDA $2002 = FF                  A:00 X:FF Y:00 P:26 SP:FF CYC:262 SL:217
C7AB  29 80     AND #$80                        A:10 X:FF Y:00 P:24 SP:FF CYC:274 SL:217
C7AD  F0 F9     BEQ $C7A8                       A:00 X:FF Y:00 P:26 SP:FF CYC:280 SL:217
C7A8  AD 02 20  LDA $2002 = FF                  A:00 X:FF Y:00 P:26 SP:FF CYC:289 SL:217
C7AB  29 80     AND #$80                        A:10 X:FF Y:00 P:24 SP:FF CYC:301 SL:217
C7AD  F0 F9     BEQ $C7A8                       A:00 X:FF Y:00 P:26 SP:FF CYC:307 SL:217
C7A8  AD 02 20  LDA $2002 = FF                  A:00 X:FF Y:00 P:26 SP:FF CYC:316 SL:217
C7AB  29 80     AND #$80                        A:10 X:FF Y:00 P:24 SP:FF CYC:328 SL:217
C7AD  F0 F9     BEQ $C7A8                       A:00 X:FF Y:00 P:26 SP:FF CYC:334 SL:217
C7A8  AD 02 20  LDA $2002 = FF                  A:00 X:FF Y:00 P:26 SP:FF CYC:  2 SL:218
C7AB  29 80     AND #$80                        A:10 X:FF Y:00 P:24 SP:FF CYC: 14 SL:218
C7AD  F0 F9     BEQ $C7A8                       A:00 X:FF Y:00 P:26 SP:FF CYC: 20 SL:218
C7A8  AD 02 20  LDA $2002 = FF                  A:00 X:FF Y:00 P:26 SP:FF CYC: 29 SL:218
C7AB  29 80     AND #$80                        A:10 X:FF Y:00 P:24 SP:FF CYC: 41 SL:218
C7AD  F0 F9     BEQ $C7A8                       A:00 X:FF Y:00 P:26 SP:FF CYC: 47 SL:218
C7A8  AD 02 20  LDA $2002 = FF                  A:00 X:FF Y:00 P:26 SP:FF CYC: 56 SL:218
C7AB  29 80     AND #$80                        A:10 X:FF Y:00 P:24 SP:FF CYC: 68 SL:218
C7AD  F0 F9     BEQ $C7A8                       A:00 X:FF Y:00 P:26 SP:FF CYC: 74 SL:218
C7A8  AD 02 20  LDA $2002 = FF                  A:00 X:FF Y:00 P:26 SP:FF CYC: 83 SL:218
C7AB  29 80     AND #$80                        A:10 X:FF Y:00 P:24 SP:FF CYC: 95 SL:218
C7AD  F0 F9     BEQ $C7A8                       A:00 X:FF Y:00 P:26 SP:FF CYC:101 SL:218
C7A8  AD 02 20  LDA $2002 = FF                  A:00 X:FF Y:00 P:26 SP:FF CYC:110 SL:218
C7AB  29 80     AND #$80                        A:10 X:FF Y:00 P:24 SP:FF CYC:122 SL:218
C7AD  F0 F9     BEQ $C7A8                       A:00 X:FF Y:00 P:26 SP:FF CYC:128 SL:218
C7A8  AD 02 20  LDA $2002 = FF                  A:00 X:FF Y:00 P:26 SP:FF CYC:137 SL:218
C7AB  29 80     AND #$80                        A:10 X:FF Y:00 P:24 SP:FF CYC:149 SL:218
C7AD  F0 F9     BEQ $C7A8                       A:00 X:FF Y:00 P:26 SP:FF CYC:155 SL:218
C7A8  AD 02 20  LDA $2002 = FF                  A:00 X:FF Y:00 P:26 SP:FF CYC:164 SL:218
C7AB  29 80     AND #$80                        A:10 X:FF Y:00 P:24 SP:FF CYC:176 SL:218
C7AD  F0 F9     BEQ $C7A8                       A:00 X:FF Y:00 P:26 SP:FF CYC:182 SL:218
C7A8  AD 02 20  LDA $2002 = FF                  A:00 X:FF Y:00 P:26 SP:FF CYC:191 SL:218
C7AB  29 80     AND #$80                        A:10 X:FF Y:00 P:24 SP:FF CYC:203 SL:218
C7AD  F0 F9     BEQ $C7A8                       A:00 X:FF Y:00 P:26 SP:FF CYC:209 SL:218
C7A8  AD 02 20  LDA $2002 = FF                  A:00 X:FF Y:00 P:26 SP:FF CYC:218 SL:218
C7AB  29 80     AND #$80                        A:10 X:FF Y:00 P:24 SP:FF CYC:230 SL:218
C7AD  F0 F9     BEQ $C7A8                       A:00 X:FF Y:00 P:26 SP:FF CYC:236 SL:218
C7A8  AD 02 20  LDA $2002 = FF                  A:00 X:FF Y:00 P:26 SP:FF CYC:245 SL:218
C7AB  29 80     AND #$80                        A:10 X:FF Y:00 P:24 SP:FF CYC:257 SL:218
C7AD  F0 F9     BEQ $C7A8                       A:00 X:FF Y:00 P:26 SP:FF CYC:263 SL:218
C7A8  AD 02 20  LDA $2002 = FF                  A:00 X:FF Y:00 P:26 SP:FF CYC:272 SL:218
C7AB  29 80     AND #$80                        A:10 X:FF Y:00 P:24 SP:FF CYC:284 SL:218
C7AD  F0 F9     BEQ $C7A8                       A:00 X:FF Y:00 P:26 SP:FF CYC:290 SL:218
C7A8  AD 02 20  LDA $2002 = FF                  A:00 X:FF Y:00 P:26 SP:FF CYC:299 SL:218
C7AB  29 80     AND #$80                        A:10 X:FF Y:00 P:24 SP:FF CYC:311 SL:218
C7AD  F0 F9     BEQ $C7A8                       A:00 X:FF Y:00 P:26 SP:FF CYC:317 SL:218
C7A8  AD 02 20  LDA $2002 = FF                  A:00 X:FF Y:00 P:26 SP:FF CYC:326 SL:218
C7AB  29 80     AND #$80                        A:10 X:FF Y:00 P:24 SP:FF CYC:338 SL:218
C7AD  F0 F9     BEQ $C7A8                       A:00 X:FF Y:00 P:26 SP:FF CYC:  3 SL:219
C7A8  AD 02 20  LDA $2002 = FF                  A:00 X:FF Y:00 P:26 SP:FF CYC: 12 SL:219
C7AB  29 80     AND #$80                        A:10 X:FF Y:00 P:24 SP:FF CYC: 24 SL:219
C7AD  F0 F9     BEQ $C7A8                       A:00 X:FF Y:00 P:26 SP:FF CYC: 30 SL:219
C7A8  AD 02 20  LDA $2002 = FF                  A:00 X:FF Y:00 P:26 SP:FF CYC: 39 SL:219
C7AB  29 80     AND #$80                        A:10 X:FF Y:00 P:24 SP:FF CYC: 51 SL:219
C7AD  F0 F9     BEQ $C7A8                       A:00 X:FF Y:00 P:26 SP:FF CYC: 57 SL:219
C7A8  AD 02 20  LDA $2002 = FF                  A:00 X:FF Y:00 P:26 SP:FF CYC: 66 SL:219
C7AB  29 80     AND #$80                        A:10 X:FF Y:00 P:24 SP:FF CYC: 78 SL:219
C7AD  F0 F9     BEQ $C7A8                       A:00 X:FF Y:00 P:26 SP:FF CYC: 84 SL:219
C7A8  AD 02 20  LDA $2002 = FF                  A:00 X:FF Y:00 P:26 SP:FF CYC: 93 SL:219
C7AB  29 80     AND #$80                        A:10 X:FF Y:00 P:24 SP:FF CYC:105 SL:219
C7AD  F0 F9     BEQ $C7A8                       A:00 X:FF Y:00 P:26 SP:FF CYC:111 SL:219
C7A8  AD 02 20  LDA $2002 = FF                  A:00 X:FF Y:00 P:26 SP:FF CYC:120 SL:219
C7AB  29 80     AND #$80                        A:10 X:FF Y:00 P:24 SP:FF CYC:132 SL:219
C7AD  F0 F9     BEQ $C7A8                       A:00 X:FF Y:00 P:26 SP:FF CYC:138 SL:219
C7A8  AD 02 20  LDA $2002 = FF                  A:00 X:FF Y:00 P:26 SP:FF CYC:147 SL:219
C7AB  29 80     AND #$80                        A:10 X:FF Y:00 P:24 SP:FF CYC:159 SL:219
C7AD  F0 F9     BEQ $C7A8                       A:00 X:FF Y:00 P:26 SP:FF CYC:165 SL:219
C7A8  AD 02 20  LDA $2002 = FF                  A:00 X:FF Y:00 P:26 SP:FF CYC:174 SL:219
C7AB  29 80     AND #$80                        A:10 X:FF Y:00 P:24 SP:FF CYC:186 SL:219
C7AD  F0 F9     BEQ $C7A8                       A:00 X:FF Y:00 P:26 SP:FF CYC:192 SL:219
C7A8  AD 02 20  LDA $2002 = FF                  A:00 X:FF Y:00 P:26 SP:FF CYC:201 SL:219
C7AB  29 80     AND #$80                        A:10 X:FF Y:00 P:24 SP:FF CYC:213 SL:219
C7AD  F0 F9     BEQ $C7A8                       A:00 X:FF Y:00 P:26 SP:FF CYC:219 SL:219
C7A8  AD 02 20  LDA $2002 = FF                  A:00 X:FF Y:00 P:26 SP:FF CYC:228 SL:219
C7AB  29 80     AND #$80                        A:10 X:FF Y:00 P:24 SP:FF CYC:240 SL:219
C7AD  F0 F9     BEQ $C7A8                       A:00 X:FF Y:00 P:26 SP:FF CYC:246 SL:219
C7A8  AD 02 20  LDA $2002 = FF                  A:00 X:FF Y:00 P:26 SP:FF CYC:255 SL:219
C7AB  29 80     AND #$80                        A:10 X:FF Y:00 P:24 SP:FF CYC:267 SL:219
C7AD  F0 F9     BEQ $C7A8                       A:00 X:FF Y:00 P:26 SP:FF CYC:273 SL:219
C7A8  AD 02 20  LDA $2002 = FF                  A:00 X:FF Y:00 P:26 SP:FF CYC:282 SL:219
C7AB  29 80     AND #$80                        A:10 X:FF Y:00 P:24 SP:FF CYC:294 SL:219
C7AD  F0 F9     BEQ $C7A8                       A:00 X:FF Y:00 P:26 SP:FF CYC:300 SL:219
C7A8  AD 02 20  LDA $2002 = FF                  A:00 X:FF Y:00 P:26 SP:FF CYC:309 SL:219
C7AB  29 80     AND #$80                        A:10 X:FF Y:00 P:24 SP:FF CYC:321 SL:219
C7AD  F0 F9     BEQ $C7A8                       A:00 X:FF Y:00 P:26 SP:FF CYC:327 SL:219
C7A8  AD 02 20  LDA $2002 = FF                  A:00 X:FF Y:00 P:26 SP:FF CYC:336 SL:219
C7AB  29 80     AND #$80                        A:10 X:FF Y:00 P:24 SP:FF CYC:  7 SL:220
C7AD  F0 F9     BEQ $C7A8                       A:00 X:FF Y:00 P:26 SP:FF CYC: 13 SL:220
C7A8  AD 02 20  LDA $2002 = FF                  A:00 X:FF Y:00 P:26 SP:FF CYC: 22 SL:220
C7AB  29 80     AND #$80                        A:10 X:FF Y:00 P:24 SP:FF CYC: 34 SL:220
C7AD  F0 F9     BEQ $C7A8                       A:00 X:FF Y:00 P:26 SP:FF CYC: 40 SL:220
C7A8  AD 02 20  LDA $2002 = FF                  A:00 X:FF Y:00 P:26 SP:FF CYC: 49 SL:220
C7AB  29 80     AND #$80                        A:10 X:FF Y:00 P:24 SP:FF CYC: 61 SL:220
C7AD  F0 F9     BEQ $C7A8                       A:00 X:FF Y:00 P:26 SP:FF CYC: 67 SL:220
C7A8  AD 02 20  LDA $2002 = FF                  A:00 X:FF Y:00 P:26 SP:FF CYC: 76 SL:220
C7AB  29 80     AND #$80                        A:10 X:FF Y:00 P:24 SP:FF CYC: 88 SL:220
C7AD  F0 F9     BEQ $C7A8                       A:00 X:FF Y:00 P:26 SP:FF CYC: 94 SL:220
C7A8  AD 02 20  LDA $2002 = FF                  A:00 X:FF Y:00 P:26 SP:FF CYC:103 SL:220
C7AB  29 80     AND #$80                        A:10 X:FF Y:00 P:24 SP:FF CYC:115 SL:220
C7AD  F0 F9     BEQ $C7A8                       A:00 X:FF Y:00 P:26 SP:FF CYC:121 SL:220
C7A8  AD 02 20  LDA $2002 = FF                  A:00 X:FF Y:00 P:26 SP:FF CYC:130 SL:220
C7AB  29 80     AND #$80                        A:10 X:FF Y:00 P:24 SP:FF CYC:142 SL:220
C7AD  F0 F9     BEQ $C7A8                       A:00 X:FF Y:00 P:26 SP:FF CYC:148 SL:220
C7A8  AD 02 20  LDA $2002 = FF                  A:00 X:FF Y:00 P:26 SP:FF CYC:157 SL:220
C7AB  29 80     AND #$80                        A:10 X:FF Y:00 P:24 SP:FF CYC:169 SL:220
C7AD  F0 F9     BEQ $C7A8                       A:00 X:FF Y:00 P:26 SP:FF CYC:175 SL:220
C7A8  AD 02 20  LDA $2002 = FF                  A:00 X:FF Y:00 P:26 SP:FF CYC:184 SL:220
C7AB  29 80     AND #$80                        A:10 X:FF Y:00 P:24 SP:FF CYC:196 SL:220
C7AD  F0 F9     BEQ $C7A8                       A:00 X:FF Y:00 P:26 SP:FF CYC:202 SL:220
C7A8  AD 02 20  LDA $2002 = FF                  A:00 X:FF Y:00 P:26 SP:FF CYC:211 SL:220
C7AB  29 80     AND #$80                        A:10 X:FF Y:00 P:24 SP:FF CYC:223 SL:220
C7AD  F0 F9     BEQ $C7A8                       A:00 X:FF Y:00 P:26 SP:FF CYC:229 SL:220
C7A8  AD 02 20  LDA $2002 = FF                  A:00 X:FF Y:00 P:26 SP:FF CYC:238 SL:220
C7AB  29 80     AND #$80                        A:10 X:FF Y:00 P:24 SP:FF CYC:250 SL:220
C7AD  F0 F9     BEQ $C7A8                       A:00 X:FF Y:00 P:26 SP:FF CYC:256 SL:220
C7A8  AD 02 20  LDA $2002 = FF                  A:00 X:FF Y:00 P:26 SP:FF CYC:265 SL:220
C7AB  29 80     AND #$80                        A:10 X:FF Y:00 P:24 SP:FF CYC:277 SL:220
C7AD  F0 F9     BEQ $C7A8                       A:00 X:FF Y:00 P:26 SP:FF CYC:283 SL:220
C7A8  AD 02 20  LDA $2002 = FF                  A:00 X:FF Y:00 P:26 SP:FF CYC:292 SL:220
C7AB  29 80     AND #$80                        A:10 X:FF Y:00 P:24 SP:FF CYC:304 SL:220
C7AD  F0 F9     BEQ $C7A8                       A:00 X:FF Y:00 P:26 SP:FF CYC:310 SL:220
C7A8  AD 02 20  LDA $2002 = FF                  A:00 X:FF Y:00 P:26 SP:FF CYC:319 SL:220
C7AB  29 80     AND #$80                        A:10 X:FF Y:00 P:24 SP:FF CYC:331 SL:220
C7AD  F0 F9     BEQ $C7A8                       A:00 X:FF Y:00 P:26 SP:FF CYC:337 SL:220
C7A8  AD 02 20  LDA $2002 = FF                  A:00 X:FF Y:00 P:26 SP:FF CYC:  5 SL:221
C7AB  29 80     AND #$80                        A:10 X:FF Y:00 P:24 SP:FF CYC: 17 SL:221
C7AD  F0 F9     BEQ $C7A8                       A:00 X:FF Y:00 P:26 SP:FF CYC: 23 SL:221
C7A8  AD 02 20  LDA $2002 = FF                  A:00 X:FF Y:00 P:26 SP:FF CYC: 32 SL:221
C7AB  29 80     AND #$80                        A:10 X:FF Y:00 P:24 SP:FF CYC: 44 SL:221
C7AD  F0 F9     BEQ $C7A8                       A:00 X:FF Y:00 P:26 SP:FF CYC: 50 SL:221
C7A8  AD 02 20  LDA $2002 = FF                  A:00 X:FF Y:00 P:26 SP:FF CYC: 59 SL:221
C7AB  29 80     AND #$80                        A:10 X:FF Y:00 P:24 SP:FF CYC: 71 SL:221
C7AD  F0 F9     BEQ $C7A8                       A:00 X:FF Y:00 P:26 SP:FF CYC: 77 SL:221
C7A8  AD 02 20  LDA $2002 = FF                  A:00 X:FF Y:00 P:26 SP:FF CYC: 86 SL:221
C7AB  29 80     AND #$80                        A:10 X:FF Y:00 P:24 SP:FF CYC: 98 SL:221
C7AD  F0 F9     BEQ $C7A8                       A:00 X:FF Y:00 P:26 SP:FF CYC:104 SL:221
C7A8  AD 02 20  LDA $2002 = FF                  A:00 X:FF Y:00 P:26 SP:FF CYC:113 SL:221
C7AB  29 80     AND #$80                        A:10 X:FF Y:00 P:24 SP:FF CYC:125 SL:221
C7AD  F0 F9     BEQ $C7A8                       A:00 X:FF Y:00 P:26 SP:FF CYC:131 SL:221
C7A8  AD 02 20  LDA $2002 = FF                  A:00 X:FF Y:00 P:26 SP:FF CYC:140 SL:221
C7AB  29 80     AND #$80                        A:10 X:FF Y:00 P:24 SP:FF CYC:152 SL:221
C7AD  F0 F9     BEQ $C7A8                       A:00 X:FF Y:00 P:26 SP:FF CYC:158 SL:221
C7A8  AD 02 20  LDA $2002 = FF                  A:00 X:FF Y:00 P:26 SP:FF CYC:167 SL:221
C7AB  29 80     AND #$80                        A:10 X:FF Y:00 P:24 SP:FF CYC:179 SL:221
C7AD  F0 F9     BEQ $C7A8                       A:00 X:FF Y:00 P:26 SP:FF CYC:185 SL:221
C7A8  AD 02 20  LDA $2002 = FF                  A:00 X:FF Y:00 P:26 SP:FF CYC:194 SL:221
C7AB  29 80     AND #$80                        A:10 X:FF Y:00 P:24 SP:FF CYC:206 SL:221
C7AD  F0 F9     BEQ $C7A8                       A:00 X:FF Y:00 P:26 SP:FF CYC:212 SL:221
C7A8  AD 02 20  LDA $2002 = FF                  A:00 X:FF Y:00 P:26 SP:FF CYC:221 SL:221
C7AB  29 80     AND #$80                        A:10 X:FF Y:00 P:24 SP:FF CYC:233 SL:221
C7AD  F0 F9     BEQ $C7A8                       A:00 X:FF Y:00 P:26 SP:FF CYC:239 SL:221
C7A8  AD 02 20  LDA $2002 = FF                  A:00 X:FF Y:00 P:26 SP:FF CYC:248 SL:221
C7AB  29 80     AND #$80                        A:10 X:FF Y:00 P:24 SP:FF CYC:260 SL:221
C7AD  F0 F9     BEQ $C7A8                       A:00 X:FF Y:00 P:26 SP:FF CYC:266 SL:221
C7A8  AD 02 20  LDA $2002 = FF                  A:00 X:FF Y:00 P:26 SP:FF CYC:275 SL:221
C7AB  29 80     AND #$80                        A:10 X:FF Y:00 P:24 SP:FF CYC:287 SL:221
C7AD  F0 F9     BEQ $C7A8                       A:00 X:FF Y:00 P:26 SP:FF CYC:293 SL:221
C7A8  AD 02 20  LDA $2002 = FF                  A:00 X:FF Y:00 P:26 SP:FF CYC:302 SL:221
C7AB  29 80     AND #$80                        A:10 X:FF Y:00 P:24 SP:FF CYC:314 SL:221
C7AD  F0 F9     BEQ $C7A8                       A:00 X:FF Y:00 P:26 SP:FF CYC:320 SL:221
C7A8  AD 02 20  LDA $2002 = FF                  A:00 X:FF Y:00 P:26 SP:FF CYC:329 SL:221
C7AB  29 80     AND #$80                        A:10 X:FF Y:00 P:24 SP:FF CYC:  0 SL:222
C7AD  F0 F9     BEQ $C7A8                       A:00 X:FF Y:00 P:26 SP:FF CYC:  6 SL:222
C7A8  AD 02 20  LDA $2002 = FF                  A:00 X:FF Y:00 P:26 SP:FF CYC: 15 SL:222
C7AB  29 80     AND #$80                        A:10 X:FF Y:00 P:24 SP:FF CYC: 27 SL:222
C7AD  F0 F9     BEQ $C7A8                       A:00 X:FF Y:00 P:26 SP:FF CYC: 33 SL:222
C7A8  AD 02 20  LDA $2002 = FF                  A:00 X:FF Y:00 P:26 SP:FF CYC: 42 SL:222
C7AB  29 80     AND #$80                        A:10 X:FF Y:00 P:24 SP:FF CYC: 54 SL:222
C7AD  F0 F9     BEQ $C7A8                       A:00 X:FF Y:00 P:26 SP:FF CYC: 60 SL:222
C7A8  AD 02 20  LDA $2002 = FF                  A:00 X:FF Y:00 P:26 SP:FF CYC: 69 SL:222
C7AB  29 80     AND #$80                        A:10 X:FF Y:00 P:24 SP:FF CYC: 81 SL:222
C7AD  F0 F9     BEQ $C7A8                       A:00 X:FF Y:00 P:26 SP:FF CYC: 87 SL:222
C7A8  AD 02 20  LDA $2002 = FF                  A:00 X:FF Y:00 P:26 SP:FF CYC: 96 SL:222
C7AB  29 80     AND #$80                        A:10 X:FF Y:00 P:24 SP:FF CYC:108 SL:222
C7AD  F0 F9     BEQ $C7A8                       A:00 X:FF Y:00 P:26 SP:FF CYC:114 SL:222
C7A8  AD 02 20  LDA $2002 = FF                  A:00 X:FF Y:00 P:26 SP:FF CYC:123 SL:222
C7AB  29 80     AND #$80                        A:10 X:FF Y:00 P:24 SP:FF CYC:135 SL:222
C7AD  F0 F9     BEQ $C7A8                       A:00 X:FF Y:00 P:26 SP:FF CYC:141 SL:222
C7A8  AD 02 20  LDA $2002 = FF                  A:00 X:FF Y:00 P:26 SP:FF CYC:150 SL:222
C7AB  29 80     AND #$80                        A:10 X:FF Y:00 P:24 SP:FF CYC:162 SL:222
C7AD  F0 F9     BEQ $C7A8                       A:00 X:FF Y:00 P:26 SP:FF CYC:168 SL:222
C7A8  AD 02 20  LDA $2002 = FF                  A:00 X:FF Y:00 P:26 SP:FF CYC:177 SL:222
C7AB  29 80     AND #$80                        A:10 X:FF Y:00 P:24 SP:FF CYC:189 SL:222
C7AD  F0 F9     BEQ $C7A8                       A:00 X:FF Y:00 P:26 SP:FF CYC:195 SL:222
C7A8  AD 02 20  LDA $2002 = FF                  A:00 X:FF Y:00 P:26 SP:FF CYC:204 SL:222
C7AB  29 80     AND #$80                        A:10 X:FF Y:00 P:24 SP:FF CYC:216 SL:222
C7AD  F0 F9     BEQ $C7A8                       A:00 X:FF Y:00 P:26 SP:FF CYC:222 SL:222
C7A8  AD 02 20  LDA $2002 = FF                  A:00 X:FF Y:00 P:26 SP:FF CYC:231 SL:222
C7AB  29 80     AND #$80                        A:10 X:FF Y:00 P:24 SP:FF CYC:243 SL:222
C7AD  F0 F9     BEQ $C7A8                       A:00 X:FF Y:00 P:26 SP:FF CYC:249 SL:222
C7A8  AD 02 20  LDA $2002 = FF                  A:00 X:FF Y:00 P:26 SP:FF CYC:258 SL:222
C7AB  29 80     AND #$80                        A:10 X:FF Y:00 P:24 SP:FF CYC:270 SL:222
C7AD  F0 F9     BEQ $C7A8                       A:00 X:FF Y:00 P:26 SP:FF CYC:276 SL:222
C7A8  AD 02 20  LDA $2002 = FF                  A:00 X:FF Y:00 P:26 SP:FF CYC:285 SL:222
C7AB  29 80     AND #$80                        A:10 X:FF Y:00 P:24 SP:FF CYC:297 SL:222
C7AD  F0 F9     BEQ $C7A8                       A:00 X:FF Y:00 P:26 SP:FF CYC:303 SL:222
C7A8  AD 02 20  LDA $2002 = FF                  A:00 X:FF Y:00 P:26 SP:FF CYC:312 SL:222
C7AB  29 80     AND #$80                        A:10 X:FF Y:00 P:24 SP:FF CYC:324 SL:222
C7AD  F0 F9     BEQ $C7A8                       A:00 X:FF Y:00 P:26 SP:FF CYC:330 SL:222
C7A8  AD 02 20  LDA $2002 = FF                  A:00 X:FF Y:00 P:26 SP:FF CYC:339 SL:222
C7AB  29 80     AND #$80                        A:10 X:FF Y:00 P:24 SP:FF CYC: 10 SL:223
C7AD  F0 F9     BEQ $C7A8                       A:00 X:FF Y:00 P:26 SP:FF CYC: 16 SL:223
C7A8  AD 02 20  LDA $2002 = FF                  A:00 X:FF Y:00 P:26 SP:FF CYC: 25 SL:223
C7AB  29 80     AND #$80                        A:10 X:FF Y:00 P:24 SP:FF CYC: 37 SL:223
C7AD  F0 F9     BEQ $C7A8                       A:00 X:FF Y:00 P:26 SP:FF CYC: 43 SL:223
C7A8  AD 02 20  LDA $2002 = FF                  A:00 X:FF Y:00 P:26 SP:FF CYC: 52 SL:223
C7AB  29 80     AND #$80                        A:10 X:FF Y:00 P:24 SP:FF CYC: 64 SL:223
C7AD  F0 F9     BEQ $C7A8                       A:00 X:FF Y:00 P:26 SP:FF CYC: 70 SL:223
C7A8  AD 02 20  LDA $2002 = FF                  A:00 X:FF Y:00 P:26 SP:FF CYC: 79 SL:223
C7AB  29 80     AND #$80                        A:10 X:FF Y:00 P:24 SP:FF CYC: 91 SL:223
C7AD  F0 F9     BEQ $C7A8                       A:00 X:FF Y:00 P:26 SP:FF CYC: 97 SL:223
C7A8  AD 02 20  LDA $2002 = FF                  A:00 X:FF Y:00 P:26 SP:FF CYC:106 SL:223
C7AB  29 80     AND #$80                        A:10 X:FF Y:00 P:24 SP:FF CYC:118 SL:223
C7AD  F0 F9     BEQ $C7A8                       A:00 X:FF Y:00 P:26 SP:FF CYC:124 SL:223
C7A8  AD 02 20  LDA $2002 = FF                  A:00 X:FF Y:00 P:26 SP:FF CYC:133 SL:223
C7AB  29 80     AND #$80                        A:10 X:FF Y:00 P:24 SP:FF CYC:145 SL:223
C7AD  F0 F9     BEQ $C7A8                       A:00 X:FF Y:00 P:26 SP:FF CYC:151 SL:223
C7A8  AD 02 20  LDA $2002 = FF                  A:00 X:FF Y:00 P:26 SP:FF CYC:160 SL:223
C7AB  29 80     AND #$80                        A:10 X:FF Y:00 P:24 SP:FF CYC:172 SL:223
C7AD  F0 F9     BEQ $C7A8                       A:00 X:FF Y:00 P:26 SP:FF CYC:178 SL:223
C7A8  AD 02 20  LDA $2002 = FF                  A:00 X:FF Y:00 P:26 SP:FF CYC:187 SL:223
C7AB  29 80     AND #$80                        A:10 X:FF Y:00 P:24 SP:FF CYC:199 SL:223
C7AD  F0 F9     BEQ $C7A8                       A:00 X:FF Y:00 P:26 SP:FF CYC:205 SL:223
C7A8  AD 02 20  LDA $2002 = FF                  A:00 X:FF Y:00 P:26 SP:FF CYC:214 SL:223
C7AB  29 80     AND #$80                        A:10 X:FF Y:00 P:24 SP:FF CYC:226 SL:223
C7AD  F0 F9     BEQ $C7A8                       A:00 X:FF Y:00 P:26 SP:FF CYC:232 SL:223
C7A8  AD 02 20  LDA $2002 = FF                  A:00 X:FF Y:00 P:26 SP:FF CYC:241 SL:223
C7AB  29 80     AND #$80                        A:10 X:FF Y:00 P:24 SP:FF CYC:253 SL:223
C7AD  F0 F9     BEQ $C7A8                       A:00 X:FF Y:00 P:26 SP:FF CYC:259 SL:223
C7A8  AD 02 20  LDA $2002 = FF                  A:00 X:FF Y:00 P:26 SP:FF CYC:268 SL:223
C7AB  29 80     AND #$80                        A:10 X:FF Y:00 P:24 SP:FF CYC:280 SL:223
C7AD  F0 F9     BEQ $C7A8                       A:00 X:FF Y:00 P:26 SP:FF CYC:286 SL:223
C7A8  AD 02 20  LDA $2002 = FF                  A:00 X:FF Y:00 P:26 SP:FF CYC:295 SL:223
C7AB  29 80     AND #$80                        A:10 X:FF Y:00 P:24 SP:FF CYC:307 SL:223
C7AD  F0 F9     BEQ $C7A8                       A:00 X:FF Y:00 P:26 SP:FF CYC:313 SL:223
C7A8  AD 02 20  LDA $2002 = FF                  A:00 X:FF Y:00 P:26 SP:FF CYC:322 SL:223
C7AB  29 80     AND #$80                        A:10 X:FF Y:00 P:24 SP:FF CYC:334 SL:223
C7AD  F0 F9     BEQ $C7A8                       A:00 X:FF Y:00 P:26 SP:FF CYC:340 SL:223
C7A8  AD 02 20  LDA $2002 = FF                  A:00 X:FF Y:00 P:26 SP:FF CYC:  8 SL:224
C7AB  29 80     AND #$80                        A:10 X:FF Y:00 P:24 SP:FF CYC: 20 SL:224
C7AD  F0 F9     BEQ $C7A8                       A:00 X:FF Y:00 P:26 SP:FF CYC: 26 SL:224
C7A8  AD 02 20  LDA $2002 = FF                  A:00 X:FF Y:00 P:26 SP:FF CYC: 35 SL:224
C7AB  29 80     AND #$80                        A:10 X:FF Y:00 P:24 SP:FF CYC: 47 SL:224
C7AD  F0 F9     BEQ $C7A8                       A:00 X:FF Y:00 P:26 SP:FF CYC: 53 SL:224
C7A8  AD 02 20  LDA $2002 = FF                  A:00 X:FF Y:00 P:26 SP:FF CYC: 62 SL:224
C7AB  29 80     AND #$80                        A:10 X:FF Y:00 P:24 SP:FF CYC: 74 SL:224
C7AD  F0 F9     BEQ $C7A8                       A:00 X:FF Y:00 P:26 SP:FF CYC: 80 SL:224
C7A8  AD 02 20  LDA $2002 = FF                  A:00 X:FF Y:00 P:26 SP:FF CYC: 89 SL:224
C7AB  29 80     AND #$80                        A:10 X:FF Y:00 P:24 SP:FF CYC:101 SL:224
C7AD  F0 F9     BEQ $C7A8                       A:00 X:FF Y:00 P:26 SP:FF CYC:107 SL:224
C7A8  AD 02 20  LDA $2002 = FF                  A:00 X:FF Y:00 P:26 SP:FF CYC:116 SL:224
C7AB  29 80     AND #$80                        A:10 X:FF Y:00 P:24 SP:FF CYC:128 SL:224
C7AD  F0 F9     BEQ $C7A8                       A:00 X:FF Y:00 P:26 SP:FF CYC:134 SL:224
C7A8  AD 02 20  LDA $2002 = FF                  A:00 X:FF Y:00 P:26 SP:FF CYC:143 SL:224
C7AB  29 80     AND #$80                        A:10 X:FF Y:00 P:24 SP:FF CYC:155 SL:224
C7AD  F0 F9     BEQ $C7A8                       A:00 X:FF Y:00 P:26 SP:FF CYC:161 SL:224
C7A8  AD 02 20  LDA $2002 = FF                  A:00 X:FF Y:00 P:26 SP:FF CYC:170 SL:224
C7AB  29 80     AND #$80                        A:10 X:FF Y:00 P:24 SP:FF CYC:182 SL:224
C7AD  F0 F9     BEQ $C7A8                       A:00 X:FF Y:00 P:26 SP:FF CYC:188 SL:224
C7A8  AD 02 20  LDA $2002 = FF                  A:00 X:FF Y:00 P:26 SP:FF CYC:197 SL:224
C7AB  29 80     AND #$80                        A:10 X:FF Y:00 P:24 SP:FF CYC:209 SL:224
C7AD  F0 F9     BEQ $C7A8                       A:00 X:FF Y:00 P:26 SP:FF CYC:215 SL:224
C7A8  AD 02 20  LDA $2002 = FF                  A:00 X:FF Y:00 P:26 SP:FF CYC:224 SL:224
C7AB  29 80     AND #$80                        A:10 X:FF Y:00 P:24 SP:FF CYC:236 SL:224
C7AD  F0 F9     BEQ $C7A8                       A:00 X:FF Y:00 P:26 SP:FF CYC:242 SL:224
C7A8  AD 02 20  LDA $2002 = FF                  A:00 X:FF Y:00 P:26 SP:FF CYC:251 SL:224
C7AB  29 80     AND #$80                        A:10 X:FF Y:00 P:24 SP:FF CYC:263 SL:224
C7AD  F0 F9     BEQ $C7A8                       A:00 X:FF Y:00 P:26 SP:FF CYC:269 SL:224
C7A8  AD 02 20  LDA $2002 = FF                  A:00 X:FF Y:00 P:26 SP:FF CYC:278 SL:224
C7AB  29 80     AND #$80                        A:10 X:FF Y:00 P:24 SP:FF CYC:290 SL:224
C7AD  F0 F9     BEQ $C7A8                       A:00 X:FF Y:00 P:26 SP:FF CYC:296 SL:224
C7A8  AD 02 20  LDA $2002 = FF                  A:00 X:FF Y:00 P:26 SP:FF CYC:305 SL:224
C7AB  29 80     AND #$80                        A:10 X:FF Y:00 P:24 SP:FF CYC:317 SL:224
C7AD  F0 F9     BEQ $C7A8                       A:00 X:FF Y:00 P:26 SP:FF CYC:323 SL:224
C7A8  AD 02 20  LDA $2002 = FF                  A:00 X:FF Y:00 P:26 SP:FF CYC:332 SL:224
C7AB  29 80     AND #$80                        A:10 X:FF Y:00 P:24 SP:FF CYC:  3 SL:225
C7AD  F0 F9     BEQ $C7A8                       A:00 X:FF Y:00 P:26 SP:FF CYC:  9 SL:225
C7A8  AD 02 20  LDA $2002 = FF                  A:00 X:FF Y:00 P:26 SP:FF CYC: 18 SL:225
C7AB  29 80     AND #$80                        A:10 X:FF Y:00 P:24 SP:FF CYC: 30 SL:225
C7AD  F0 F9     BEQ $C7A8                       A:00 X:FF Y:00 P:26 SP:FF CYC: 36 SL:225
C7A8  AD 02 20  LDA $2002 = FF                  A:00 X:FF Y:00 P:26 SP:FF CYC: 45 SL:225
C7AB  29 80     AND #$80                        A:10 X:FF Y:00 P:24 SP:FF CYC: 57 SL:225
C7AD  F0 F9     BEQ $C7A8                       A:00 X:FF Y:00 P:26 SP:FF CYC: 63 SL:225
C7A8  AD 02 20  LDA $2002 = FF                  A:00 X:FF Y:00 P:26 SP:FF CYC: 72 SL:225
C7AB  29 80     AND #$80                        A:10 X:FF Y:00 P:24 SP:FF CYC: 84 SL:225
C7AD  F0 F9     BEQ $C7A8                       A:00 X:FF Y:00 P:26 SP:FF CYC: 90 SL:225
C7A8  AD 02 20  LDA $2002 = FF                  A:00 X:FF Y:00 P:26 SP:FF CYC: 99 SL:225
C7AB  29 80     AND #$80                        A:10 X:FF Y:00 P:24 SP:FF CYC:111 SL:225
C7AD  F0 F9     BEQ $C7A8                       A:00 X:FF Y:00 P:26 SP:FF CYC:117 SL:225
C7A8  AD 02 20  LDA $2002 = FF                  A:00 X:FF Y:00 P:26 SP:FF CYC:126 SL:225
C7AB  29 80     AND #$80                        A:10 X:FF Y:00 P:24 SP:FF CYC:138 SL:225
C7AD  F0 F9     BEQ $C7A8                       A:00 X:FF Y:00 P:26 SP:FF CYC:144 SL:225
C7A8  AD 02 20  LDA $2002 = FF                  A:00 X:FF Y:00 P:26 SP:FF CYC:153 SL:225
C7AB  29 80     AND #$80                        A:10 X:FF Y:00 P:24 SP:FF CYC:165 SL:225
C7AD  F0 F9     BEQ $C7A8                       A:00 X:FF Y:00 P:26 SP:FF CYC:171 SL:225
C7A8  AD 02 20  LDA $2002 = FF                  A:00 X:FF Y:00 P:26 SP:FF CYC:180 SL:225
C7AB  29 80     AND #$80                        A:10 X:FF Y:00 P:24 SP:FF CYC:192 SL:225
C7AD  F0 F9     BEQ $C7A8                       A:00 X:FF Y:00 P:26 SP:FF CYC:198 SL:225
C7A8  AD 02 20  LDA $2002 = FF                  A:00 X:FF Y:00 P:26 SP:FF CYC:207 SL:225
C7AB  29 80     AND #$80                        A:10 X:FF Y:00 P:24 SP:FF CYC:219 SL:225
C7AD  F0 F9     BEQ $C7A8                       A:00 X:FF Y:00 P:26 SP:FF CYC:225 SL:225
C7A8  AD 02 20  LDA $2002 = FF                  A:00 X:FF Y:00 P:26 SP:FF CYC:234 SL:225
C7AB  29 80     AND #$80                        A:10 X:FF Y:00 P:24 SP:FF CYC:246 SL:225
C7AD  F0 F9     BEQ $C7A8                       A:00 X:FF Y:00 P:26 SP:FF CYC:252 SL:225
C7A8  AD 02 20  LDA $2002 = FF                  A:00 X:FF Y:00 P:26 SP:FF CYC:261 SL:225
C7AB  29 80     AND #$80                        A:10 X:FF Y:00 P:24 SP:FF CYC:273 SL:225
C7AD  F0 F9     BEQ $C7A8                       A:00 X:FF Y:00 P:26 SP:FF CYC:279 SL:225
C7A8  AD 02 20  LDA $2002 = FF                  A:00 X:FF Y:00 P:26 SP:FF CYC:288 SL:225
C7AB  29 80     AND #$80                        A:10 X:FF Y:00 P:24 SP:FF CYC:300 SL:225
C7AD  F0 F9     BEQ $C7A8                       A:00 X:FF Y:00 P:26 SP:FF CYC:306 SL:225
C7A8  AD 02 20  LDA $2002 = FF                  A:00 X:FF Y:00 P:26 SP:FF CYC:315 SL:225
C7AB  29 80     AND #$80                        A:10 X:FF Y:00 P:24 SP:FF CYC:327 SL:225
C7AD  F0 F9     BEQ $C7A8                       A:00 X:FF Y:00 P:26 SP:FF CYC:333 SL:225
C7A8  AD 02 20  LDA $2002 = FF                  A:00 X:FF Y:00 P:26 SP:FF CYC:  1 SL:226
C7AB  29 80     AND #$80                        A:10 X:FF Y:00 P:24 SP:FF CYC: 13 SL:226
C7AD  F0 F9     BEQ $C7A8                       A:00 X:FF Y:00 P:26 SP:FF CYC: 19 SL:226
C7A8  AD 02 20  LDA $2002 = FF                  A:00 X:FF Y:00 P:26 SP:FF CYC: 28 SL:226
C7AB  29 80     AND #$80                        A:10 X:FF Y:00 P:24 SP:FF CYC: 40 SL:226
C7AD  F0 F9     BEQ $C7A8                       A:00 X:FF Y:00 P:26 SP:FF CYC: 46 SL:226
C7A8  AD 02 20  LDA $2002 = FF                  A:00 X:FF Y:00 P:26 SP:FF CYC: 55 SL:226
C7AB  29 80     AND #$80                        A:10 X:FF Y:00 P:24 SP:FF CYC: 67 SL:226
C7AD  F0 F9     BEQ $C7A8                       A:00 X:FF Y:00 P:26 SP:FF CYC: 73 SL:226
C7A8  AD 02 20  LDA $2002 = FF                  A:00 X:FF Y:00 P:26 SP:FF CYC: 82 SL:226
C7AB  29 80     AND #$80                        A:10 X:FF Y:00 P:24 SP:FF CYC: 94 SL:226
C7AD  F0 F9     BEQ $C7A8                       A:00 X:FF Y:00 P:26 SP:FF CYC:100 SL:226
C7A8  AD 02 20  LDA $2002 = FF                  A:00 X:FF Y:00 P:26 SP:FF CYC:109 SL:226
C7AB  29 80     AND #$80                        A:10 X:FF Y:00 P:24 SP:FF CYC:121 SL:226
C7AD  F0 F9     BEQ $C7A8                       A:00 X:FF Y:00 P:26 SP:FF CYC:127 SL:226
C7A8  AD 02 20  LDA $2002 = FF                  A:00 X:FF Y:00 P:26 SP:FF CYC:136 SL:226
C7AB  29 80     AND #$80                        A:10 X:FF Y:00 P:24 SP:FF CYC:148 SL:226
C7AD  F0 F9     BEQ $C7A8                       A:00 X:FF Y:00 P:26 SP:FF CYC:154 SL:226
C7A8  AD 02 20  LDA $2002 = FF                  A:00 X:FF Y:00 P:26 SP:FF CYC:163 SL:226
C7AB  29 80     AND #$80                        A:10 X:FF Y:00 P:24 SP:FF CYC:175 SL:226
C7AD  F0 F9     BEQ $C7A8                       A:00 X:FF Y:00 P:26 SP:FF CYC:181 SL:226
C7A8  AD 02 20  LDA $2002 = FF                  A:00 X:FF Y:00 P:26 SP:FF CYC:190 SL:226
C7AB  29 80     AND #$80                        A:10 X:FF Y:00 P:24 SP:FF CYC:202 SL:226
C7AD  F0 F9     BEQ $C7A8                       A:00 X:FF Y:00 P:26 SP:FF CYC:208 SL:226
C7A8  AD 02 20  LDA $2002 = FF                  A:00 X:FF Y:00 P:26 SP:FF CYC:217 SL:226
C7AB  29 80     AND #$80                        A:10 X:FF Y:00 P:24 SP:FF CYC:229 SL:226
C7AD  F0 F9     BEQ $C7A8                       A:00 X:FF Y:00 P:26 SP:FF CYC:235 SL:226
C7A8  AD 02 20  LDA $2002 = FF                  A:00 X:FF Y:00 P:26 SP:FF CYC:244 SL:226
C7AB  29 80     AND #$80                        A:10 X:FF Y:00 P:24 SP:FF CYC:256 SL:226
C7AD  F0 F9     BEQ $C7A8                       A:00 X:FF Y:00 P:26 SP:FF CYC:262 SL:226
C7A8  AD 02 20  LDA $2002 = FF                  A:00 X:FF Y:00 P:26 SP:FF CYC:271 SL:226
C7AB  29 80     AND #$80                        A:10 X:FF Y:00 P:24 SP:FF CYC:283 SL:226
C7AD  F0 F9     BEQ $C7A8                       A:00 X:FF Y:00 P:26 SP:FF CYC:289 SL:226
C7A8  AD 02 20  LDA $2002 = FF                  A:00 X:FF Y:00 P:26 SP:FF CYC:298 SL:226
C7AB  29 80     AND #$80                        A:10 X:FF Y:00 P:24 SP:FF CYC:310 SL:226
C7AD  F0 F9     BEQ $C7A8                       A:00 X:FF Y:00 P:26 SP:FF CYC:316 SL:226
C7A8  AD 02 20  LDA $2002 = FF                  A:00 X:FF Y:00 P:26 SP:FF CYC:325 SL:226
C7AB  29 80     AND #$80                        A:10 X:FF Y:00 P:24 SP:FF CYC:337 SL:226
C7AD  F0 F9     BEQ $C7A8                       A:00 X:FF Y:00 P:26 SP:FF CYC:  2 SL:227
C7A8  AD 02 20  LDA $2002 = FF                  A:00 X:FF Y:00 P:26 SP:FF CYC: 11 SL:227
C7AB  29 80     AND #$80                        A:10 X:FF Y:00 P:24 SP:FF CYC: 23 SL:227
C7AD  F0 F9     BEQ $C7A8                       A:00 X:FF Y:00 P:26 SP:FF CYC: 29 SL:227
C7A8  AD 02 20  LDA $2002 = FF                  A:00 X:FF Y:00 P:26 SP:FF CYC: 38 SL:227
C7AB  29 80     AND #$80                        A:10 X:FF Y:00 P:24 SP:FF CYC: 50 SL:227
C7AD  F0 F9     BEQ $C7A8                       A:00 X:FF Y:00 P:26 SP:FF CYC: 56 SL:227
C7A8  AD 02 20  LDA $2002 = FF                  A:00 X:FF Y:00 P:26 SP:FF CYC: 65 SL:227
C7AB  29 80     AND #$80                        A:10 X:FF Y:00 P:24 SP:FF CYC: 77 SL:227
C7AD  F0 F9     BEQ $C7A8                       A:00 X:FF Y:00 P:26 SP:FF CYC: 83 SL:227
C7A8  AD 02 20  LDA $2002 = FF                  A:00 X:FF Y:00 P:26 SP:FF CYC: 92 SL:227
C7AB  29 80     AND #$80                        A:10 X:FF Y:00 P:24 SP:FF CYC:104 SL:227
C7AD  F0 F9     BEQ $C7A8                       A:00 X:FF Y:00 P:26 SP:FF CYC:110 SL:227
C7A8  AD 02 20  LDA $2002 = FF                  A:00 X:FF Y:00 P:26 SP:FF CYC:119 SL:227
C7AB  29 80     AND #$80                        A:10 X:FF Y:00 P:24 SP:FF CYC:131 SL:227
C7AD  F0 F9     BEQ $C7A8                       A:00 X:FF Y:00 P:26 SP:FF CYC:137 SL:227
C7A8  AD 02 20  LDA $2002 = FF                  A:00 X:FF Y:00 P:26 SP:FF CYC:146 SL:227
C7AB  29 80     AND #$80                        A:10 X:FF Y:00 P:24 SP:FF CYC:158 SL:227
C7AD  F0 F9     BEQ $C7A8                       A:00 X:FF Y:00 P:26 SP:FF CYC:164 SL:227
C7A8  AD 02 20  LDA $2002 = FF                  A:00 X:FF Y:00 P:26 SP:FF CYC:173 SL:227
C7AB  29 80     AND #$80                        A:10 X:FF Y:00 P:24 SP:FF CYC:185 SL:227
C7AD  F0 F9     BEQ $C7A8                       A:00 X:FF Y:00 P:26 SP:FF CYC:191 SL:227
C7A8  AD 02 20  LDA $2002 = FF                  A:00 X:FF Y:00 P:26 SP:FF CYC:200 SL:227
C7AB  29 80     AND #$80                        A:10 X:FF Y:00 P:24 SP:FF CYC:212 SL:227
C7AD  F0 F9     BEQ $C7A8                       A:00 X:FF Y:00 P:26 SP:FF CYC:218 SL:227
C7A8  AD 02 20  LDA $2002 = FF                  A:00 X:FF Y:00 P:26 SP:FF CYC:227 SL:227
C7AB  29 80     AND #$80                        A:10 X:FF Y:00 P:24 SP:FF CYC:239 SL:227
C7AD  F0 F9     BEQ $C7A8                       A:00 X:FF Y:00 P:26 SP:FF CYC:245 SL:227
C7A8  AD 02 20  LDA $2002 = FF                  A:00 X:FF Y:00 P:26 SP:FF CYC:254 SL:227
C7AB  29 80     AND #$80                        A:10 X:FF Y:00 P:24 SP:FF CYC:266 SL:227
C7AD  F0 F9     BEQ $C7A8                       A:00 X:FF Y:00 P:26 SP:FF CYC:272 SL:227
C7A8  AD 02 20  LDA $2002 = FF                  A:00 X:FF Y:00 P:26 SP:FF CYC:281 SL:227
C7AB  29 80     AND #$80                        A:10 X:FF Y:00 P:24 SP:FF CYC:293 SL:227
C7AD  F0 F9     BEQ $C7A8                       A:00 X:FF Y:00 P:26 SP:FF CYC:299 SL:227
C7A8  AD 02 20  LDA $2002 = FF                  A:00 X:FF Y:00 P:26 SP:FF CYC:308 SL:227
C7AB  29 80     AND #$80                        A:10 X:FF Y:00 P:24 SP:FF CYC:320 SL:227
C7AD  F0 F9     BEQ $C7A8                       A:00 X:FF Y:00 P:26 SP:FF CYC:326 SL:227
C7A8  AD 02 20  LDA $2002 = FF                  A:00 X:FF Y:00 P:26 SP:FF CYC:335 SL:227
C7AB  29 80     AND #$80                        A:10 X:FF Y:00 P:24 SP:FF CYC:  6 SL:228
C7AD  F0 F9     BEQ $C7A8                       A:00 X:FF Y:00 P:26 SP:FF CYC: 12 SL:228
C7A8  AD 02 20  LDA $2002 = FF                  A:00 X:FF Y:00 P:26 SP:FF CYC: 21 SL:228
C7AB  29 80     AND #$80                        A:10 X:FF Y:00 P:24 SP:FF CYC: 33 SL:228
C7AD  F0 F9     BEQ $C7A8                       A:00 X:FF Y:00 P:26 SP:FF CYC: 39 SL:228
C7A8  AD 02 20  LDA $2002 = FF                  A:00 X:FF Y:00 P:26 SP:FF CYC: 48 SL:228
C7AB  29 80     AND #$80                        A:10 X:FF Y:00 P:24 SP:FF CYC: 60 SL:228
C7AD  F0 F9     BEQ $C7A8                       A:00 X:FF Y:00 P:26 SP:FF CYC: 66 SL:228
C7A8  AD 02 20  LDA $2002 = FF                  A:00 X:FF Y:00 P:26 SP:FF CYC: 75 SL:228
C7AB  29 80     AND #$80                        A:10 X:FF Y:00 P:24 SP:FF CYC: 87 SL:228
C7AD  F0 F9     BEQ $C7A8                       A:00 X:FF Y:00 P:26 SP:FF CYC: 93 SL:228
C7A8  AD 02 20  LDA $2002 = FF                  A:00 X:FF Y:00 P:26 SP:FF CYC:102 SL:228
C7AB  29 80     AND #$80                        A:10 X:FF Y:00 P:24 SP:FF CYC:114 SL:228
C7AD  F0 F9     BEQ $C7A8                       A:00 X:FF Y:00 P:26 SP:FF CYC:120 SL:228
C7A8  AD 02 20  LDA $2002 = FF                  A:00 X:FF Y:00 P:26 SP:FF CYC:129 SL:228
C7AB  29 80     AND #$80                        A:10 X:FF Y:00 P:24 SP:FF CYC:141 SL:228
C7AD  F0 F9     BEQ $C7A8                       A:00 X:FF Y:00 P:26 SP:FF CYC:147 SL:228
C7A8  AD 02 20  LDA $2002 = FF                  A:00 X:FF Y:00 P:26 SP:FF CYC:156 SL:228
C7AB  29 80     AND #$80                        A:10 X:FF Y:00 P:24 SP:FF CYC:168 SL:228
C7AD  F0 F9     BEQ $C7A8                       A:00 X:FF Y:00 P:26 SP:FF CYC:174 SL:228
C7A8  AD 02 20  LDA $2002 = FF                  A:00 X:FF Y:00 P:26 SP:FF CYC:183 SL:228
C7AB  29 80     AND #$80                        A:10 X:FF Y:00 P:24 SP:FF CYC:195 SL:228
C7AD  F0 F9     BEQ $C7A8                       A:00 X:FF Y:00 P:26 SP:FF CYC:201 SL:228
C7A8  AD 02 20  LDA $2002 = FF                  A:00 X:FF Y:00 P:26 SP:FF CYC:210 SL:228
C7AB  29 80     AND #$80                        A:10 X:FF Y:00 P:24 SP:FF CYC:222 SL:228
C7AD  F0 F9     BEQ $C7A8                       A:00 X:FF Y:00 P:26 SP:FF CYC:228 SL:228
C7A8  AD 02 20  LDA $2002 = FF                  A:00 X:FF Y:00 P:26 SP:FF CYC:237 SL:228
C7AB  29 80     AND #$80                        A:10 X:FF Y:00 P:24 SP:FF CYC:249 SL:228
C7AD  F0 F9     BEQ $C7A8                       A:00 X:FF Y:00 P:26 SP:FF CYC:255 SL:228
C7A8  AD 02 20  LDA $2002 = FF                  A:00 X:FF Y:00 P:26 SP:FF CYC:264 SL:228
C7AB  29 80     AND #$80                        A:10 X:FF Y:00 P:24 SP:FF CYC:276 SL:228
C7AD  F0 F9     BEQ $C7A8                       A:00 X:FF Y:00 P:26 SP:FF CYC:282 SL:228
C7A8  AD 02 20  LDA $2002 = FF                  A:00 X:FF Y:00 P:26 SP:FF CYC:291 SL:228
C7AB  29 80     AND #$80                        A:10 X:FF Y:00 P:24 SP:FF CYC:303 SL:228
C7AD  F0 F9     BEQ $C7A8                       A:00 X:FF Y:00 P:26 SP:FF CYC:309 SL:228
C7A8  AD 02 20  LDA $2002 = FF                  A:00 X:FF Y:00 P:26 SP:FF CYC:318 SL:228
C7AB  29 80     AND #$80                        A:10 X:FF Y:00 P:24 SP:FF CYC:330 SL:228
C7AD  F0 F9     BEQ $C7A8                       A:00 X:FF Y:00 P:26 SP:FF CYC:336 SL:228
C7A8  AD 02 20  LDA $2002 = FF                  A:00 X:FF Y:00 P:26 SP:FF CYC:  4 SL:229
C7AB  29 80     AND #$80                        A:10 X:FF Y:00 P:24 SP:FF CYC: 16 SL:229
C7AD  F0 F9     BEQ $C7A8                       A:00 X:FF Y:00 P:26 SP:FF CYC: 22 SL:229
C7A8  AD 02 20  LDA $2002 = FF                  A:00 X:FF Y:00 P:26 SP:FF CYC: 31 SL:229
C7AB  29 80     AND #$80                        A:10 X:FF Y:00 P:24 SP:FF CYC: 43 SL:229
C7AD  F0 F9     BEQ $C7A8                       A:00 X:FF Y:00 P:26 SP:FF CYC: 49 SL:229
C7A8  AD 02 20  LDA $2002 = FF                  A:00 X:FF Y:00 P:26 SP:FF CYC: 58 SL:229
C7AB  29 80     AND #$80                        A:10 X:FF Y:00 P:24 SP:FF CYC: 70 SL:229
C7AD  F0 F9     BEQ $C7A8                       A:00 X:FF Y:00 P:26 SP:FF CYC: 76 SL:229
C7A8  AD 02 20  LDA $2002 = FF                  A:00 X:FF Y:00 P:26 SP:FF CYC: 85 SL:229
C7AB  29 80     AND #$80                        A:10 X:FF Y:00 P:24 SP:FF CYC: 97 SL:229
C7AD  F0 F9     BEQ $C7A8                       A:00 X:FF Y:00 P:26 SP:FF CYC:103 SL:229
C7A8  AD 02 20  LDA $2002 = FF                  A:00 X:FF Y:00 P:26 SP:FF CYC:112 SL:229
C7AB  29 80     AND #$80                        A:10 X:FF Y:00 P:24 SP:FF CYC:124 SL:229
C7AD  F0 F9     BEQ $C7A8                       A:00 X:FF Y:00 P:26 SP:FF CYC:130 SL:229
C7A8  AD 02 20  LDA $2002 = FF                  A:00 X:FF Y:00 P:26 SP:FF CYC:139 SL:229
C7AB  29 80     AND #$80                        A:10 X:FF Y:00 P:24 SP:FF CYC:151 SL:229
C7AD  F0 F9     BEQ $C7A8                       A:00 X:FF Y:00 P:26 SP:FF CYC:157 SL:229
C7A8  AD 02 20  LDA $2002 = FF                  A:00 X:FF Y:00 P:26 SP:FF CYC:166 SL:229
C7AB  29 80     AND #$80                        A:10 X:FF Y:00 P:24 SP:FF CYC:178 SL:229
C7AD  F0 F9     BEQ $C7A8                       A:00 X:FF Y:00 P:26 SP:FF CYC:184 SL:229
C7A8  AD 02 20  LDA $2002 = FF                  A:00 X:FF Y:00 P:26 SP:FF CYC:193 SL:229
C7AB  29 80     AND #$80                        A:10 X:FF Y:00 P:24 SP:FF CYC:205 SL:229
C7AD  F0 F9     BEQ $C7A8                       A:00 X:FF Y:00 P:26 SP:FF CYC:211 SL:229
C7A8  AD 02 20  LDA $2002 = FF                  A:00 X:FF Y:00 P:26 SP:FF CYC:220 SL:229
C7AB  29 80     AND #$80                        A:10 X:FF Y:00 P:24 SP:FF CYC:232 SL:229
C7AD  F0 F9     BEQ $C7A8                       A:00 X:FF Y:00 P:26 SP:FF CYC:238 SL:229
C7A8  AD 02 20  LDA $2002 = FF                  A:00 X:FF Y:00 P:26 SP:FF CYC:247 SL:229
C7AB  29 80     AND #$80                        A:10 X:FF Y:00 P:24 SP:FF CYC:259 SL:229
C7AD  F0 F9     BEQ $C7A8                       A:00 X:FF Y:00 P:26 SP:FF CYC:265 SL:229
C7A8  AD 02 20  LDA $2002 = FF                  A:00 X:FF Y:00 P:26 SP:FF CYC:274 SL:229
C7AB  29 80     AND #$80                        A:10 X:FF Y:00 P:24 SP:FF CYC:286 SL:229
C7AD  F0 F9     BEQ $C7A8                       A:00 X:FF Y:00 P:26 SP:FF CYC:292 SL:229
C7A8  AD 02 20  LDA $2002 = FF                  A:00 X:FF Y:00 P:26 SP:FF CYC:301 SL:229
C7AB  29 80     AND #$80                        A:10 X:FF Y:00 P:24 SP:FF CYC:313 SL:229
C7AD  F0 F9     BEQ $C7A8                       A:00 X:FF Y:00 P:26 SP:FF CYC:319 SL:229
C7A8  AD 02 20  LDA $2002 = FF                  A:00 X:FF Y:00 P:26 SP:FF CYC:328 SL:229
C7AB  29 80     AND #$80                        A:10 X:FF Y:00 P:24 SP:FF CYC:340 SL:229
C7AD  F0 F9     BEQ $C7A8                       A:00 X:FF Y:00 P:26 SP:FF CYC:  5 SL:230
C7A8  AD 02 20  LDA $2002 = FF                  A:00 X:FF Y:00 P:26 SP:FF CYC: 14 SL:230
C7AB  29 80     AND #$80                        A:10 X:FF Y:00 P:24 SP:FF CYC: 26 SL:230
C7AD  F0 F9     BEQ $C7A8                       A:00 X:FF Y:00 P:26 SP:FF CYC: 32 SL:230
C7A8  AD 02 20  LDA $2002 = FF                  A:00 X:FF Y:00 P:26 SP:FF CYC: 41 SL:230
C7AB  29 80     AND #$80                        A:10 X:FF Y:00 P:24 SP:FF CYC: 53 SL:230
C7AD  F0 F9     BEQ $C7A8                       A:00 X:FF Y:00 P:26 SP:FF CYC: 59 SL:230
C7A8  AD 02 20  LDA $2002 = FF                  A:00 X:FF Y:00 P:26 SP:FF CYC: 68 SL:230
C7AB  29 80     AND #$80                        A:10 X:FF Y:00 P:24 SP:FF CYC: 80 SL:230
C7AD  F0 F9     BEQ $C7A8                       A:00 X:FF Y:00 P:26 SP:FF CYC: 86 SL:230
C7A8  AD 02 20  LDA $2002 = FF                  A:00 X:FF Y:00 P:26 SP:FF CYC: 95 SL:230
C7AB  29 80     AND #$80                        A:10 X:FF Y:00 P:24 SP:FF CYC:107 SL:230
C7AD  F0 F9     BEQ $C7A8                       A:00 X:FF Y:00 P:26 SP:FF CYC:113 SL:230
C7A8  AD 02 20  LDA $2002 = FF                  A:00 X:FF Y:00 P:26 SP:FF CYC:122 SL:230
C7AB  29 80     AND #$80                        A:10 X:FF Y:00 P:24 SP:FF CYC:134 SL:230
C7AD  F0 F9     BEQ $C7A8                       A:00 X:FF Y:00 P:26 SP:FF CYC:140 SL:230
C7A8  AD 02 20  LDA $2002 = FF                  A:00 X:FF Y:00 P:26 SP:FF CYC:149 SL:230
C7AB  29 80     AND #$80                        A:10 X:FF Y:00 P:24 SP:FF CYC:161 SL:230
C7AD  F0 F9     BEQ $C7A8                       A:00 X:FF Y:00 P:26 SP:FF CYC:167 SL:230
C7A8  AD 02 20  LDA $2002 = FF                  A:00 X:FF Y:00 P:26 SP:FF CYC:176 SL:230
C7AB  29 80     AND #$80                        A:10 X:FF Y:00 P:24 SP:FF CYC:188 SL:230
C7AD  F0 F9     BEQ $C7A8                       A:00 X:FF Y:00 P:26 SP:FF CYC:194 SL:230
C7A8  AD 02 20  LDA $2002 = FF                  A:00 X:FF Y:00 P:26 SP:FF CYC:203 SL:230
C7AB  29 80     AND #$80                        A:10 X:FF Y:00 P:24 SP:FF CYC:215 SL:230
C7AD  F0 F9     BEQ $C7A8                       A:00 X:FF Y:00 P:26 SP:FF CYC:221 SL:230
C7A8  AD 02 20  LDA $2002 = FF                  A:00 X:FF Y:00 P:26 SP:FF CYC:230 SL:230
C7AB  29 80     AND #$80                        A:10 X:FF Y:00 P:24 SP:FF CYC:242 SL:230
C7AD  F0 F9     BEQ $C7A8                       A:00 X:FF Y:00 P:26 SP:FF CYC:248 SL:230
C7A8  AD 02 20  LDA $2002 = FF                  A:00 X:FF Y:00 P:26 SP:FF CYC:257 SL:230
C7AB  29 80     AND #$80                        A:10 X:FF Y:00 P:24 SP:FF CYC:269 SL:230
C7AD  F0 F9     BEQ $C7A8                       A:00 X:FF Y:00 P:26 SP:FF CYC:275 SL:230
C7A8  AD 02 20  LDA $2002 = FF                  A:00 X:FF Y:00 P:26 SP:FF CYC:284 SL:230
C7AB  29 80     AND #$80                        A:10 X:FF Y:00 P:24 SP:FF CYC:296 SL:230
C7AD  F0 F9     BEQ $C7A8                       A:00 X:FF Y:00 P:26 SP:FF CYC:302 SL:230
C7A8  AD 02 20  LDA $2002 = FF                  A:00 X:FF Y:00 P:26 SP:FF CYC:311 SL:230
C7AB  29 80     AND #$80                        A:10 X:FF Y:00 P:24 SP:FF CYC:323 SL:230
C7AD  F0 F9     BEQ $C7A8                       A:00 X:FF Y:00 P:26 SP:FF CYC:329 SL:230
C7A8  AD 02 20  LDA $2002 = FF                  A:00 X:FF Y:00 P:26 SP:FF CYC:338 SL:230
C7AB  29 80     AND #$80                        A:10 X:FF Y:00 P:24 SP:FF CYC:  9 SL:231
C7AD  F0 F9     BEQ $C7A8                       A:00 X:FF Y:00 P:26 SP:FF CYC: 15 SL:231
C7A8  AD 02 20  LDA $2002 = FF                  A:00 X:FF Y:00 P:26 SP:FF CYC: 24 SL:231
C7AB  29 80     AND #$80                        A:10 X:FF Y:00 P:24 SP:FF CYC: 36 SL:231
C7AD  F0 F9     BEQ $C7A8                       A:00 X:FF Y:00 P:26 SP:FF CYC: 42 SL:231
C7A8  AD 02 20  LDA $2002 = FF                  A:00 X:FF Y:00 P:26 SP:FF CYC: 51 SL:231
C7AB  29 80     AND #$80                        A:10 X:FF Y:00 P:24 SP:FF CYC: 63 SL:231
C7AD  F0 F9     BEQ $C7A8                       A:00 X:FF Y:00 P:26 SP:FF CYC: 69 SL:231
C7A8  AD 02 20  LDA $2002 = FF                  A:00 X:FF Y:00 P:26 SP:FF CYC: 78 SL:231
C7AB  29 80     AND #$80                        A:10 X:FF Y:00 P:24 SP:FF CYC: 90 SL:231
C7AD  F0 F9     BEQ $C7A8                       A:00 X:FF Y:00 P:26 SP:FF CYC: 96 SL:231
C7A8  AD 02 20  LDA $2002 = FF                  A:00 X:FF Y:00 P:26 SP:FF CYC:105 SL:231
C7AB  29 80     AND #$80                        A:10 X:FF Y:00 P:24 SP:FF CYC:117 SL:231
C7AD  F0 F9     BEQ $C7A8                       A:00 X:FF Y:00 P:26 SP:FF CYC:123 SL:231
C7A8  AD 02 20  LDA $2002 = FF                  A:00 X:FF Y:00 P:26 SP:FF CYC:132 SL:231
C7AB  29 80     AND #$80                        A:10 X:FF Y:00 P:24 SP:FF CYC:144 SL:231
C7AD  F0 F9     BEQ $C7A8                       A:00 X:FF Y:00 P:26 SP:FF CYC:150 SL:231
C7A8  AD 02 20  LDA $2002 = FF                  A:00 X:FF Y:00 P:26 SP:FF CYC:159 SL:231
C7AB  29 80     AND #$80                        A:10 X:FF Y:00 P:24 SP:FF CYC:171 SL:231
C7AD  F0 F9     BEQ $C7A8                       A:00 X:FF Y:00 P:26 SP:FF CYC:177 SL:231
C7A8  AD 02 20  LDA $2002 = FF                  A:00 X:FF Y:00 P:26 SP:FF CYC:186 SL:231
C7AB  29 80     AND #$80                        A:10 X:FF Y:00 P:24 SP:FF CYC:198 SL:231
C7AD  F0 F9     BEQ $C7A8                       A:00 X:FF Y:00 P:26 SP:FF CYC:204 SL:231
C7A8  AD 02 20  LDA $2002 = FF                  A:00 X:FF Y:00 P:26 SP:FF CYC:213 SL:231
C7AB  29 80     AND #$80                        A:10 X:FF Y:00 P:24 SP:FF CYC:225 SL:231
C7AD  F0 F9     BEQ $C7A8                       A:00 X:FF Y:00 P:26 SP:FF CYC:231 SL:231
C7A8  AD 02 20  LDA $2002 = FF                  A:00 X:FF Y:00 P:26 SP:FF CYC:240 SL:231
C7AB  29 80     AND #$80                        A:10 X:FF Y:00 P:24 SP:FF CYC:252 SL:231
C7AD  F0 F9     BEQ $C7A8                       A:00 X:FF Y:00 P:26 SP:FF CYC:258 SL:231
C7A8  AD 02 20  LDA $2002 = FF                  A:00 X:FF Y:00 P:26 SP:FF CYC:267 SL:231
C7AB  29 80     AND #$80                        A:10 X:FF Y:00 P:24 SP:FF CYC:279 SL:231
C7AD  F0 F9     BEQ $C7A8                       A:00 X:FF Y:00 P:26 SP:FF CYC:285 SL:231
C7A8  AD 02 20  LDA $2002 = FF                  A:00 X:FF Y:00 P:26 SP:FF CYC:294 SL:231
C7AB  29 80     AND #$80                        A:10 X:FF Y:00 P:24 SP:FF CYC:306 SL:231
C7AD  F0 F9     BEQ $C7A8                       A:00 X:FF Y:00 P:26 SP:FF CYC:312 SL:231
C7A8  AD 02 20  LDA $2002 = FF                  A:00 X:FF Y:00 P:26 SP:FF CYC:321 SL:231
C7AB  29 80     AND #$80                        A:10 X:FF Y:00 P:24 SP:FF CYC:333 SL:231
C7AD  F0 F9     BEQ $C7A8                       A:00 X:FF Y:00 P:26 SP:FF CYC:339 SL:231
C7A8  AD 02 20  LDA $2002 = FF                  A:00 X:FF Y:00 P:26 SP:FF CYC:  7 SL:232
C7AB  29 80     AND #$80                        A:10 X:FF Y:00 P:24 SP:FF CYC: 19 SL:232
C7AD  F0 F9     BEQ $C7A8                       A:00 X:FF Y:00 P:26 SP:FF CYC: 25 SL:232
C7A8  AD 02 20  LDA $2002 = FF                  A:00 X:FF Y:00 P:26 SP:FF CYC: 34 SL:232
C7AB  29 80     AND #$80                        A:10 X:FF Y:00 P:24 SP:FF CYC: 46 SL:232
C7AD  F0 F9     BEQ $C7A8                       A:00 X:FF Y:00 P:26 SP:FF CYC: 52 SL:232
C7A8  AD 02 20  LDA $2002 = FF                  A:00 X:FF Y:00 P:26 SP:FF CYC: 61 SL:232
C7AB  29 80     AND #$80                        A:10 X:FF Y:00 P:24 SP:FF CYC: 73 SL:232
C7AD  F0 F9     BEQ $C7A8                       A:00 X:FF Y:00 P:26 SP:FF CYC: 79 SL:232
C7A8  AD 02 20  LDA $2002 = FF                  A:00 X:FF Y:00 P:26 SP:FF CYC: 88 SL:232
C7AB  29 80     AND #$80                        A:10 X:FF Y:00 P:24 SP:FF CYC:100 SL:232
C7AD  F0 F9     BEQ $C7A8                       A:00 X:FF Y:00 P:26 SP:FF CYC:106 SL:232
C7A8  AD 02 20  LDA $2002 = FF                  A:00 X:FF Y:00 P:26 SP:FF CYC:115 SL:232
C7AB  29 80     AND #$80                        A:10 X:FF Y:00 P:24 SP:FF CYC:127 SL:232
C7AD  F0 F9     BEQ $C7A8                       A:00 X:FF Y:00 P:26 SP:FF CYC:133 SL:232
C7A8  AD 02 20  LDA $2002 = FF                  A:00 X:FF Y:00 P:26 SP:FF CYC:142 SL:232
C7AB  29 80     AND #$80                        A:10 X:FF Y:00 P:24 SP:FF CYC:154 SL:232
C7AD  F0 F9     BEQ $C7A8                       A:00 X:FF Y:00 P:26 SP:FF CYC:160 SL:232
C7A8  AD 02 20  LDA $2002 = FF                  A:00 X:FF Y:00 P:26 SP:FF CYC:169 SL:232
C7AB  29 80     AND #$80                        A:10 X:FF Y:00 P:24 SP:FF CYC:181 SL:232
C7AD  F0 F9     BEQ $C7A8                       A:00 X:FF Y:00 P:26 SP:FF CYC:187 SL:232
C7A8  AD 02 20  LDA $2002 = FF                  A:00 X:FF Y:00 P:26 SP:FF CYC:196 SL:232
C7AB  29 80     AND #$80                        A:10 X:FF Y:00 P:24 SP:FF CYC:208 SL:232
C7AD  F0 F9     BEQ $C7A8                       A:00 X:FF Y:00 P:26 SP:FF CYC:214 SL:232
C7A8  AD 02 20  LDA $2002 = FF                  A:00 X:FF Y:00 P:26 SP:FF CYC:223 SL:232
C7AB  29 80     AND #$80                        A:10 X:FF Y:00 P:24 SP:FF CYC:235 SL:232
C7AD  F0 F9     BEQ $C7A8                       A:00 X:FF Y:00 P:26 SP:FF CYC:241 SL:232
C7A8  AD 02 20  LDA $2002 = FF                  A:00 X:FF Y:00 P:26 SP:FF CYC:250 SL:232
C7AB  29 80     AND #$80                        A:10 X:FF Y:00 P:24 SP:FF CYC:262 SL:232
C7AD  F0 F9     BEQ $C7A8                       A:00 X:FF Y:00 P:26 SP:FF CYC:268 SL:232
C7A8  AD 02 20  LDA $2002 = FF                  A:00 X:FF Y:00 P:26 SP:FF CYC:277 SL:232
C7AB  29 80     AND #$80                        A:10 X:FF Y:00 P:24 SP:FF CYC:289 SL:232
C7AD  F0 F9     BEQ $C7A8                       A:00 X:FF Y:00 P:26 SP:FF CYC:295 SL:232
C7A8  AD 02 20  LDA $2002 = FF                  A:00 X:FF Y:00 P:26 SP:FF CYC:304 SL:232
C7AB  29 80     AND #$80                        A:10 X:FF Y:00 P:24 SP:FF CYC:316 SL:232
C7AD  F0 F9     BEQ $C7A8                       A:00 X:FF Y:00 P:26 SP:FF CYC:322 SL:232
C7A8  AD 02 20  LDA $2002 = FF                  A:00 X:FF Y:00 P:26 SP:FF CYC:331 SL:232
C7AB  29 80     AND #$80                        A:10 X:FF Y:00 P:24 SP:FF CYC:  2 SL:233
C7AD  F0 F9     BEQ $C7A8                       A:00 X:FF Y:00 P:26 SP:FF CYC:  8 SL:233
C7A8  AD 02 20  LDA $2002 = FF                  A:00 X:FF Y:00 P:26 SP:FF CYC: 17 SL:233
C7AB  29 80     AND #$80                        A:10 X:FF Y:00 P:24 SP:FF CYC: 29 SL:233
C7AD  F0 F9     BEQ $C7A8                       A:00 X:FF Y:00 P:26 SP:FF CYC: 35 SL:233
C7A8  AD 02 20  LDA $2002 = FF                  A:00 X:FF Y:00 P:26 SP:FF CYC: 44 SL:233
C7AB  29 80     AND #$80                        A:10 X:FF Y:00 P:24 SP:FF CYC: 56 SL:233
C7AD  F0 F9     BEQ $C7A8                       A:00 X:FF Y:00 P:26 SP:FF CYC: 62 SL:233
C7A8  AD 02 20  LDA $2002 = FF                  A:00 X:FF Y:00 P:26 SP:FF CYC: 71 SL:233
C7AB  29 80     AND #$80                        A:10 X:FF Y:00 P:24 SP:FF CYC: 83 SL:233
C7AD  F0 F9     BEQ $C7A8                       A:00 X:FF Y:00 P:26 SP:FF CYC: 89 SL:233
C7A8  AD 02 20  LDA $2002 = FF                  A:00 X:FF Y:00 P:26 SP:FF CYC: 98 SL:233
C7AB  29 80     AND #$80                        A:10 X:FF Y:00 P:24 SP:FF CYC:110 SL:233
C7AD  F0 F9     BEQ $C7A8                       A:00 X:FF Y:00 P:26 SP:FF CYC:116 SL:233
C7A8  AD 02 20  LDA $2002 = FF                  A:00 X:FF Y:00 P:26 SP:FF CYC:125 SL:233
C7AB  29 80     AND #$80                        A:10 X:FF Y:00 P:24 SP:FF CYC:137 SL:233
C7AD  F0 F9     BEQ $C7A8                       A:00 X:FF Y:00 P:26 SP:FF CYC:143 SL:233
C7A8  AD 02 20  LDA $2002 = FF                  A:00 X:FF Y:00 P:26 SP:FF CYC:152 SL:233
C7AB  29 80     AND #$80                        A:10 X:FF Y:00 P:24 SP:FF CYC:164 SL:233
C7AD  F0 F9     BEQ $C7A8                       A:00 X:FF Y:00 P:26 SP:FF CYC:170 SL:233
C7A8  AD 02 20  LDA $2002 = FF                  A:00 X:FF Y:00 P:26 SP:FF CYC:179 SL:233
C7AB  29 80     AND #$80                        A:10 X:FF Y:00 P:24 SP:FF CYC:191 SL:233
C7AD  F0 F9     BEQ $C7A8                       A:00 X:FF Y:00 P:26 SP:FF CYC:197 SL:233
C7A8  AD 02 20  LDA $2002 = FF                  A:00 X:FF Y:00 P:26 SP:FF CYC:206 SL:233
C7AB  29 80     AND #$80                        A:10 X:FF Y:00 P:24 SP:FF CYC:218 SL:233
C7AD  F0 F9     BEQ $C7A8                       A:00 X:FF Y:00 P:26 SP:FF CYC:224 SL:233
C7A8  AD 02 20  LDA $2002 = FF                  A:00 X:FF Y:00 P:26 SP:FF CYC:233 SL:233
C7AB  29 80     AND #$80                        A:10 X:FF Y:00 P:24 SP:FF CYC:245 SL:233
C7AD  F0 F9     BEQ $C7A8                       A:00 X:FF Y:00 P:26 SP:FF CYC:251 SL:233
C7A8  AD 02 20  LDA $2002 = FF                  A:00 X:FF Y:00 P:26 SP:FF CYC:260 SL:233
C7AB  29 80     AND #$80                        A:10 X:FF Y:00 P:24 SP:FF CYC:272 SL:233
C7AD  F0 F9     BEQ $C7A8                       A:00 X:FF Y:00 P:26 SP:FF CYC:278 SL:233
C7A8  AD 02 20  LDA $2002 = FF                  A:00 X:FF Y:00 P:26 SP:FF CYC:287 SL:233
C7AB  29 80     AND #$80                        A:10 X:FF Y:00 P:24 SP:FF CYC:299 SL:233
C7AD  F0 F9     BEQ $C7A8                       A:00 X:FF Y:00 P:26 SP:FF CYC:305 SL:233
C7A8  AD 02 20  LDA $2002 = FF                  A:00 X:FF Y:00 P:26 SP:FF CYC:314 SL:233
C7AB  29 80     AND #$80                        A:10 X:FF Y:00 P:24 SP:FF CYC:326 SL:233
C7AD  F0 F9     BEQ $C7A8                       A:00 X:FF Y:00 P:26 SP:FF CYC:332 SL:233
C7A8  AD 02 20  LDA $2002 = FF                  A:00 X:FF Y:00 P:26 SP:FF CYC:  0 SL:234
C7AB  29 80     AND #$80                        A:10 X:FF Y:00 P:24 SP:FF CYC: 12 SL:234
C7AD  F0 F9     BEQ $C7A8                       A:00 X:FF Y:00 P:26 SP:FF CYC: 18 SL:234
C7A8  AD 02 20  LDA $2002 = FF                  A:00 X:FF Y:00 P:26 SP:FF CYC: 27 SL:234
C7AB  29 80     AND #$80                        A:10 X:FF Y:00 P:24 SP:FF CYC: 39 SL:234
C7AD  F0 F9     BEQ $C7A8                       A:00 X:FF Y:00 P:26 SP:FF CYC: 45 SL:234
C7A8  AD 02 20  LDA $2002 = FF                  A:00 X:FF Y:00 P:26 SP:FF CYC: 54 SL:234
C7AB  29 80     AND #$80                        A:10 X:FF Y:00 P:24 SP:FF CYC: 66 SL:234
C7AD  F0 F9     BEQ $C7A8                       A:00 X:FF Y:00 P:26 SP:FF CYC: 72 SL:234
C7A8  AD 02 20  LDA $2002 = FF                  A:00 X:FF Y:00 P:26 SP:FF CYC: 81 SL:234
C7AB  29 80     AND #$80                        A:10 X:FF Y:00 P:24 SP:FF CYC: 93 SL:234
C7AD  F0 F9     BEQ $C7A8                       A:00 X:FF Y:00 P:26 SP:FF CYC: 99 SL:234
C7A8  AD 02 20  LDA $2002 = FF                  A:00 X:FF Y:00 P:26 SP:FF CYC:108 SL:234
C7AB  29 80     AND #$80                        A:10 X:FF Y:00 P:24 SP:FF CYC:120 SL:234
C7AD  F0 F9     BEQ $C7A8                       A:00 X:FF Y:00 P:26 SP:FF CYC:126 SL:234
C7A8  AD 02 20  LDA $2002 = FF                  A:00 X:FF Y:00 P:26 SP:FF CYC:135 SL:234
C7AB  29 80     AND #$80                        A:10 X:FF Y:00 P:24 SP:FF CYC:147 SL:234
C7AD  F0 F9     BEQ $C7A8                       A:00 X:FF Y:00 P:26 SP:FF CYC:153 SL:234
C7A8  AD 02 20  LDA $2002 = FF                  A:00 X:FF Y:00 P:26 SP:FF CYC:162 SL:234
C7AB  29 80     AND #$80                        A:10 X:FF Y:00 P:24 SP:FF CYC:174 SL:234
C7AD  F0 F9     BEQ $C7A8                       A:00 X:FF Y:00 P:26 SP:FF CYC:180 SL:234
C7A8  AD 02 20  LDA $2002 = FF                  A:00 X:FF Y:00 P:26 SP:FF CYC:189 SL:234
C7AB  29 80     AND #$80                        A:10 X:FF Y:00 P:24 SP:FF CYC:201 SL:234
C7AD  F0 F9     BEQ $C7A8                       A:00 X:FF Y:00 P:26 SP:FF CYC:207 SL:234
C7A8  AD 02 20  LDA $2002 = FF                  A:00 X:FF Y:00 P:26 SP:FF CYC:216 SL:234
C7AB  29 80     AND #$80                        A:10 X:FF Y:00 P:24 SP:FF CYC:228 SL:234
C7AD  F0 F9     BEQ $C7A8                       A:00 X:FF Y:00 P:26 SP:FF CYC:234 SL:234
C7A8  AD 02 20  LDA $2002 = FF                  A:00 X:FF Y:00 P:26 SP:FF CYC:243 SL:234
C7AB  29 80     AND #$80                        A:10 X:FF Y:00 P:24 SP:FF CYC:255 SL:234
C7AD  F0 F9     BEQ $C7A8                       A:00 X:FF Y:00 P:26 SP:FF CYC:261 SL:234
C7A8  AD 02 20  LDA $2002 = FF                  A:00 X:FF Y:00 P:26 SP:FF CYC:270 SL:234
C7AB  29 80     AND #$80                        A:10 X:FF Y:00 P:24 SP:FF CYC:282 SL:234
C7AD  F0 F9     BEQ $C7A8                       A:00 X:FF Y:00 P:26 SP:FF CYC:288 SL:234
C7A8  AD 02 20  LDA $2002 = FF                  A:00 X:FF Y:00 P:26 SP:FF CYC:297 SL:234
C7AB  29 80     AND #$80                        A:10 X:FF Y:00 P:24 SP:FF CYC:309 SL:234
C7AD  F0 F9     BEQ $C7A8                       A:00 X:FF Y:00 P:26 SP:FF CYC:315 SL:234
C7A8  AD 02 20  LDA $2002 = FF                  A:00 X:FF Y:00 P:26 SP:FF CYC:324 SL:234
C7AB  29 80     AND #$80                        A:10 X:FF Y:00 P:24 SP:FF CYC:336 SL:234
C7AD  F0 F9     BEQ $C7A8                       A:00 X:FF Y:00 P:26 SP:FF CYC:  1 SL:235
C7A8  AD 02 20  LDA $2002 = FF                  A:00 X:FF Y:00 P:26 SP:FF CYC: 10 SL:235
C7AB  29 80     AND #$80                        A:10 X:FF Y:00 P:24 SP:FF CYC: 22 SL:235
C7AD  F0 F9     BEQ $C7A8                       A:00 X:FF Y:00 P:26 SP:FF CYC: 28 SL:235
C7A8  AD 02 20  LDA $2002 = FF                  A:00 X:FF Y:00 P:26 SP:FF CYC: 37 SL:235
C7AB  29 80     AND #$80                        A:10 X:FF Y:00 P:24 SP:FF CYC: 49 SL:235
C7AD  F0 F9     BEQ $C7A8                       A:00 X:FF Y:00 P:26 SP:FF CYC: 55 SL:235
C7A8  AD 02 20  LDA $2002 = FF                  A:00 X:FF Y:00 P:26 SP:FF CYC: 64 SL:235
C7AB  29 80     AND #$80                        A:10 X:FF Y:00 P:24 SP:FF CYC: 76 SL:235
C7AD  F0 F9     BEQ $C7A8                       A:00 X:FF Y:00 P:26 SP:FF CYC: 82 SL:235
C7A8  AD 02 20  LDA $2002 = FF                  A:00 X:FF Y:00 P:26 SP:FF CYC: 91 SL:235
C7AB  29 80     AND #$80                        A:10 X:FF Y:00 P:24 SP:FF CYC:103 SL:235
C7AD  F0 F9     BEQ $C7A8                       A:00 X:FF Y:00 P:26 SP:FF CYC:109 SL:235
C7A8  AD 02 20  LDA $2002 = FF                  A:00 X:FF Y:00 P:26 SP:FF CYC:118 SL:235
C7AB  29 80     AND #$80                        A:10 X:FF Y:00 P:24 SP:FF CYC:130 SL:235
C7AD  F0 F9     BEQ $C7A8                       A:00 X:FF Y:00 P:26 SP:FF CYC:136 SL:235
C7A8  AD 02 20  LDA $2002 = FF                  A:00 X:FF Y:00 P:26 SP:FF CYC:145 SL:235
C7AB  29 80     AND #$80                        A:10 X:FF Y:00 P:24 SP:FF CYC:157 SL:235
C7AD  F0 F9     BEQ $C7A8                       A:00 X:FF Y:00 P:26 SP:FF CYC:163 SL:235
C7A8  AD 02 20  LDA $2002 = FF                  A:00 X:FF Y:00 P:26 SP:FF CYC:172 SL:235
C7AB  29 80     AND #$80                        A:10 X:FF Y:00 P:24 SP:FF CYC:184 SL:235
C7AD  F0 F9     BEQ $C7A8                       A:00 X:FF Y:00 P:26 SP:FF CYC:190 SL:235
C7A8  AD 02 20  LDA $2002 = FF                  A:00 X:FF Y:00 P:26 SP:FF CYC:199 SL:235
C7AB  29 80     AND #$80                        A:10 X:FF Y:00 P:24 SP:FF CYC:211 SL:235
C7AD  F0 F9     BEQ $C7A8                       A:00 X:FF Y:00 P:26 SP:FF CYC:217 SL:235
C7A8  AD 02 20  LDA $2002 = FF                  A:00 X:FF Y:00 P:26 SP:FF CYC:226 SL:235
C7AB  29 80     AND #$80                        A:10 X:FF Y:00 P:24 SP:FF CYC:238 SL:235
C7AD  F0 F9     BEQ $C7A8                       A:00 X:FF Y:00 P:26 SP:FF CYC:244 SL:235
C7A8  AD 02 20  LDA $2002 = FF                  A:00 X:FF Y:00 P:26 SP:FF CYC:253 SL:235
C7AB  29 80     AND #$80                        A:10 X:FF Y:00 P:24 SP:FF CYC:265 SL:235
C7AD  F0 F9     BEQ $C7A8                       A:00 X:FF Y:00 P:26 SP:FF CYC:271 SL:235
C7A8  AD 02 20  LDA $2002 = FF                  A:00 X:FF Y:00 P:26 SP:FF CYC:280 SL:235
C7AB  29 80     AND #$80                        A:10 X:FF Y:00 P:24 SP:FF CYC:292 SL:235
C7AD  F0 F9     BEQ $C7A8                       A:00 X:FF Y:00 P:26 SP:FF CYC:298 SL:235
C7A8  AD 02 20  LDA $2002 = FF                  A:00 X:FF Y:00 P:26 SP:FF CYC:307 SL:235
C7AB  29 80     AND #$80                        A:10 X:FF Y:00 P:24 SP:FF CYC:319 SL:235
C7AD  F0 F9     BEQ $C7A8                       A:00 X:FF Y:00 P:26 SP:FF CYC:325 SL:235
C7A8  AD 02 20  LDA $2002 = FF                  A:00 X:FF Y:00 P:26 SP:FF CYC:334 SL:235
C7AB  29 80     AND #$80                        A:10 X:FF Y:00 P:24 SP:FF CYC:  5 SL:236
C7AD  F0 F9     BEQ $C7A8                       A:00 X:FF Y:00 P:26 SP:FF CYC: 11 SL:236
C7A8  AD 02 20  LDA $2002 = FF                  A:00 X:FF Y:00 P:26 SP:FF CYC: 20 SL:236
C7AB  29 80     AND #$80                        A:10 X:FF Y:00 P:24 SP:FF CYC: 32 SL:236
C7AD  F0 F9     BEQ $C7A8                       A:00 X:FF Y:00 P:26 SP:FF CYC: 38 SL:236
C7A8  AD 02 20  LDA $2002 = FF                  A:00 X:FF Y:00 P:26 SP:FF CYC: 47 SL:236
C7AB  29 80     AND #$80                        A:10 X:FF Y:00 P:24 SP:FF CYC: 59 SL:236
C7AD  F0 F9     BEQ $C7A8                       A:00 X:FF Y:00 P:26 SP:FF CYC: 65 SL:236
C7A8  AD 02 20  LDA $2002 = FF                  A:00 X:FF Y:00 P:26 SP:FF CYC: 74 SL:236
C7AB  29 80     AND #$80                        A:10 X:FF Y:00 P:24 SP:FF CYC: 86 SL:236
C7AD  F0 F9     BEQ $C7A8                       A:00 X:FF Y:00 P:26 SP:FF CYC: 92 SL:236
C7A8  AD 02 20  LDA $2002 = FF                  A:00 X:FF Y:00 P:26 SP:FF CYC:101 SL:236
C7AB  29 80     AND #$80                        A:10 X:FF Y:00 P:24 SP:FF CYC:113 SL:236
C7AD  F0 F9     BEQ $C7A8                       A:00 X:FF Y:00 P:26 SP:FF CYC:119 SL:236
C7A8  AD 02 20  LDA $2002 = FF                  A:00 X:FF Y:00 P:26 SP:FF CYC:128 SL:236
C7AB  29 80     AND #$80                        A:10 X:FF Y:00 P:24 SP:FF CYC:140 SL:236
C7AD  F0 F9     BEQ $C7A8                       A:00 X:FF Y:00 P:26 SP:FF CYC:146 SL:236
C7A8  AD 02 20  LDA $2002 = FF                  A:00 X:FF Y:00 P:26 SP:FF CYC:155 SL:236
C7AB  29 80     AND #$80                        A:10 X:FF Y:00 P:24 SP:FF CYC:167 SL:236
C7AD  F0 F9     BEQ $C7A8                       A:00 X:FF Y:00 P:26 SP:FF CYC:173 SL:236
C7A8  AD 02 20  LDA $2002 = FF                  A:00 X:FF Y:00 P:26 SP:FF CYC:182 SL:236
C7AB  29 80     AND #$80                        A:10 X:FF Y:00 P:24 SP:FF CYC:194 SL:236
C7AD  F0 F9     BEQ $C7A8                       A:00 X:FF Y:00 P:26 SP:FF CYC:200 SL:236
C7A8  AD 02 20  LDA $2002 = FF                  A:00 X:FF Y:00 P:26 SP:FF CYC:209 SL:236
C7AB  29 80     AND #$80                        A:10 X:FF Y:00 P:24 SP:FF CYC:221 SL:236
C7AD  F0 F9     BEQ $C7A8                       A:00 X:FF Y:00 P:26 SP:FF CYC:227 SL:236
C7A8  AD 02 20  LDA $2002 = FF                  A:00 X:FF Y:00 P:26 SP:FF CYC:236 SL:236
C7AB  29 80     AND #$80                        A:10 X:FF Y:00 P:24 SP:FF CYC:248 SL:236
C7AD  F0 F9     BEQ $C7A8                       A:00 X:FF Y:00 P:26 SP:FF CYC:254 SL:236
C7A8  AD 02 20  LDA $2002 = FF                  A:00 X:FF Y:00 P:26 SP:FF CYC:263 SL:236
C7AB  29 80     AND #$80                        A:10 X:FF Y:00 P:24 SP:FF CYC:275 SL:236
C7AD  F0 F9     BEQ $C7A8                       A:00 X:FF Y:00 P:26 SP:FF CYC:281 SL:236
C7A8  AD 02 20  LDA $2002 = FF                  A:00 X:FF Y:00 P:26 SP:FF CYC:290 SL:236
C7AB  29 80     AND #$80                        A:10 X:FF Y:00 P:24 SP:FF CYC:302 SL:236
C7AD  F0 F9     BEQ $C7A8                       A:00 X:FF Y:00 P:26 SP:FF CYC:308 SL:236
C7A8  AD 02 20  LDA $2002 = FF                  A:00 X:FF Y:00 P:26 SP:FF CYC:317 SL:236
C7AB  29 80     AND #$80                        A:10 X:FF Y:00 P:24 SP:FF CYC:329 SL:236
C7AD  F0 F9     BEQ $C7A8                       A:00 X:FF Y:00 P:26 SP:FF CYC:335 SL:236
C7A8  AD 02 20  LDA $2002 = FF                  A:00 X:FF Y:00 P:26 SP:FF CYC:  3 SL:237
C7AB  29 80     AND #$80                        A:10 X:FF Y:00 P:24 SP:FF CYC: 15 SL:237
C7AD  F0 F9     BEQ $C7A8                       A:00 X:FF Y:00 P:26 SP:FF CYC: 21 SL:237
C7A8  AD 02 20  LDA $2002 = FF                  A:00 X:FF Y:00 P:26 SP:FF CYC: 30 SL:237
C7AB  29 80     AND #$80                        A:10 X:FF Y:00 P:24 SP:FF CYC: 42 SL:237
C7AD  F0 F9     BEQ $C7A8                       A:00 X:FF Y:00 P:26 SP:FF CYC: 48 SL:237
C7A8  AD 02 20  LDA $2002 = FF                  A:00 X:FF Y:00 P:26 SP:FF CYC: 57 SL:237
C7AB  29 80     AND #$80                        A:10 X:FF Y:00 P:24 SP:FF CYC: 69 SL:237
C7AD  F0 F9     BEQ $C7A8                       A:00 X:FF Y:00 P:26 SP:FF CYC: 75 SL:237
C7A8  AD 02 20  LDA $2002 = FF                  A:00 X:FF Y:00 P:26 SP:FF CYC: 84 SL:237
C7AB  29 80     AND #$80                        A:10 X:FF Y:00 P:24 SP:FF CYC: 96 SL:237
C7AD  F0 F9     BEQ $C7A8                       A:00 X:FF Y:00 P:26 SP:FF CYC:102 SL:237
C7A8  AD 02 20  LDA $2002 = FF                  A:00 X:FF Y:00 P:26 SP:FF CYC:111 SL:237
C7AB  29 80     AND #$80                        A:10 X:FF Y:00 P:24 SP:FF CYC:123 SL:237
C7AD  F0 F9     BEQ $C7A8                       A:00 X:FF Y:00 P:26 SP:FF CYC:129 SL:237
C7A8  AD 02 20  LDA $2002 = FF                  A:00 X:FF Y:00 P:26 SP:FF CYC:138 SL:237
C7AB  29 80     AND #$80                        A:10 X:FF Y:00 P:24 SP:FF CYC:150 SL:237
C7AD  F0 F9     BEQ $C7A8                       A:00 X:FF Y:00 P:26 SP:FF CYC:156 SL:237
C7A8  AD 02 20  LDA $2002 = FF                  A:00 X:FF Y:00 P:26 SP:FF CYC:165 SL:237
C7AB  29 80     AND #$80                        A:10 X:FF Y:00 P:24 SP:FF CYC:177 SL:237
C7AD  F0 F9     BEQ $C7A8                       A:00 X:FF Y:00 P:26 SP:FF CYC:183 SL:237
C7A8  AD 02 20  LDA $2002 = FF                  A:00 X:FF Y:00 P:26 SP:FF CYC:192 SL:237
C7AB  29 80     AND #$80                        A:10 X:FF Y:00 P:24 SP:FF CYC:204 SL:237
C7AD  F0 F9     BEQ $C7A8                       A:00 X:FF Y:00 P:26 SP:FF CYC:210 SL:237
C7A8  AD 02 20  LDA $2002 = FF                  A:00 X:FF Y:00 P:26 SP:FF CYC:219 SL:237
C7AB  29 80     AND #$80                        A:10 X:FF Y:00 P:24 SP:FF CYC:231 SL:237
C7AD  F0 F9     BEQ $C7A8                       A:00 X:FF Y:00 P:26 SP:FF CYC:237 SL:237
C7A8  AD 02 20  LDA $2002 = FF                  A:00 X:FF Y:00 P:26 SP:FF CYC:246 SL:237
C7AB  29 80     AND #$80                        A:10 X:FF Y:00 P:24 SP:FF CYC:258 SL:237
C7AD  F0 F9     BEQ $C7A8                       A:00 X:FF Y:00 P:26 SP:FF CYC:264 SL:237
C7A8  AD 02 20  LDA $2002 = FF                  A:00 X:FF Y:00 P:26 SP:FF CYC:273 SL:237
C7AB  29 80     AND #$80                        A:10 X:FF Y:00 P:24 SP:FF CYC:285 SL:237
C7AD  F0 F9     BEQ $C7A8                       A:00 X:FF Y:00 P:26 SP:FF CYC:291 SL:237
C7A8  AD 02 20  LDA $2002 = FF                  A:00 X:FF Y:00 P:26 SP:FF CYC:300 SL:237
C7AB  29 80     AND #$80                        A:10 X:FF Y:00 P:24 SP:FF CYC:312 SL:237
C7AD  F0 F9     BEQ $C7A8                       A:00 X:FF Y:00 P:26 SP:FF CYC:318 SL:237
C7A8  AD 02 20  LDA $2002 = FF                  A:00 X:FF Y:00 P:26 SP:FF CYC:327 SL:237
C7AB  29 80     AND #$80                        A:10 X:FF Y:00 P:24 SP:FF CYC:339 SL:237
C7AD  F0 F9     BEQ $C7A8                       A:00 X:FF Y:00 P:26 SP:FF CYC:  4 SL:238
C7A8  AD 02 20  LDA $2002 = FF                  A:00 X:FF Y:00 P:26 SP:FF CYC: 13 SL:238
C7AB  29 80     AND #$80                        A:10 X:FF Y:00 P:24 SP:FF CYC: 25 SL:238
C7AD  F0 F9     BEQ $C7A8                       A:00 X:FF Y:00 P:26 SP:FF CYC: 31 SL:238
C7A8  AD 02 20  LDA $2002 = FF                  A:00 X:FF Y:00 P:26 SP:FF CYC: 40 SL:238
C7AB  29 80     AND #$80                        A:10 X:FF Y:00 P:24 SP:FF CYC: 52 SL:238
C7AD  F0 F9     BEQ $C7A8                       A:00 X:FF Y:00 P:26 SP:FF CYC: 58 SL:238
C7A8  AD 02 20  LDA $2002 = FF                  A:00 X:FF Y:00 P:26 SP:FF CYC: 67 SL:238
C7AB  29 80     AND #$80                        A:10 X:FF Y:00 P:24 SP:FF CYC: 79 SL:238
C7AD  F0 F9     BEQ $C7A8                       A:00 X:FF Y:00 P:26 SP:FF CYC: 85 SL:238
C7A8  AD 02 20  LDA $2002 = FF                  A:00 X:FF Y:00 P:26 SP:FF CYC: 94 SL:238
C7AB  29 80     AND #$80                        A:10 X:FF Y:00 P:24 SP:FF CYC:106 SL:238
C7AD  F0 F9     BEQ $C7A8                       A:00 X:FF Y:00 P:26 SP:FF CYC:112 SL:238
C7A8  AD 02 20  LDA $2002 = FF                  A:00 X:FF Y:00 P:26 SP:FF CYC:121 SL:238
C7AB  29 80     AND #$80                        A:10 X:FF Y:00 P:24 SP:FF CYC:133 SL:238
C7AD  F0 F9     BEQ $C7A8                       A:00 X:FF Y:00 P:26 SP:FF CYC:139 SL:238
C7A8  AD 02 20  LDA $2002 = FF                  A:00 X:FF Y:00 P:26 SP:FF CYC:148 SL:238
C7AB  29 80     AND #$80                        A:10 X:FF Y:00 P:24 SP:FF CYC:160 SL:238
C7AD  F0 F9     BEQ $C7A8                       A:00 X:FF Y:00 P:26 SP:FF CYC:166 SL:238
C7A8  AD 02 20  LDA $2002 = FF                  A:00 X:FF Y:00 P:26 SP:FF CYC:175 SL:238
C7AB  29 80     AND #$80                        A:10 X:FF Y:00 P:24 SP:FF CYC:187 SL:238
C7AD  F0 F9     BEQ $C7A8                       A:00 X:FF Y:00 P:26 SP:FF CYC:193 SL:238
C7A8  AD 02 20  LDA $2002 = FF                  A:00 X:FF Y:00 P:26 SP:FF CYC:202 SL:238
C7AB  29 80     AND #$80                        A:10 X:FF Y:00 P:24 SP:FF CYC:214 SL:238
C7AD  F0 F9     BEQ $C7A8                       A:00 X:FF Y:00 P:26 SP:FF CYC:220 SL:238
C7A8  AD 02 20  LDA $2002 = FF                  A:00 X:FF Y:00 P:26 SP:FF CYC:229 SL:238
C7AB  29 80     AND #$80                        A:10 X:FF Y:00 P:24 SP:FF CYC:241 SL:238
C7AD  F0 F9     BEQ $C7A8                       A:00 X:FF Y:00 P:26 SP:FF CYC:247 SL:238
C7A8  AD 02 20  LDA $2002 = FF                  A:00 X:FF Y:00 P:26 SP:FF CYC:256 SL:238
C7AB  29 80     AND #$80                        A:10 X:FF Y:00 P:24 SP:FF CYC:268 SL:238
C7AD  F0 F9     BEQ $C7A8                       A:00 X:FF Y:00 P:26 SP:FF CYC:274 SL:238
C7A8  AD 02 20  LDA $2002 = FF                  A:00 X:FF Y:00 P:26 SP:FF CYC:283 SL:238
C7AB  29 80     AND #$80                        A:10 X:FF Y:00 P:24 SP:FF CYC:295 SL:238
C7AD  F0 F9     BEQ $C7A8                       A:00 X:FF Y:00 P:26 SP:FF CYC:301 SL:238
C7A8  AD 02 20  LDA $2002 = FF                  A:00 X:FF Y:00 P:26 SP:FF CYC:310 SL:238
C7AB  29 80     AND #$80                        A:10 X:FF Y:00 P:24 SP:FF CYC:322 SL:238
C7AD  F0 F9     BEQ $C7A8                       A:00 X:FF Y:00 P:26 SP:FF CYC:328 SL:238
C7A8  AD 02 20  LDA $2002 = FF                  A:00 X:FF Y:00 P:26 SP:FF CYC:337 SL:238
C7AB  29 80     AND #$80                        A:10 X:FF Y:00 P:24 SP:FF CYC:  8 SL:239
C7AD  F0 F9     BEQ $C7A8                       A:00 X:FF Y:00 P:26 SP:FF CYC: 14 SL:239
C7A8  AD 02 20  LDA $2002 = FF                  A:00 X:FF Y:00 P:26 SP:FF CYC: 23 SL:239
C7AB  29 80     AND #$80                        A:10 X:FF Y:00 P:24 SP:FF CYC: 35 SL:239
C7AD  F0 F9     BEQ $C7A8                       A:00 X:FF Y:00 P:26 SP:FF CYC: 41 SL:239
C7A8  AD 02 20  LDA $2002 = FF                  A:00 X:FF Y:00 P:26 SP:FF CYC: 50 SL:239
C7AB  29 80     AND #$80                        A:10 X:FF Y:00 P:24 SP:FF CYC: 62 SL:239
C7AD  F0 F9     BEQ $C7A8                       A:00 X:FF Y:00 P:26 SP:FF CYC: 68 SL:239
C7A8  AD 02 20  LDA $2002 = FF                  A:00 X:FF Y:00 P:26 SP:FF CYC: 77 SL:239
C7AB  29 80     AND #$80                        A:10 X:FF Y:00 P:24 SP:FF CYC: 89 SL:239
C7AD  F0 F9     BEQ $C7A8                       A:00 X:FF Y:00 P:26 SP:FF CYC: 95 SL:239
C7A8  AD 02 20  LDA $2002 = FF                  A:00 X:FF Y:00 P:26 SP:FF CYC:104 SL:239
C7AB  29 80     AND #$80                        A:10 X:FF Y:00 P:24 SP:FF CYC:116 SL:239
C7AD  F0 F9     BEQ $C7A8                       A:00 X:FF Y:00 P:26 SP:FF CYC:122 SL:239
C7A8  AD 02 20  LDA $2002 = FF                  A:00 X:FF Y:00 P:26 SP:FF CYC:131 SL:239
C7AB  29 80     AND #$80                        A:10 X:FF Y:00 P:24 SP:FF CYC:143 SL:239
C7AD  F0 F9     BEQ $C7A8                       A:00 X:FF Y:00 P:26 SP:FF CYC:149 SL:239
C7A8  AD 02 20  LDA $2002 = FF                  A:00 X:FF Y:00 P:26 SP:FF CYC:158 SL:239
C7AB  29 80     AND #$80                        A:10 X:FF Y:00 P:24 SP:FF CYC:170 SL:239
C7AD  F0 F9     BEQ $C7A8                       A:00 X:FF Y:00 P:26 SP:FF CYC:176 SL:239
C7A8  AD 02 20  LDA $2002 = FF                  A:00 X:FF Y:00 P:26 SP:FF CYC:185 SL:239
C7AB  29 80     AND #$80                        A:10 X:FF Y:00 P:24 SP:FF CYC:197 SL:239
C7AD  F0 F9     BEQ $C7A8                       A:00 X:FF Y:00 P:26 SP:FF CYC:203 SL:239
C7A8  AD 02 20  LDA $2002 = FF                  A:00 X:FF Y:00 P:26 SP:FF CYC:212 SL:239
C7AB  29 80     AND #$80                        A:10 X:FF Y:00 P:24 SP:FF CYC:224 SL:239
C7AD  F0 F9     BEQ $C7A8                       A:00 X:FF Y:00 P:26 SP:FF CYC:230 SL:239
C7A8  AD 02 20  LDA $2002 = FF                  A:00 X:FF Y:00 P:26 SP:FF CYC:239 SL:239
C7AB  29 80     AND #$80                        A:10 X:FF Y:00 P:24 SP:FF CYC:251 SL:239
C7AD  F0 F9     BEQ $C7A8                       A:00 X:FF Y:00 P:26 SP:FF CYC:257 SL:239
C7A8  AD 02 20  LDA $2002 = FF                  A:00 X:FF Y:00 P:26 SP:FF CYC:266 SL:239
C7AB  29 80     AND #$80                        A:10 X:FF Y:00 P:24 SP:FF CYC:278 SL:239
C7AD  F0 F9     BEQ $C7A8                       A:00 X:FF Y:00 P:26 SP:FF CYC:284 SL:239
C7A8  AD 02 20  LDA $2002 = FF                  A:00 X:FF Y:00 P:26 SP:FF CYC:293 SL:239
C7AB  29 80     AND #$80                        A:10 X:FF Y:00 P:24 SP:FF CYC:305 SL:239
C7AD  F0 F9     BEQ $C7A8                       A:00 X:FF Y:00 P:26 SP:FF CYC:311 SL:239
C7A8  AD 02 20  LDA $2002 = FF                  A:00 X:FF Y:00 P:26 SP:FF CYC:320 SL:239
C7AB  29 80     AND #$80                        A:10 X:FF Y:00 P:24 SP:FF CYC:332 SL:239
C7AD  F0 F9     BEQ $C7A8                       A:00 X:FF Y:00 P:26 SP:FF CYC:338 SL:239
C7A8  AD 02 20  LDA $2002 = FF                  A:00 X:FF Y:00 P:26 SP:FF CYC:  6 SL:240
C7AB  29 80     AND #$80                        A:10 X:FF Y:00 P:24 SP:FF CYC: 18 SL:240
C7AD  F0 F9     BEQ $C7A8                       A:00 X:FF Y:00 P:26 SP:FF CYC: 24 SL:240
C7A8  AD 02 20  LDA $2002 = FF                  A:00 X:FF Y:00 P:26 SP:FF CYC: 33 SL:240
C7AB  29 80     AND #$80                        A:10 X:FF Y:00 P:24 SP:FF CYC: 45 SL:240
C7AD  F0 F9     BEQ $C7A8                       A:00 X:FF Y:00 P:26 SP:FF CYC: 51 SL:240
C7A8  AD 02 20  LDA $2002 = FF                  A:00 X:FF Y:00 P:26 SP:FF CYC: 60 SL:240
C7AB  29 80     AND #$80                        A:10 X:FF Y:00 P:24 SP:FF CYC: 72 SL:240
C7AD  F0 F9     BEQ $C7A8                       A:00 X:FF Y:00 P:26 SP:FF CYC: 78 SL:240
C7A8  AD 02 20  LDA $2002 = FF                  A:00 X:FF Y:00 P:26 SP:FF CYC: 87 SL:240
C7AB  29 80     AND #$80                        A:10 X:FF Y:00 P:24 SP:FF CYC: 99 SL:240
C7AD  F0 F9     BEQ $C7A8                       A:00 X:FF Y:00 P:26 SP:FF CYC:105 SL:240
C7A8  AD 02 20  LDA $2002 = FF                  A:00 X:FF Y:00 P:26 SP:FF CYC:114 SL:240
C7AB  29 80     AND #$80                        A:10 X:FF Y:00 P:24 SP:FF CYC:126 SL:240
C7AD  F0 F9     BEQ $C7A8                       A:00 X:FF Y:00 P:26 SP:FF CYC:132 SL:240
C7A8  AD 02 20  LDA $2002 = FF                  A:00 X:FF Y:00 P:26 SP:FF CYC:141 SL:240
C7AB  29 80     AND #$80                        A:10 X:FF Y:00 P:24 SP:FF CYC:153 SL:240
C7AD  F0 F9     BEQ $C7A8                       A:00 X:FF Y:00 P:26 SP:FF CYC:159 SL:240
C7A8  AD 02 20  LDA $2002 = FF                  A:00 X:FF Y:00 P:26 SP:FF CYC:168 SL:240
C7AB  29 80     AND #$80                        A:10 X:FF Y:00 P:24 SP:FF CYC:180 SL:240
C7AD  F0 F9     BEQ $C7A8                       A:00 X:FF Y:00 P:26 SP:FF CYC:186 SL:240
C7A8  AD 02 20  LDA $2002 = FF                  A:00 X:FF Y:00 P:26 SP:FF CYC:195 SL:240
C7AB  29 80     AND #$80                        A:10 X:FF Y:00 P:24 SP:FF CYC:207 SL:240
C7AD  F0 F9     BEQ $C7A8                       A:00 X:FF Y:00 P:26 SP:FF CYC:213 SL:240
C7A8  AD 02 20  LDA $2002 = FF                  A:00 X:FF Y:00 P:26 SP:FF CYC:222 SL:240
C7AB  29 80     AND #$80                        A:10 X:FF Y:00 P:24 SP:FF CYC:234 SL:240
C7AD  F0 F9     BEQ $C7A8                       A:00 X:FF Y:00 P:26 SP:FF CYC:240 SL:240
C7A8  AD 02 20  LDA $2002 = FF                  A:00 X:FF Y:00 P:26 SP:FF CYC:249 SL:240
C7AB  29 80     AND #$80                        A:10 X:FF Y:00 P:24 SP:FF CYC:261 SL:240
C7AD  F0 F9     BEQ $C7A8                       A:00 X:FF Y:00 P:26 SP:FF CYC:267 SL:240
C7A8  AD 02 20  LDA $2002 = FF                  A:00 X:FF Y:00 P:26 SP:FF CYC:276 SL:240
C7AB  29 80     AND #$80                        A:10 X:FF Y:00 P:24 SP:FF CYC:288 SL:240
C7AD  F0 F9     BEQ $C7A8                       A:00 X:FF Y:00 P:26 SP:FF CYC:294 SL:240
C7A8  AD 02 20  LDA $2002 = FF                  A:00 X:FF Y:00 P:26 SP:FF CYC:303 SL:240
C7AB  29 80     AND #$80                        A:10 X:FF Y:00 P:24 SP:FF CYC:315 SL:240
C7AD  F0 F9     BEQ $C7A8                       A:00 X:FF Y:00 P:26 SP:FF CYC:321 SL:240
C7A8  AD 02 20  LDA $2002 = FF                  A:00 X:FF Y:00 P:26 SP:FF CYC:330 SL:240
C7AB  29 80     AND #$80                        A:90 X:FF Y:00 P:A4 SP:FF CYC:  1 SL:241
C7AD  F0 F9     BEQ $C7A8                       A:80 X:FF Y:00 P:A4 SP:FF CYC:  7 SL:241
C7AF  A0 07     LDY #$07                        A:80 X:FF Y:00 P:A4 SP:FF CYC: 13 SL:241
C7B1  84 01     STY $01 = 00                    A:80 X:FF Y:07 P:24 SP:FF CYC: 19 SL:241
C7B3  A0 00     LDY #$00                        A:80 X:FF Y:07 P:24 SP:FF CYC: 28 SL:241
C7B5  84 00     STY $00 = 00                    A:80 X:FF Y:00 P:26 SP:FF CYC: 34 SL:241
C7B7  A9 00     LDA #$00                        A:80 X:FF Y:00 P:26 SP:FF CYC: 43 SL:241
C7B9  91 00     STA ($00),Y = 0700 @ 0700 = 00  A:00 X:FF Y:00 P:26 SP:FF CYC: 49 SL:241
C7BB  88        DEY                             A:00 X:FF Y:00 P:26 SP:FF CYC: 67 SL:241
C7BC  D0 FB     BNE $C7B9                       A:00 X:FF Y:FF P:A4 SP:FF CYC: 73 SL:241
C7B9  91 00     STA ($00),Y = 0700 @ 07FF = 00  A:00 X:FF Y:FF P:A4 SP:FF CYC: 82 SL:241
C7BB  88        DEY                             A:00 X:FF Y:FF P:A4 SP:FF CYC:100 SL:241
C7BC  D0 FB     BNE $C7B9                       A:00 X:FF Y:FE P:A4 SP:FF CYC:106 SL:241
C7B9  91 00     STA ($00),Y = 0700 @ 07FE = 00  A:00 X:FF Y:FE P:A4 SP:FF CYC:115 SL:241
C7BB  88        DEY                             A:00 X:FF Y:FE P:A4 SP:FF CYC:133 SL:241
C7BC  D0 FB     BNE $C7B9                       A:00 X:FF Y:FD P:A4 SP:FF CYC:139 SL:241
C7B9  91 00     STA ($00),Y = 0700 @ 07FD = 00  A:00 X:FF Y:FD P:A4 SP:FF CYC:148 SL:241
C7BB  88        DEY                             A:00 X:FF Y:FD P:A4 SP:FF CYC:166 SL:241
C7BC  D0 FB     BNE $C7B9                       A:00 X:FF Y:FC P:A4 SP:FF CYC:172 SL:241
C7B9  91 00     STA ($00),Y = 0700 @ 07FC = 00  A:00 X:FF Y:FC P:A4 SP:FF CYC:181 SL:241
C7BB  88        DEY                             A:00 X:FF Y:FC P:A4 SP:FF CYC:199 SL:241
C7BC  D0 FB     BNE $C7B9                       A:00 X:FF Y:FB P:A4 SP:FF CYC:205 SL:241
C7B9  91 00     STA ($00),Y = 0700 @ 07FB = 00  A:00 X:FF Y:FB P:A4 SP:FF CYC:214 SL:241
C7BB  88        DEY                             A:00 X:FF Y:FB P:A4 SP:FF CYC:232 SL:241
C7BC  D0 FB     BNE $C7B9                       A:00 X:FF Y:FA P:A4 SP:FF CYC:238 SL:241
C7B9  91 00     STA ($00),Y = 0700 @ 07FA = 00  A:00 X:FF Y:FA P:A4 SP:FF CYC:247 SL:241
C7BB  88        DEY                             A:00 X:FF Y:FA P:A4 SP:FF CYC:265 SL:241
C7BC  D0 FB     BNE $C7B9                       A:00 X:FF Y:F9 P:A4 SP:FF CYC:271 SL:241
C7B9  91 00     STA ($00),Y = 0700 @ 07F9 = 00  A:00 X:FF Y:F9 P:A4 SP:FF CYC:280 SL:241
C7BB  88        DEY                             A:00 X:FF Y:F9 P:A4 SP:FF CYC:298 SL:241
C7BC  D0 FB     BNE $C7B9                       A:00 X:FF Y:F8 P:A4 SP:FF CYC:304 SL:241
C7B9  91 00     STA ($00),Y = 0700 @ 07F8 = 00  A:00 X:FF Y:F8 P:A4 SP:FF CYC:313 SL:241
C7BB  88        DEY                             A:00 X:FF Y:F8 P:A4 SP:FF CYC:331 SL:241
C7BC  D0 FB     BNE $C7B9                       A:00 X:FF Y:F7 P:A4 SP:FF CYC:337 SL:241
C7B9  91 00     STA ($00),Y = 0700 @ 07F7 = 00  A:00 X:FF Y:F7 P:A4 SP:FF CYC:  5 SL:242
C7BB  88        DEY                             A:00 X:FF Y:F7 P:A4 SP:FF CYC: 23 SL:242
C7BC  D0 FB     BNE $C7B9                       A:00 X:FF Y:F6 P:A4 SP:FF CYC: 29 SL:242
C7B9  91 00     STA ($00),Y = 0700 @ 07F6 = 00  A:00 X:FF Y:F6 P:A4 SP:FF CYC: 38 SL:242
C7BB  88        DEY                             A:00 X:FF Y:F6 P:A4 SP:FF CYC: 56 SL:242
C7BC  D0 FB     BNE $C7B9                       A:00 X:FF Y:F5 P:A4 SP:FF CYC: 62 SL:242
C7B9  91 00     STA ($00),Y = 0700 @ 07F5 = 00  A:00 X:FF Y:F5 P:A4 SP:FF CYC: 71 SL:242
C7BB  88        DEY                             A:00 X:FF Y:F5 P:A4 SP:FF CYC: 89 SL:242
C7BC  D0 FB     BNE $C7B9                       A:00 X:FF Y:F4 P:A4 SP:FF CYC: 95 SL:242
C7B9  91 00     STA ($00),Y = 0700 @ 07F4 = 00  A:00 X:FF Y:F4 P:A4 SP:FF CYC:104 SL:242
C7BB  88        DEY                             A:00 X:FF Y:F4 P:A4 SP:FF CYC:122 SL:242
C7BC  D0 FB     BNE $C7B9                       A:00 X:FF Y:F3 P:A4 SP:FF CYC:128 SL:242
C7B9  91 00     STA ($00),Y = 0700 @ 07F3 = 00  A:00 X:FF Y:F3 P:A4 SP:FF CYC:137 SL:242
C7BB  88        DEY                             A:00 X:FF Y:F3 P:A4 SP:FF CYC:155 SL:242
C7BC  D0 FB     BNE $C7B9                       A:00 X:FF Y:F2 P:A4 SP:FF CYC:161 SL:242
C7B9  91 00     STA ($00),Y = 0700 @ 07F2 = 00  A:00 X:FF Y:F2 P:A4 SP:FF CYC:170 SL:242
C7BB  88        DEY                             A:00 X:FF Y:F2 P:A4 SP:FF CYC:188 SL:242
C7BC  D0 FB     BNE $C7B9                       A:00 X:FF Y:F1 P:A4 SP:FF CYC:194 SL:242
C7B9  91 00     STA ($00),Y = 0700 @ 07F1 = 00  A:00 X:FF Y:F1 P:A4 SP:FF CYC:203 SL:242
C7BB  88        DEY                             A:00 X:FF Y:F1 P:A4 SP:FF CYC:221 SL:242
C7BC  D0 FB     BNE $C7B9                       A:00 X:FF Y:F0 P:A4 SP:FF CYC:227 SL:242
C7B9  91 00     STA ($00),Y = 0700 @ 07F0 = 00  A:00 X:FF Y:F0 P:A4 SP:FF CYC:236 SL:242
C7BB  88        DEY                             A:00 X:FF Y:F0 P:A4 SP:FF CYC:254 SL:242
C7BC  D0 FB     BNE $C7B9                       A:00 X:FF Y:EF P:A4 SP:FF CYC:260 SL:242
C7B9  91 00     STA ($00),Y = 0700 @ 07EF = 00  A:00 X:FF Y:EF P:A4 SP:FF CYC:269 SL:242
C7BB  88        DEY                             A:00 X:FF Y:EF P:A4 SP:FF CYC:287 SL:242
C7BC  D0 FB     BNE $C7B9                       A:00 X:FF Y:EE P:A4 SP:FF CYC:293 SL:242
C7B9  91 00     STA ($00),Y = 0700 @ 07EE = 00  A:00 X:FF Y:EE P:A4 SP:FF CYC:302 SL:242
C7BB  88        DEY                             A:00 X:FF Y:EE P:A4 SP:FF CYC:320 SL:242
C7BC  D0 FB     BNE $C7B9                       A:00 X:FF Y:ED P:A4 SP:FF CYC:326 SL:242
C7B9  91 00     STA ($00),Y = 0700 @ 07ED = 00  A:00 X:FF Y:ED P:A4 SP:FF CYC:335 SL:242
C7BB  88        DEY                             A:00 X:FF Y:ED P:A4 SP:FF CYC: 12 SL:243
C7BC  D0 FB     BNE $C7B9                       A:00 X:FF Y:EC P:A4 SP:FF CYC: 18 SL:243
C7B9  91 00     STA ($00),Y = 0700 @ 07EC = 00  A:00 X:FF Y:EC P:A4 SP:FF CYC: 27 SL:243
C7BB  88        DEY                             A:00 X:FF Y:EC P:A4 SP:FF CYC: 45 SL:243
C7BC  D0 FB     BNE $C7B9                       A:00 X:FF Y:EB P:A4 SP:FF CYC: 51 SL:243
C7B9  91 00     STA ($00),Y = 0700 @ 07EB = 00  A:00 X:FF Y:EB P:A4 SP:FF CYC: 60 SL:243
C7BB  88        DEY                             A:00 X:FF Y:EB P:A4 SP:FF CYC: 78 SL:243
